# command-line-arguments
"".LeadingZeros STEXT nosplit size=33 args=0x10 locals=0x0
	0x0000 00000 (/usr/local/go/test/codegen/mathbits.go:15)	TEXT	"".LeadingZeros(SB), NOSPLIT|ABIInternal, $0-16
	0x0000 00000 (/usr/local/go/test/codegen/mathbits.go:15)	FUNCDATA	$0, gclocals·33cdeccccebe80329f1fdbee7f5874cb(SB)
	0x0000 00000 (/usr/local/go/test/codegen/mathbits.go:15)	FUNCDATA	$1, gclocals·33cdeccccebe80329f1fdbee7f5874cb(SB)
	0x0000 00000 (/usr/local/go/test/codegen/mathbits.go:21)	MOVQ	"".n+8(SP), AX
	0x0005 00005 (/usr/local/go/test/codegen/mathbits.go:21)	BSRQ	AX, AX
	0x0009 00009 (<unknown line number>)	NOP
	0x0009 00009 (/usr/local/go/test/codegen/mathbits.go:21)	MOVQ	$-1, CX
	0x0010 00016 (/usr/local/go/test/codegen/mathbits.go:21)	CMOVQEQ	CX, AX
	0x0014 00020 (/usr/local/go/test/codegen/mathbits.go:21)	ADDQ	$-63, AX
	0x0018 00024 (/usr/local/go/test/codegen/mathbits.go:21)	NEGQ	AX
	0x001b 00027 (/usr/local/go/test/codegen/mathbits.go:21)	MOVQ	AX, "".~r1+16(SP)
	0x0020 00032 (/usr/local/go/test/codegen/mathbits.go:21)	RET
	0x0000 48 8b 44 24 08 48 0f bd c0 48 c7 c1 ff ff ff ff  H.D$.H...H......
	0x0010 48 0f 44 c1 48 83 c0 c1 48 f7 d8 48 89 44 24 10  H.D.H...H..H.D$.
	0x0020 c3                                               .
"".LeadingZeros64 STEXT nosplit size=33 args=0x10 locals=0x0
	0x0000 00000 (/usr/local/go/test/codegen/mathbits.go:24)	TEXT	"".LeadingZeros64(SB), NOSPLIT|ABIInternal, $0-16
	0x0000 00000 (/usr/local/go/test/codegen/mathbits.go:24)	FUNCDATA	$0, gclocals·33cdeccccebe80329f1fdbee7f5874cb(SB)
	0x0000 00000 (/usr/local/go/test/codegen/mathbits.go:24)	FUNCDATA	$1, gclocals·33cdeccccebe80329f1fdbee7f5874cb(SB)
	0x0000 00000 (/usr/local/go/test/codegen/mathbits.go:30)	MOVQ	"".n+8(SP), AX
	0x0005 00005 (/usr/local/go/test/codegen/mathbits.go:30)	BSRQ	AX, AX
	0x0009 00009 (<unknown line number>)	NOP
	0x0009 00009 (/usr/local/go/test/codegen/mathbits.go:30)	MOVQ	$-1, CX
	0x0010 00016 (/usr/local/go/test/codegen/mathbits.go:30)	CMOVQEQ	CX, AX
	0x0014 00020 (/usr/local/go/test/codegen/mathbits.go:30)	ADDQ	$-63, AX
	0x0018 00024 (/usr/local/go/test/codegen/mathbits.go:30)	NEGQ	AX
	0x001b 00027 (/usr/local/go/test/codegen/mathbits.go:30)	MOVQ	AX, "".~r1+16(SP)
	0x0020 00032 (/usr/local/go/test/codegen/mathbits.go:30)	RET
	0x0000 48 8b 44 24 08 48 0f bd c0 48 c7 c1 ff ff ff ff  H.D$.H...H......
	0x0010 48 0f 44 c1 48 83 c0 c1 48 f7 d8 48 89 44 24 10  H.D.H...H..H.D$.
	0x0020 c3                                               .
"".LeadingZeros32 STEXT nosplit size=29 args=0x10 locals=0x0
	0x0000 00000 (/usr/local/go/test/codegen/mathbits.go:33)	TEXT	"".LeadingZeros32(SB), NOSPLIT|ABIInternal, $0-16
	0x0000 00000 (/usr/local/go/test/codegen/mathbits.go:33)	FUNCDATA	$0, gclocals·33cdeccccebe80329f1fdbee7f5874cb(SB)
	0x0000 00000 (/usr/local/go/test/codegen/mathbits.go:33)	FUNCDATA	$1, gclocals·33cdeccccebe80329f1fdbee7f5874cb(SB)
	0x0000 00000 (/usr/local/go/test/codegen/mathbits.go:39)	MOVL	"".n+8(SP), AX
	0x0004 00004 (/usr/local/go/test/codegen/mathbits.go:39)	LEAQ	(AX)(AX*1), AX
	0x0008 00008 (/usr/local/go/test/codegen/mathbits.go:39)	LEAQ	1(AX), AX
	0x000c 00012 (/usr/local/go/test/codegen/mathbits.go:39)	BSRQ	AX, AX
	0x0010 00016 (<unknown line number>)	NOP
	0x0010 00016 (/usr/local/go/test/codegen/mathbits.go:39)	ADDQ	$-32, AX
	0x0014 00020 (/usr/local/go/test/codegen/mathbits.go:39)	NEGQ	AX
	0x0017 00023 (/usr/local/go/test/codegen/mathbits.go:39)	MOVQ	AX, "".~r1+16(SP)
	0x001c 00028 (/usr/local/go/test/codegen/mathbits.go:39)	RET
	0x0000 8b 44 24 08 48 8d 04 00 48 8d 40 01 48 0f bd c0  .D$.H...H.@.H...
	0x0010 48 83 c0 e0 48 f7 d8 48 89 44 24 10 c3           H...H..H.D$..
"".LeadingZeros16 STEXT nosplit size=27 args=0x10 locals=0x0
	0x0000 00000 (/usr/local/go/test/codegen/mathbits.go:42)	TEXT	"".LeadingZeros16(SB), NOSPLIT|ABIInternal, $0-16
	0x0000 00000 (/usr/local/go/test/codegen/mathbits.go:42)	FUNCDATA	$0, gclocals·33cdeccccebe80329f1fdbee7f5874cb(SB)
	0x0000 00000 (/usr/local/go/test/codegen/mathbits.go:42)	FUNCDATA	$1, gclocals·33cdeccccebe80329f1fdbee7f5874cb(SB)
	0x0000 00000 (<unknown line number>)	NOP
	0x0000 00000 (/usr/local/go/test/codegen/mathbits.go:48)	MOVWLZX	"".n+8(SP), AX
	0x0005 00005 (/usr/local/go/test/codegen/mathbits.go:48)	LEAL	(AX)(AX*1), AX
	0x0008 00008 (/usr/local/go/test/codegen/mathbits.go:48)	LEAL	1(AX), AX
	0x000b 00011 (/usr/local/go/test/codegen/mathbits.go:48)	BSRL	AX, AX
	0x000e 00014 (/usr/local/go/test/codegen/mathbits.go:48)	ADDQ	$-16, AX
	0x0012 00018 (/usr/local/go/test/codegen/mathbits.go:48)	NEGQ	AX
	0x0015 00021 (/usr/local/go/test/codegen/mathbits.go:48)	MOVQ	AX, "".~r1+16(SP)
	0x001a 00026 (/usr/local/go/test/codegen/mathbits.go:48)	RET
	0x0000 0f b7 44 24 08 8d 04 00 8d 40 01 0f bd c0 48 83  ..D$.....@....H.
	0x0010 c0 f0 48 f7 d8 48 89 44 24 10 c3                 ..H..H.D$..
"".LeadingZeros8 STEXT nosplit size=27 args=0x10 locals=0x0
	0x0000 00000 (/usr/local/go/test/codegen/mathbits.go:51)	TEXT	"".LeadingZeros8(SB), NOSPLIT|ABIInternal, $0-16
	0x0000 00000 (/usr/local/go/test/codegen/mathbits.go:51)	FUNCDATA	$0, gclocals·33cdeccccebe80329f1fdbee7f5874cb(SB)
	0x0000 00000 (/usr/local/go/test/codegen/mathbits.go:51)	FUNCDATA	$1, gclocals·33cdeccccebe80329f1fdbee7f5874cb(SB)
	0x0000 00000 (<unknown line number>)	NOP
	0x0000 00000 (/usr/local/go/test/codegen/mathbits.go:57)	MOVBLZX	"".n+8(SP), AX
	0x0005 00005 (/usr/local/go/test/codegen/mathbits.go:57)	LEAL	(AX)(AX*1), AX
	0x0008 00008 (/usr/local/go/test/codegen/mathbits.go:57)	LEAL	1(AX), AX
	0x000b 00011 (/usr/local/go/test/codegen/mathbits.go:57)	BSRL	AX, AX
	0x000e 00014 (/usr/local/go/test/codegen/mathbits.go:57)	ADDQ	$-8, AX
	0x0012 00018 (/usr/local/go/test/codegen/mathbits.go:57)	NEGQ	AX
	0x0015 00021 (/usr/local/go/test/codegen/mathbits.go:57)	MOVQ	AX, "".~r1+16(SP)
	0x001a 00026 (/usr/local/go/test/codegen/mathbits.go:57)	RET
	0x0000 0f b6 44 24 08 8d 04 00 8d 40 01 0f bd c0 48 83  ..D$.....@....H.
	0x0010 c0 f8 48 f7 d8 48 89 44 24 10 c3                 ..H..H.D$..
"".Len STEXT nosplit size=29 args=0x10 locals=0x0
	0x0000 00000 (/usr/local/go/test/codegen/mathbits.go:64)	TEXT	"".Len(SB), NOSPLIT|ABIInternal, $0-16
	0x0000 00000 (/usr/local/go/test/codegen/mathbits.go:64)	FUNCDATA	$0, gclocals·33cdeccccebe80329f1fdbee7f5874cb(SB)
	0x0000 00000 (/usr/local/go/test/codegen/mathbits.go:64)	FUNCDATA	$1, gclocals·33cdeccccebe80329f1fdbee7f5874cb(SB)
	0x0000 00000 (/usr/local/go/test/codegen/mathbits.go:70)	MOVQ	"".n+8(SP), AX
	0x0005 00005 (/usr/local/go/test/codegen/mathbits.go:70)	BSRQ	AX, AX
	0x0009 00009 (/usr/local/go/test/codegen/mathbits.go:70)	MOVQ	$-1, CX
	0x0010 00016 (/usr/local/go/test/codegen/mathbits.go:70)	CMOVQEQ	CX, AX
	0x0014 00020 (/usr/local/go/test/codegen/mathbits.go:70)	INCQ	AX
	0x0017 00023 (/usr/local/go/test/codegen/mathbits.go:70)	MOVQ	AX, "".~r1+16(SP)
	0x001c 00028 (/usr/local/go/test/codegen/mathbits.go:70)	RET
	0x0000 48 8b 44 24 08 48 0f bd c0 48 c7 c1 ff ff ff ff  H.D$.H...H......
	0x0010 48 0f 44 c1 48 ff c0 48 89 44 24 10 c3           H.D.H..H.D$..
"".Len64 STEXT nosplit size=29 args=0x10 locals=0x0
	0x0000 00000 (/usr/local/go/test/codegen/mathbits.go:73)	TEXT	"".Len64(SB), NOSPLIT|ABIInternal, $0-16
	0x0000 00000 (/usr/local/go/test/codegen/mathbits.go:73)	FUNCDATA	$0, gclocals·33cdeccccebe80329f1fdbee7f5874cb(SB)
	0x0000 00000 (/usr/local/go/test/codegen/mathbits.go:73)	FUNCDATA	$1, gclocals·33cdeccccebe80329f1fdbee7f5874cb(SB)
	0x0000 00000 (/usr/local/go/test/codegen/mathbits.go:79)	MOVQ	"".n+8(SP), AX
	0x0005 00005 (/usr/local/go/test/codegen/mathbits.go:79)	BSRQ	AX, AX
	0x0009 00009 (/usr/local/go/test/codegen/mathbits.go:79)	MOVQ	$-1, CX
	0x0010 00016 (/usr/local/go/test/codegen/mathbits.go:79)	CMOVQEQ	CX, AX
	0x0014 00020 (/usr/local/go/test/codegen/mathbits.go:79)	INCQ	AX
	0x0017 00023 (/usr/local/go/test/codegen/mathbits.go:79)	MOVQ	AX, "".~r1+16(SP)
	0x001c 00028 (/usr/local/go/test/codegen/mathbits.go:79)	RET
	0x0000 48 8b 44 24 08 48 0f bd c0 48 c7 c1 ff ff ff ff  H.D$.H...H......
	0x0010 48 0f 44 c1 48 ff c0 48 89 44 24 10 c3           H.D.H..H.D$..
"".Len32 STEXT nosplit size=22 args=0x10 locals=0x0
	0x0000 00000 (/usr/local/go/test/codegen/mathbits.go:82)	TEXT	"".Len32(SB), NOSPLIT|ABIInternal, $0-16
	0x0000 00000 (/usr/local/go/test/codegen/mathbits.go:82)	FUNCDATA	$0, gclocals·33cdeccccebe80329f1fdbee7f5874cb(SB)
	0x0000 00000 (/usr/local/go/test/codegen/mathbits.go:82)	FUNCDATA	$1, gclocals·33cdeccccebe80329f1fdbee7f5874cb(SB)
	0x0000 00000 (/usr/local/go/test/codegen/mathbits.go:88)	MOVL	"".n+8(SP), AX
	0x0004 00004 (/usr/local/go/test/codegen/mathbits.go:88)	LEAQ	(AX)(AX*1), AX
	0x0008 00008 (/usr/local/go/test/codegen/mathbits.go:88)	LEAQ	1(AX), AX
	0x000c 00012 (/usr/local/go/test/codegen/mathbits.go:88)	BSRQ	AX, AX
	0x0010 00016 (/usr/local/go/test/codegen/mathbits.go:88)	MOVQ	AX, "".~r1+16(SP)
	0x0015 00021 (/usr/local/go/test/codegen/mathbits.go:88)	RET
	0x0000 8b 44 24 08 48 8d 04 00 48 8d 40 01 48 0f bd c0  .D$.H...H.@.H...
	0x0010 48 89 44 24 10 c3                                H.D$..
"".Len16 STEXT nosplit size=20 args=0x10 locals=0x0
	0x0000 00000 (/usr/local/go/test/codegen/mathbits.go:91)	TEXT	"".Len16(SB), NOSPLIT|ABIInternal, $0-16
	0x0000 00000 (/usr/local/go/test/codegen/mathbits.go:91)	FUNCDATA	$0, gclocals·33cdeccccebe80329f1fdbee7f5874cb(SB)
	0x0000 00000 (/usr/local/go/test/codegen/mathbits.go:91)	FUNCDATA	$1, gclocals·33cdeccccebe80329f1fdbee7f5874cb(SB)
	0x0000 00000 (/usr/local/go/test/codegen/mathbits.go:97)	MOVWLZX	"".n+8(SP), AX
	0x0005 00005 (/usr/local/go/test/codegen/mathbits.go:97)	LEAL	(AX)(AX*1), AX
	0x0008 00008 (/usr/local/go/test/codegen/mathbits.go:97)	LEAL	1(AX), AX
	0x000b 00011 (/usr/local/go/test/codegen/mathbits.go:97)	BSRL	AX, AX
	0x000e 00014 (/usr/local/go/test/codegen/mathbits.go:97)	MOVQ	AX, "".~r1+16(SP)
	0x0013 00019 (/usr/local/go/test/codegen/mathbits.go:97)	RET
	0x0000 0f b7 44 24 08 8d 04 00 8d 40 01 0f bd c0 48 89  ..D$.....@....H.
	0x0010 44 24 10 c3                                      D$..
"".Len8 STEXT nosplit size=20 args=0x10 locals=0x0
	0x0000 00000 (/usr/local/go/test/codegen/mathbits.go:100)	TEXT	"".Len8(SB), NOSPLIT|ABIInternal, $0-16
	0x0000 00000 (/usr/local/go/test/codegen/mathbits.go:100)	FUNCDATA	$0, gclocals·33cdeccccebe80329f1fdbee7f5874cb(SB)
	0x0000 00000 (/usr/local/go/test/codegen/mathbits.go:100)	FUNCDATA	$1, gclocals·33cdeccccebe80329f1fdbee7f5874cb(SB)
	0x0000 00000 (/usr/local/go/test/codegen/mathbits.go:106)	MOVBLZX	"".n+8(SP), AX
	0x0005 00005 (/usr/local/go/test/codegen/mathbits.go:106)	LEAL	(AX)(AX*1), AX
	0x0008 00008 (/usr/local/go/test/codegen/mathbits.go:106)	LEAL	1(AX), AX
	0x000b 00011 (/usr/local/go/test/codegen/mathbits.go:106)	BSRL	AX, AX
	0x000e 00014 (/usr/local/go/test/codegen/mathbits.go:106)	MOVQ	AX, "".~r1+16(SP)
	0x0013 00019 (/usr/local/go/test/codegen/mathbits.go:106)	RET
	0x0000 0f b6 44 24 08 8d 04 00 8d 40 01 0f bd c0 48 89  ..D$.....@....H.
	0x0010 44 24 10 c3                                      D$..
"".OnesCount STEXT size=95 args=0x10 locals=0x18
	0x0000 00000 (/usr/local/go/test/codegen/mathbits.go:114)	TEXT	"".OnesCount(SB), ABIInternal, $24-16
	0x0000 00000 (/usr/local/go/test/codegen/mathbits.go:114)	MOVQ	(TLS), CX
	0x0009 00009 (/usr/local/go/test/codegen/mathbits.go:114)	CMPQ	SP, 16(CX)
	0x000d 00013 (/usr/local/go/test/codegen/mathbits.go:114)	PCDATA	$0, $-2
	0x000d 00013 (/usr/local/go/test/codegen/mathbits.go:114)	JLS	88
	0x000f 00015 (/usr/local/go/test/codegen/mathbits.go:114)	PCDATA	$0, $-1
	0x000f 00015 (/usr/local/go/test/codegen/mathbits.go:114)	SUBQ	$24, SP
	0x0013 00019 (/usr/local/go/test/codegen/mathbits.go:114)	MOVQ	BP, 16(SP)
	0x0018 00024 (/usr/local/go/test/codegen/mathbits.go:114)	LEAQ	16(SP), BP
	0x001d 00029 (/usr/local/go/test/codegen/mathbits.go:114)	FUNCDATA	$0, gclocals·33cdeccccebe80329f1fdbee7f5874cb(SB)
	0x001d 00029 (/usr/local/go/test/codegen/mathbits.go:114)	FUNCDATA	$1, gclocals·33cdeccccebe80329f1fdbee7f5874cb(SB)
	0x001d 00029 (/usr/local/go/test/codegen/mathbits.go:114)	MOVBQZX	runtime.x86HasPOPCNT(SB), AX
	0x0025 00037 (/usr/local/go/test/codegen/mathbits.go:114)	TESTQ	AX, AX
	0x0028 00040 (/usr/local/go/test/codegen/mathbits.go:121)	JEQ	67
	0x002a 00042 (/usr/local/go/test/codegen/mathbits.go:121)	MOVQ	"".n+32(SP), AX
	0x002f 00047 (/usr/local/go/test/codegen/mathbits.go:121)	POPCNTQ	AX, AX
	0x0034 00052 (/usr/local/go/test/codegen/mathbits.go:121)	MOVQ	AX, "".~r1+40(SP)
	0x0039 00057 (/usr/local/go/test/codegen/mathbits.go:121)	MOVQ	16(SP), BP
	0x003e 00062 (/usr/local/go/test/codegen/mathbits.go:121)	ADDQ	$24, SP
	0x0042 00066 (/usr/local/go/test/codegen/mathbits.go:121)	RET
	0x0043 00067 (/usr/local/go/test/codegen/mathbits.go:121)	MOVQ	"".n+32(SP), AX
	0x0048 00072 (/usr/local/go/test/codegen/mathbits.go:121)	MOVQ	AX, (SP)
	0x004c 00076 (/usr/local/go/test/codegen/mathbits.go:121)	PCDATA	$1, $0
	0x004c 00076 (/usr/local/go/test/codegen/mathbits.go:121)	CALL	math/bits.OnesCount(SB)
	0x0051 00081 (/usr/local/go/test/codegen/mathbits.go:121)	MOVQ	8(SP), AX
	0x0056 00086 (/usr/local/go/test/codegen/mathbits.go:121)	JMP	52
	0x0058 00088 (/usr/local/go/test/codegen/mathbits.go:121)	NOP
	0x0058 00088 (/usr/local/go/test/codegen/mathbits.go:114)	PCDATA	$1, $-1
	0x0058 00088 (/usr/local/go/test/codegen/mathbits.go:114)	PCDATA	$0, $-2
	0x0058 00088 (/usr/local/go/test/codegen/mathbits.go:114)	CALL	runtime.morestack_noctxt(SB)
	0x005d 00093 (/usr/local/go/test/codegen/mathbits.go:114)	PCDATA	$0, $-1
	0x005d 00093 (/usr/local/go/test/codegen/mathbits.go:114)	JMP	0
	0x0000 64 48 8b 0c 25 00 00 00 00 48 3b 61 10 76 49 48  dH..%....H;a.vIH
	0x0010 83 ec 18 48 89 6c 24 10 48 8d 6c 24 10 48 0f b6  ...H.l$.H.l$.H..
	0x0020 05 00 00 00 00 48 85 c0 74 19 48 8b 44 24 20 f3  .....H..t.H.D$ .
	0x0030 48 0f b8 c0 48 89 44 24 28 48 8b 6c 24 10 48 83  H...H.D$(H.l$.H.
	0x0040 c4 18 c3 48 8b 44 24 20 48 89 04 24 e8 00 00 00  ...H.D$ H..$....
	0x0050 00 48 8b 44 24 08 eb dc e8 00 00 00 00 eb a1     .H.D$..........
	rel 5+4 t=17 TLS+0
	rel 33+4 t=16 runtime.x86HasPOPCNT+0
	rel 77+4 t=8 math/bits.OnesCount+0
	rel 89+4 t=8 runtime.morestack_noctxt+0
"".OnesCount64 STEXT size=95 args=0x10 locals=0x18
	0x0000 00000 (/usr/local/go/test/codegen/mathbits.go:125)	TEXT	"".OnesCount64(SB), ABIInternal, $24-16
	0x0000 00000 (/usr/local/go/test/codegen/mathbits.go:125)	MOVQ	(TLS), CX
	0x0009 00009 (/usr/local/go/test/codegen/mathbits.go:125)	CMPQ	SP, 16(CX)
	0x000d 00013 (/usr/local/go/test/codegen/mathbits.go:125)	PCDATA	$0, $-2
	0x000d 00013 (/usr/local/go/test/codegen/mathbits.go:125)	JLS	88
	0x000f 00015 (/usr/local/go/test/codegen/mathbits.go:125)	PCDATA	$0, $-1
	0x000f 00015 (/usr/local/go/test/codegen/mathbits.go:125)	SUBQ	$24, SP
	0x0013 00019 (/usr/local/go/test/codegen/mathbits.go:125)	MOVQ	BP, 16(SP)
	0x0018 00024 (/usr/local/go/test/codegen/mathbits.go:125)	LEAQ	16(SP), BP
	0x001d 00029 (/usr/local/go/test/codegen/mathbits.go:125)	FUNCDATA	$0, gclocals·33cdeccccebe80329f1fdbee7f5874cb(SB)
	0x001d 00029 (/usr/local/go/test/codegen/mathbits.go:125)	FUNCDATA	$1, gclocals·33cdeccccebe80329f1fdbee7f5874cb(SB)
	0x001d 00029 (/usr/local/go/test/codegen/mathbits.go:125)	MOVBQZX	runtime.x86HasPOPCNT(SB), AX
	0x0025 00037 (/usr/local/go/test/codegen/mathbits.go:125)	TESTQ	AX, AX
	0x0028 00040 (/usr/local/go/test/codegen/mathbits.go:132)	JEQ	67
	0x002a 00042 (/usr/local/go/test/codegen/mathbits.go:132)	MOVQ	"".n+32(SP), AX
	0x002f 00047 (/usr/local/go/test/codegen/mathbits.go:132)	POPCNTQ	AX, AX
	0x0034 00052 (/usr/local/go/test/codegen/mathbits.go:132)	MOVQ	AX, "".~r1+40(SP)
	0x0039 00057 (/usr/local/go/test/codegen/mathbits.go:132)	MOVQ	16(SP), BP
	0x003e 00062 (/usr/local/go/test/codegen/mathbits.go:132)	ADDQ	$24, SP
	0x0042 00066 (/usr/local/go/test/codegen/mathbits.go:132)	RET
	0x0043 00067 (/usr/local/go/test/codegen/mathbits.go:132)	MOVQ	"".n+32(SP), AX
	0x0048 00072 (/usr/local/go/test/codegen/mathbits.go:132)	MOVQ	AX, (SP)
	0x004c 00076 (/usr/local/go/test/codegen/mathbits.go:132)	PCDATA	$1, $0
	0x004c 00076 (/usr/local/go/test/codegen/mathbits.go:132)	CALL	math/bits.OnesCount64(SB)
	0x0051 00081 (/usr/local/go/test/codegen/mathbits.go:132)	MOVQ	8(SP), AX
	0x0056 00086 (/usr/local/go/test/codegen/mathbits.go:132)	JMP	52
	0x0058 00088 (/usr/local/go/test/codegen/mathbits.go:132)	NOP
	0x0058 00088 (/usr/local/go/test/codegen/mathbits.go:125)	PCDATA	$1, $-1
	0x0058 00088 (/usr/local/go/test/codegen/mathbits.go:125)	PCDATA	$0, $-2
	0x0058 00088 (/usr/local/go/test/codegen/mathbits.go:125)	CALL	runtime.morestack_noctxt(SB)
	0x005d 00093 (/usr/local/go/test/codegen/mathbits.go:125)	PCDATA	$0, $-1
	0x005d 00093 (/usr/local/go/test/codegen/mathbits.go:125)	JMP	0
	0x0000 64 48 8b 0c 25 00 00 00 00 48 3b 61 10 76 49 48  dH..%....H;a.vIH
	0x0010 83 ec 18 48 89 6c 24 10 48 8d 6c 24 10 48 0f b6  ...H.l$.H.l$.H..
	0x0020 05 00 00 00 00 48 85 c0 74 19 48 8b 44 24 20 f3  .....H..t.H.D$ .
	0x0030 48 0f b8 c0 48 89 44 24 28 48 8b 6c 24 10 48 83  H...H.D$(H.l$.H.
	0x0040 c4 18 c3 48 8b 44 24 20 48 89 04 24 e8 00 00 00  ...H.D$ H..$....
	0x0050 00 48 8b 44 24 08 eb dc e8 00 00 00 00 eb a1     .H.D$..........
	rel 5+4 t=17 TLS+0
	rel 33+4 t=16 runtime.x86HasPOPCNT+0
	rel 77+4 t=8 math/bits.OnesCount64+0
	rel 89+4 t=8 runtime.morestack_noctxt+0
"".OnesCount32 STEXT size=91 args=0x10 locals=0x18
	0x0000 00000 (/usr/local/go/test/codegen/mathbits.go:136)	TEXT	"".OnesCount32(SB), ABIInternal, $24-16
	0x0000 00000 (/usr/local/go/test/codegen/mathbits.go:136)	MOVQ	(TLS), CX
	0x0009 00009 (/usr/local/go/test/codegen/mathbits.go:136)	CMPQ	SP, 16(CX)
	0x000d 00013 (/usr/local/go/test/codegen/mathbits.go:136)	PCDATA	$0, $-2
	0x000d 00013 (/usr/local/go/test/codegen/mathbits.go:136)	JLS	84
	0x000f 00015 (/usr/local/go/test/codegen/mathbits.go:136)	PCDATA	$0, $-1
	0x000f 00015 (/usr/local/go/test/codegen/mathbits.go:136)	SUBQ	$24, SP
	0x0013 00019 (/usr/local/go/test/codegen/mathbits.go:136)	MOVQ	BP, 16(SP)
	0x0018 00024 (/usr/local/go/test/codegen/mathbits.go:136)	LEAQ	16(SP), BP
	0x001d 00029 (/usr/local/go/test/codegen/mathbits.go:136)	FUNCDATA	$0, gclocals·33cdeccccebe80329f1fdbee7f5874cb(SB)
	0x001d 00029 (/usr/local/go/test/codegen/mathbits.go:136)	FUNCDATA	$1, gclocals·33cdeccccebe80329f1fdbee7f5874cb(SB)
	0x001d 00029 (/usr/local/go/test/codegen/mathbits.go:136)	MOVBQZX	runtime.x86HasPOPCNT(SB), AX
	0x0025 00037 (/usr/local/go/test/codegen/mathbits.go:136)	TESTQ	AX, AX
	0x0028 00040 (/usr/local/go/test/codegen/mathbits.go:143)	JEQ	65
	0x002a 00042 (/usr/local/go/test/codegen/mathbits.go:143)	MOVL	"".n+32(SP), AX
	0x002e 00046 (/usr/local/go/test/codegen/mathbits.go:143)	POPCNTL	AX, AX
	0x0032 00050 (/usr/local/go/test/codegen/mathbits.go:143)	MOVQ	AX, "".~r1+40(SP)
	0x0037 00055 (/usr/local/go/test/codegen/mathbits.go:143)	MOVQ	16(SP), BP
	0x003c 00060 (/usr/local/go/test/codegen/mathbits.go:143)	ADDQ	$24, SP
	0x0040 00064 (/usr/local/go/test/codegen/mathbits.go:143)	RET
	0x0041 00065 (/usr/local/go/test/codegen/mathbits.go:143)	MOVL	"".n+32(SP), AX
	0x0045 00069 (/usr/local/go/test/codegen/mathbits.go:143)	MOVL	AX, (SP)
	0x0048 00072 (/usr/local/go/test/codegen/mathbits.go:143)	PCDATA	$1, $0
	0x0048 00072 (/usr/local/go/test/codegen/mathbits.go:143)	CALL	math/bits.OnesCount32(SB)
	0x004d 00077 (/usr/local/go/test/codegen/mathbits.go:143)	MOVQ	8(SP), AX
	0x0052 00082 (/usr/local/go/test/codegen/mathbits.go:143)	JMP	50
	0x0054 00084 (/usr/local/go/test/codegen/mathbits.go:143)	NOP
	0x0054 00084 (/usr/local/go/test/codegen/mathbits.go:136)	PCDATA	$1, $-1
	0x0054 00084 (/usr/local/go/test/codegen/mathbits.go:136)	PCDATA	$0, $-2
	0x0054 00084 (/usr/local/go/test/codegen/mathbits.go:136)	CALL	runtime.morestack_noctxt(SB)
	0x0059 00089 (/usr/local/go/test/codegen/mathbits.go:136)	PCDATA	$0, $-1
	0x0059 00089 (/usr/local/go/test/codegen/mathbits.go:136)	JMP	0
	0x0000 64 48 8b 0c 25 00 00 00 00 48 3b 61 10 76 45 48  dH..%....H;a.vEH
	0x0010 83 ec 18 48 89 6c 24 10 48 8d 6c 24 10 48 0f b6  ...H.l$.H.l$.H..
	0x0020 05 00 00 00 00 48 85 c0 74 17 8b 44 24 20 f3 0f  .....H..t..D$ ..
	0x0030 b8 c0 48 89 44 24 28 48 8b 6c 24 10 48 83 c4 18  ..H.D$(H.l$.H...
	0x0040 c3 8b 44 24 20 89 04 24 e8 00 00 00 00 48 8b 44  ..D$ ..$.....H.D
	0x0050 24 08 eb de e8 00 00 00 00 eb a5                 $..........
	rel 5+4 t=17 TLS+0
	rel 33+4 t=16 runtime.x86HasPOPCNT+0
	rel 73+4 t=8 math/bits.OnesCount32+0
	rel 85+4 t=8 runtime.morestack_noctxt+0
"".OnesCount16 STEXT size=94 args=0x10 locals=0x18
	0x0000 00000 (/usr/local/go/test/codegen/mathbits.go:147)	TEXT	"".OnesCount16(SB), ABIInternal, $24-16
	0x0000 00000 (/usr/local/go/test/codegen/mathbits.go:147)	MOVQ	(TLS), CX
	0x0009 00009 (/usr/local/go/test/codegen/mathbits.go:147)	CMPQ	SP, 16(CX)
	0x000d 00013 (/usr/local/go/test/codegen/mathbits.go:147)	PCDATA	$0, $-2
	0x000d 00013 (/usr/local/go/test/codegen/mathbits.go:147)	JLS	87
	0x000f 00015 (/usr/local/go/test/codegen/mathbits.go:147)	PCDATA	$0, $-1
	0x000f 00015 (/usr/local/go/test/codegen/mathbits.go:147)	SUBQ	$24, SP
	0x0013 00019 (/usr/local/go/test/codegen/mathbits.go:147)	MOVQ	BP, 16(SP)
	0x0018 00024 (/usr/local/go/test/codegen/mathbits.go:147)	LEAQ	16(SP), BP
	0x001d 00029 (/usr/local/go/test/codegen/mathbits.go:147)	FUNCDATA	$0, gclocals·33cdeccccebe80329f1fdbee7f5874cb(SB)
	0x001d 00029 (/usr/local/go/test/codegen/mathbits.go:147)	FUNCDATA	$1, gclocals·33cdeccccebe80329f1fdbee7f5874cb(SB)
	0x001d 00029 (/usr/local/go/test/codegen/mathbits.go:147)	MOVBQZX	runtime.x86HasPOPCNT(SB), AX
	0x0025 00037 (/usr/local/go/test/codegen/mathbits.go:147)	TESTQ	AX, AX
	0x0028 00040 (/usr/local/go/test/codegen/mathbits.go:154)	JEQ	66
	0x002a 00042 (/usr/local/go/test/codegen/mathbits.go:154)	MOVWLZX	"".n+32(SP), AX
	0x002f 00047 (/usr/local/go/test/codegen/mathbits.go:154)	POPCNTL	AX, AX
	0x0033 00051 (/usr/local/go/test/codegen/mathbits.go:154)	MOVQ	AX, "".~r1+40(SP)
	0x0038 00056 (/usr/local/go/test/codegen/mathbits.go:154)	MOVQ	16(SP), BP
	0x003d 00061 (/usr/local/go/test/codegen/mathbits.go:154)	ADDQ	$24, SP
	0x0041 00065 (/usr/local/go/test/codegen/mathbits.go:154)	RET
	0x0042 00066 (/usr/local/go/test/codegen/mathbits.go:154)	MOVWLZX	"".n+32(SP), AX
	0x0047 00071 (/usr/local/go/test/codegen/mathbits.go:154)	MOVW	AX, (SP)
	0x004b 00075 (/usr/local/go/test/codegen/mathbits.go:154)	PCDATA	$1, $0
	0x004b 00075 (/usr/local/go/test/codegen/mathbits.go:154)	CALL	math/bits.OnesCount16(SB)
	0x0050 00080 (/usr/local/go/test/codegen/mathbits.go:154)	MOVQ	8(SP), AX
	0x0055 00085 (/usr/local/go/test/codegen/mathbits.go:154)	JMP	51
	0x0057 00087 (/usr/local/go/test/codegen/mathbits.go:154)	NOP
	0x0057 00087 (/usr/local/go/test/codegen/mathbits.go:147)	PCDATA	$1, $-1
	0x0057 00087 (/usr/local/go/test/codegen/mathbits.go:147)	PCDATA	$0, $-2
	0x0057 00087 (/usr/local/go/test/codegen/mathbits.go:147)	CALL	runtime.morestack_noctxt(SB)
	0x005c 00092 (/usr/local/go/test/codegen/mathbits.go:147)	PCDATA	$0, $-1
	0x005c 00092 (/usr/local/go/test/codegen/mathbits.go:147)	JMP	0
	0x0000 64 48 8b 0c 25 00 00 00 00 48 3b 61 10 76 48 48  dH..%....H;a.vHH
	0x0010 83 ec 18 48 89 6c 24 10 48 8d 6c 24 10 48 0f b6  ...H.l$.H.l$.H..
	0x0020 05 00 00 00 00 48 85 c0 74 18 0f b7 44 24 20 f3  .....H..t...D$ .
	0x0030 0f b8 c0 48 89 44 24 28 48 8b 6c 24 10 48 83 c4  ...H.D$(H.l$.H..
	0x0040 18 c3 0f b7 44 24 20 66 89 04 24 e8 00 00 00 00  ....D$ f..$.....
	0x0050 48 8b 44 24 08 eb dc e8 00 00 00 00 eb a2        H.D$..........
	rel 5+4 t=17 TLS+0
	rel 33+4 t=16 runtime.x86HasPOPCNT+0
	rel 76+4 t=8 math/bits.OnesCount16+0
	rel 88+4 t=8 runtime.morestack_noctxt+0
"".OnesCount8 STEXT nosplit size=22 args=0x10 locals=0x0
	0x0000 00000 (/usr/local/go/test/codegen/mathbits.go:157)	TEXT	"".OnesCount8(SB), NOSPLIT|ABIInternal, $0-16
	0x0000 00000 (/usr/local/go/test/codegen/mathbits.go:157)	FUNCDATA	$0, gclocals·33cdeccccebe80329f1fdbee7f5874cb(SB)
	0x0000 00000 (/usr/local/go/test/codegen/mathbits.go:157)	FUNCDATA	$1, gclocals·33cdeccccebe80329f1fdbee7f5874cb(SB)
	0x0000 00000 (<unknown line number>)	NOP
	0x0000 00000 (/usr/local/go/test/codegen/mathbits.go:162)	MOVBLZX	"".n+8(SP), AX
	0x0005 00005 (/usr/local/go/test/codegen/mathbits.go:162)	LEAQ	math/bits.pop8tab(SB), CX
	0x000c 00012 (/usr/local/go/test/codegen/mathbits.go:162)	MOVBLZX	(CX)(AX*1), AX
	0x0010 00016 (/usr/local/go/test/codegen/mathbits.go:162)	MOVQ	AX, "".~r1+16(SP)
	0x0015 00021 (/usr/local/go/test/codegen/mathbits.go:162)	RET
	0x0000 0f b6 44 24 08 48 8d 0d 00 00 00 00 0f b6 04 01  ..D$.H..........
	0x0010 48 89 44 24 10 c3                                H.D$..
	rel 8+4 t=16 math/bits.pop8tab+0
"".ReverseBytes STEXT nosplit size=14 args=0x10 locals=0x0
	0x0000 00000 (/usr/local/go/test/codegen/mathbits.go:169)	TEXT	"".ReverseBytes(SB), NOSPLIT|ABIInternal, $0-16
	0x0000 00000 (/usr/local/go/test/codegen/mathbits.go:169)	FUNCDATA	$0, gclocals·33cdeccccebe80329f1fdbee7f5874cb(SB)
	0x0000 00000 (/usr/local/go/test/codegen/mathbits.go:169)	FUNCDATA	$1, gclocals·33cdeccccebe80329f1fdbee7f5874cb(SB)
	0x0000 00000 (<unknown line number>)	NOP
	0x0000 00000 (/usr/local/go/test/codegen/mathbits.go:173)	MOVQ	"".n+8(SP), AX
	0x0005 00005 (/usr/local/go/test/codegen/mathbits.go:173)	BSWAPQ	AX
	0x0008 00008 (/usr/local/go/test/codegen/mathbits.go:173)	MOVQ	AX, "".~r1+16(SP)
	0x000d 00013 (/usr/local/go/test/codegen/mathbits.go:173)	RET
	0x0000 48 8b 44 24 08 48 0f c8 48 89 44 24 10 c3        H.D$.H..H.D$..
"".ReverseBytes64 STEXT nosplit size=14 args=0x10 locals=0x0
	0x0000 00000 (/usr/local/go/test/codegen/mathbits.go:176)	TEXT	"".ReverseBytes64(SB), NOSPLIT|ABIInternal, $0-16
	0x0000 00000 (/usr/local/go/test/codegen/mathbits.go:176)	FUNCDATA	$0, gclocals·33cdeccccebe80329f1fdbee7f5874cb(SB)
	0x0000 00000 (/usr/local/go/test/codegen/mathbits.go:176)	FUNCDATA	$1, gclocals·33cdeccccebe80329f1fdbee7f5874cb(SB)
	0x0000 00000 (/usr/local/go/test/codegen/mathbits.go:180)	MOVQ	"".n+8(SP), AX
	0x0005 00005 (/usr/local/go/test/codegen/mathbits.go:180)	BSWAPQ	AX
	0x0008 00008 (/usr/local/go/test/codegen/mathbits.go:180)	MOVQ	AX, "".~r1+16(SP)
	0x000d 00013 (/usr/local/go/test/codegen/mathbits.go:180)	RET
	0x0000 48 8b 44 24 08 48 0f c8 48 89 44 24 10 c3        H.D$.H..H.D$..
"".ReverseBytes32 STEXT nosplit size=11 args=0x10 locals=0x0
	0x0000 00000 (/usr/local/go/test/codegen/mathbits.go:183)	TEXT	"".ReverseBytes32(SB), NOSPLIT|ABIInternal, $0-16
	0x0000 00000 (/usr/local/go/test/codegen/mathbits.go:183)	FUNCDATA	$0, gclocals·33cdeccccebe80329f1fdbee7f5874cb(SB)
	0x0000 00000 (/usr/local/go/test/codegen/mathbits.go:183)	FUNCDATA	$1, gclocals·33cdeccccebe80329f1fdbee7f5874cb(SB)
	0x0000 00000 (/usr/local/go/test/codegen/mathbits.go:187)	MOVL	"".n+8(SP), AX
	0x0004 00004 (/usr/local/go/test/codegen/mathbits.go:187)	BSWAPL	AX
	0x0006 00006 (/usr/local/go/test/codegen/mathbits.go:187)	MOVL	AX, "".~r1+16(SP)
	0x000a 00010 (/usr/local/go/test/codegen/mathbits.go:187)	RET
	0x0000 8b 44 24 08 0f c8 89 44 24 10 c3                 .D$....D$..
"".ReverseBytes16 STEXT nosplit size=15 args=0x10 locals=0x0
	0x0000 00000 (/usr/local/go/test/codegen/mathbits.go:190)	TEXT	"".ReverseBytes16(SB), NOSPLIT|ABIInternal, $0-16
	0x0000 00000 (/usr/local/go/test/codegen/mathbits.go:190)	FUNCDATA	$0, gclocals·33cdeccccebe80329f1fdbee7f5874cb(SB)
	0x0000 00000 (/usr/local/go/test/codegen/mathbits.go:190)	FUNCDATA	$1, gclocals·33cdeccccebe80329f1fdbee7f5874cb(SB)
	0x0000 00000 (<unknown line number>)	NOP
	0x0000 00000 (/usr/local/go/test/codegen/mathbits.go:196)	MOVWLZX	"".n+8(SP), AX
	0x0005 00005 (/usr/local/go/test/codegen/mathbits.go:196)	ROLW	$8, AX
	0x0009 00009 (/usr/local/go/test/codegen/mathbits.go:196)	MOVW	AX, "".~r1+16(SP)
	0x000e 00014 (/usr/local/go/test/codegen/mathbits.go:196)	RET
	0x0000 0f b7 44 24 08 66 c1 c0 08 66 89 44 24 10 c3     ..D$.f...f.D$..
"".RotateLeft64 STEXT nosplit size=15 args=0x10 locals=0x0
	0x0000 00000 (/usr/local/go/test/codegen/mathbits.go:203)	TEXT	"".RotateLeft64(SB), NOSPLIT|ABIInternal, $0-16
	0x0000 00000 (/usr/local/go/test/codegen/mathbits.go:203)	FUNCDATA	$0, gclocals·33cdeccccebe80329f1fdbee7f5874cb(SB)
	0x0000 00000 (/usr/local/go/test/codegen/mathbits.go:203)	FUNCDATA	$1, gclocals·33cdeccccebe80329f1fdbee7f5874cb(SB)
	0x0000 00000 (/usr/local/go/test/codegen/mathbits.go:210)	MOVQ	"".n+8(SP), AX
	0x0005 00005 (/usr/local/go/test/codegen/mathbits.go:210)	ROLQ	$37, AX
	0x0009 00009 (/usr/local/go/test/codegen/mathbits.go:210)	MOVQ	AX, "".~r1+16(SP)
	0x000e 00014 (/usr/local/go/test/codegen/mathbits.go:210)	RET
	0x0000 48 8b 44 24 08 48 c1 c0 25 48 89 44 24 10 c3     H.D$.H..%H.D$..
"".RotateLeft32 STEXT nosplit size=12 args=0x10 locals=0x0
	0x0000 00000 (/usr/local/go/test/codegen/mathbits.go:213)	TEXT	"".RotateLeft32(SB), NOSPLIT|ABIInternal, $0-16
	0x0000 00000 (/usr/local/go/test/codegen/mathbits.go:213)	FUNCDATA	$0, gclocals·33cdeccccebe80329f1fdbee7f5874cb(SB)
	0x0000 00000 (/usr/local/go/test/codegen/mathbits.go:213)	FUNCDATA	$1, gclocals·33cdeccccebe80329f1fdbee7f5874cb(SB)
	0x0000 00000 (/usr/local/go/test/codegen/mathbits.go:221)	MOVL	"".n+8(SP), AX
	0x0004 00004 (/usr/local/go/test/codegen/mathbits.go:221)	ROLL	$9, AX
	0x0007 00007 (/usr/local/go/test/codegen/mathbits.go:221)	MOVL	AX, "".~r1+16(SP)
	0x000b 00011 (/usr/local/go/test/codegen/mathbits.go:221)	RET
	0x0000 8b 44 24 08 c1 c0 09 89 44 24 10 c3              .D$.....D$..
"".RotateLeft16 STEXT nosplit size=15 args=0x10 locals=0x0
	0x0000 00000 (/usr/local/go/test/codegen/mathbits.go:224)	TEXT	"".RotateLeft16(SB), NOSPLIT|ABIInternal, $0-16
	0x0000 00000 (/usr/local/go/test/codegen/mathbits.go:224)	FUNCDATA	$0, gclocals·33cdeccccebe80329f1fdbee7f5874cb(SB)
	0x0000 00000 (/usr/local/go/test/codegen/mathbits.go:224)	FUNCDATA	$1, gclocals·33cdeccccebe80329f1fdbee7f5874cb(SB)
	0x0000 00000 (/usr/local/go/test/codegen/mathbits.go:226)	MOVWLZX	"".n+8(SP), AX
	0x0005 00005 (/usr/local/go/test/codegen/mathbits.go:226)	ROLW	$5, AX
	0x0009 00009 (/usr/local/go/test/codegen/mathbits.go:226)	MOVW	AX, "".~r1+16(SP)
	0x000e 00014 (/usr/local/go/test/codegen/mathbits.go:226)	RET
	0x0000 0f b7 44 24 08 66 c1 c0 05 66 89 44 24 10 c3     ..D$.f...f.D$..
"".RotateLeft8 STEXT nosplit size=13 args=0x10 locals=0x0
	0x0000 00000 (/usr/local/go/test/codegen/mathbits.go:229)	TEXT	"".RotateLeft8(SB), NOSPLIT|ABIInternal, $0-16
	0x0000 00000 (/usr/local/go/test/codegen/mathbits.go:229)	FUNCDATA	$0, gclocals·33cdeccccebe80329f1fdbee7f5874cb(SB)
	0x0000 00000 (/usr/local/go/test/codegen/mathbits.go:229)	FUNCDATA	$1, gclocals·33cdeccccebe80329f1fdbee7f5874cb(SB)
	0x0000 00000 (/usr/local/go/test/codegen/mathbits.go:231)	MOVBLZX	"".n+8(SP), AX
	0x0005 00005 (/usr/local/go/test/codegen/mathbits.go:231)	ROLB	$5, AL
	0x0008 00008 (/usr/local/go/test/codegen/mathbits.go:231)	MOVB	AL, "".~r1+16(SP)
	0x000c 00012 (/usr/local/go/test/codegen/mathbits.go:231)	RET
	0x0000 0f b6 44 24 08 c0 c0 05 88 44 24 10 c3           ..D$.....D$..
"".RotateLeftVariable STEXT nosplit size=19 args=0x18 locals=0x0
	0x0000 00000 (/usr/local/go/test/codegen/mathbits.go:234)	TEXT	"".RotateLeftVariable(SB), NOSPLIT|ABIInternal, $0-24
	0x0000 00000 (/usr/local/go/test/codegen/mathbits.go:234)	FUNCDATA	$0, gclocals·33cdeccccebe80329f1fdbee7f5874cb(SB)
	0x0000 00000 (/usr/local/go/test/codegen/mathbits.go:234)	FUNCDATA	$1, gclocals·33cdeccccebe80329f1fdbee7f5874cb(SB)
	0x0000 00000 (/usr/local/go/test/codegen/mathbits.go:241)	MOVQ	"".m+16(SP), CX
	0x0005 00005 (/usr/local/go/test/codegen/mathbits.go:241)	MOVQ	"".n+8(SP), AX
	0x000a 00010 (/usr/local/go/test/codegen/mathbits.go:241)	ROLQ	CX, AX
	0x000d 00013 (/usr/local/go/test/codegen/mathbits.go:241)	MOVQ	AX, "".~r2+24(SP)
	0x0012 00018 (/usr/local/go/test/codegen/mathbits.go:241)	RET
	0x0000 48 8b 4c 24 10 48 8b 44 24 08 48 d3 c0 48 89 44  H.L$.H.D$.H..H.D
	0x0010 24 18 c3                                         $..
"".RotateLeftVariable64 STEXT nosplit size=19 args=0x18 locals=0x0
	0x0000 00000 (/usr/local/go/test/codegen/mathbits.go:244)	TEXT	"".RotateLeftVariable64(SB), NOSPLIT|ABIInternal, $0-24
	0x0000 00000 (/usr/local/go/test/codegen/mathbits.go:244)	FUNCDATA	$0, gclocals·33cdeccccebe80329f1fdbee7f5874cb(SB)
	0x0000 00000 (/usr/local/go/test/codegen/mathbits.go:244)	FUNCDATA	$1, gclocals·33cdeccccebe80329f1fdbee7f5874cb(SB)
	0x0000 00000 (/usr/local/go/test/codegen/mathbits.go:251)	MOVQ	"".m+16(SP), CX
	0x0005 00005 (/usr/local/go/test/codegen/mathbits.go:251)	MOVQ	"".n+8(SP), AX
	0x000a 00010 (/usr/local/go/test/codegen/mathbits.go:251)	ROLQ	CX, AX
	0x000d 00013 (/usr/local/go/test/codegen/mathbits.go:251)	MOVQ	AX, "".~r2+24(SP)
	0x0012 00018 (/usr/local/go/test/codegen/mathbits.go:251)	RET
	0x0000 48 8b 4c 24 10 48 8b 44 24 08 48 d3 c0 48 89 44  H.L$.H.D$.H..H.D
	0x0010 24 18 c3                                         $..
"".RotateLeftVariable32 STEXT nosplit size=16 args=0x18 locals=0x0
	0x0000 00000 (/usr/local/go/test/codegen/mathbits.go:254)	TEXT	"".RotateLeftVariable32(SB), NOSPLIT|ABIInternal, $0-24
	0x0000 00000 (/usr/local/go/test/codegen/mathbits.go:254)	FUNCDATA	$0, gclocals·33cdeccccebe80329f1fdbee7f5874cb(SB)
	0x0000 00000 (/usr/local/go/test/codegen/mathbits.go:254)	FUNCDATA	$1, gclocals·33cdeccccebe80329f1fdbee7f5874cb(SB)
	0x0000 00000 (/usr/local/go/test/codegen/mathbits.go:262)	MOVQ	"".m+16(SP), CX
	0x0005 00005 (/usr/local/go/test/codegen/mathbits.go:262)	MOVL	"".n+8(SP), AX
	0x0009 00009 (/usr/local/go/test/codegen/mathbits.go:262)	ROLL	CX, AX
	0x000b 00011 (/usr/local/go/test/codegen/mathbits.go:262)	MOVL	AX, "".~r2+24(SP)
	0x000f 00015 (/usr/local/go/test/codegen/mathbits.go:262)	RET
	0x0000 48 8b 4c 24 10 8b 44 24 08 d3 c0 89 44 24 18 c3  H.L$..D$....D$..
"".TrailingZeros STEXT nosplit size=24 args=0x10 locals=0x0
	0x0000 00000 (/usr/local/go/test/codegen/mathbits.go:269)	TEXT	"".TrailingZeros(SB), NOSPLIT|ABIInternal, $0-16
	0x0000 00000 (/usr/local/go/test/codegen/mathbits.go:269)	FUNCDATA	$0, gclocals·33cdeccccebe80329f1fdbee7f5874cb(SB)
	0x0000 00000 (/usr/local/go/test/codegen/mathbits.go:269)	FUNCDATA	$1, gclocals·33cdeccccebe80329f1fdbee7f5874cb(SB)
	0x0000 00000 (/usr/local/go/test/codegen/mathbits.go:279)	MOVQ	"".n+8(SP), AX
	0x0005 00005 (/usr/local/go/test/codegen/mathbits.go:279)	BSFQ	AX, AX
	0x0009 00009 (<unknown line number>)	NOP
	0x0009 00009 (/usr/local/go/test/codegen/mathbits.go:279)	MOVL	$64, CX
	0x000e 00014 (/usr/local/go/test/codegen/mathbits.go:279)	CMOVQEQ	CX, AX
	0x0012 00018 (/usr/local/go/test/codegen/mathbits.go:279)	MOVQ	AX, "".~r1+16(SP)
	0x0017 00023 (/usr/local/go/test/codegen/mathbits.go:279)	RET
	0x0000 48 8b 44 24 08 48 0f bc c0 b9 40 00 00 00 48 0f  H.D$.H....@...H.
	0x0010 44 c1 48 89 44 24 10 c3                          D.H.D$..
"".TrailingZeros64 STEXT nosplit size=24 args=0x10 locals=0x0
	0x0000 00000 (/usr/local/go/test/codegen/mathbits.go:282)	TEXT	"".TrailingZeros64(SB), NOSPLIT|ABIInternal, $0-16
	0x0000 00000 (/usr/local/go/test/codegen/mathbits.go:282)	FUNCDATA	$0, gclocals·33cdeccccebe80329f1fdbee7f5874cb(SB)
	0x0000 00000 (/usr/local/go/test/codegen/mathbits.go:282)	FUNCDATA	$1, gclocals·33cdeccccebe80329f1fdbee7f5874cb(SB)
	0x0000 00000 (/usr/local/go/test/codegen/mathbits.go:291)	MOVQ	"".n+8(SP), AX
	0x0005 00005 (/usr/local/go/test/codegen/mathbits.go:291)	BSFQ	AX, AX
	0x0009 00009 (/usr/local/go/test/codegen/mathbits.go:291)	MOVL	$64, CX
	0x000e 00014 (/usr/local/go/test/codegen/mathbits.go:291)	CMOVQEQ	CX, AX
	0x0012 00018 (/usr/local/go/test/codegen/mathbits.go:291)	MOVQ	AX, "".~r1+16(SP)
	0x0017 00023 (/usr/local/go/test/codegen/mathbits.go:291)	RET
	0x0000 48 8b 44 24 08 48 0f bc c0 b9 40 00 00 00 48 0f  H.D$.H....@...H.
	0x0010 44 c1 48 89 44 24 10 c3                          D.H.D$..
"".TrailingZeros32 STEXT nosplit size=19 args=0x10 locals=0x0
	0x0000 00000 (/usr/local/go/test/codegen/mathbits.go:294)	TEXT	"".TrailingZeros32(SB), NOSPLIT|ABIInternal, $0-16
	0x0000 00000 (/usr/local/go/test/codegen/mathbits.go:294)	FUNCDATA	$0, gclocals·33cdeccccebe80329f1fdbee7f5874cb(SB)
	0x0000 00000 (/usr/local/go/test/codegen/mathbits.go:294)	FUNCDATA	$1, gclocals·33cdeccccebe80329f1fdbee7f5874cb(SB)
	0x0000 00000 (/usr/local/go/test/codegen/mathbits.go:304)	MOVL	"".n+8(SP), AX
	0x0004 00004 (/usr/local/go/test/codegen/mathbits.go:304)	BTSQ	$32, AX
	0x0009 00009 (/usr/local/go/test/codegen/mathbits.go:304)	BSFQ	AX, AX
	0x000d 00013 (/usr/local/go/test/codegen/mathbits.go:304)	MOVQ	AX, "".~r1+16(SP)
	0x0012 00018 (/usr/local/go/test/codegen/mathbits.go:304)	RET
	0x0000 8b 44 24 08 48 0f ba e8 20 48 0f bc c0 48 89 44  .D$.H... H...H.D
	0x0010 24 10 c3                                         $..
"".TrailingZeros16 STEXT nosplit size=18 args=0x10 locals=0x0
	0x0000 00000 (/usr/local/go/test/codegen/mathbits.go:307)	TEXT	"".TrailingZeros16(SB), NOSPLIT|ABIInternal, $0-16
	0x0000 00000 (/usr/local/go/test/codegen/mathbits.go:307)	FUNCDATA	$0, gclocals·33cdeccccebe80329f1fdbee7f5874cb(SB)
	0x0000 00000 (/usr/local/go/test/codegen/mathbits.go:307)	FUNCDATA	$1, gclocals·33cdeccccebe80329f1fdbee7f5874cb(SB)
	0x0000 00000 (/usr/local/go/test/codegen/mathbits.go:318)	MOVWLZX	"".n+8(SP), AX
	0x0005 00005 (/usr/local/go/test/codegen/mathbits.go:318)	BTSL	$16, AX
	0x0009 00009 (/usr/local/go/test/codegen/mathbits.go:318)	BSFL	AX, AX
	0x000c 00012 (/usr/local/go/test/codegen/mathbits.go:318)	MOVQ	AX, "".~r1+16(SP)
	0x0011 00017 (/usr/local/go/test/codegen/mathbits.go:318)	RET
	0x0000 0f b7 44 24 08 0f ba e8 10 0f bc c0 48 89 44 24  ..D$........H.D$
	0x0010 10 c3                                            ..
"".TrailingZeros8 STEXT nosplit size=18 args=0x10 locals=0x0
	0x0000 00000 (/usr/local/go/test/codegen/mathbits.go:321)	TEXT	"".TrailingZeros8(SB), NOSPLIT|ABIInternal, $0-16
	0x0000 00000 (/usr/local/go/test/codegen/mathbits.go:321)	FUNCDATA	$0, gclocals·33cdeccccebe80329f1fdbee7f5874cb(SB)
	0x0000 00000 (/usr/local/go/test/codegen/mathbits.go:321)	FUNCDATA	$1, gclocals·33cdeccccebe80329f1fdbee7f5874cb(SB)
	0x0000 00000 (/usr/local/go/test/codegen/mathbits.go:327)	MOVBLZX	"".n+8(SP), AX
	0x0005 00005 (/usr/local/go/test/codegen/mathbits.go:327)	BTSL	$8, AX
	0x0009 00009 (/usr/local/go/test/codegen/mathbits.go:327)	BSFL	AX, AX
	0x000c 00012 (/usr/local/go/test/codegen/mathbits.go:327)	MOVQ	AX, "".~r1+16(SP)
	0x0011 00017 (/usr/local/go/test/codegen/mathbits.go:327)	RET
	0x0000 0f b6 44 24 08 0f ba e8 08 0f bc c0 48 89 44 24  ..D$........H.D$
	0x0010 10 c3                                            ..
"".IterateBits STEXT nosplit size=34 args=0x10 locals=0x0
	0x0000 00000 (/usr/local/go/test/codegen/mathbits.go:332)	TEXT	"".IterateBits(SB), NOSPLIT|ABIInternal, $0-16
	0x0000 00000 (/usr/local/go/test/codegen/mathbits.go:332)	FUNCDATA	$0, gclocals·33cdeccccebe80329f1fdbee7f5874cb(SB)
	0x0000 00000 (/usr/local/go/test/codegen/mathbits.go:332)	FUNCDATA	$1, gclocals·33cdeccccebe80329f1fdbee7f5874cb(SB)
	0x0000 00000 (/usr/local/go/test/codegen/mathbits.go:334)	MOVQ	"".n+8(SP), AX
	0x0005 00005 (/usr/local/go/test/codegen/mathbits.go:334)	XORL	CX, CX
	0x0007 00007 (/usr/local/go/test/codegen/mathbits.go:334)	JMP	23
	0x0009 00009 (/usr/local/go/test/codegen/mathbits.go:336)	BSFQ	AX, DX
	0x000d 00013 (/usr/local/go/test/codegen/mathbits.go:336)	ADDQ	DX, CX
	0x0010 00016 (<unknown line number>)	NOP
	0x0010 00016 (/usr/local/go/test/codegen/mathbits.go:337)	LEAQ	-1(AX), DX
	0x0014 00020 (/usr/local/go/test/codegen/mathbits.go:337)	ANDQ	DX, AX
	0x0017 00023 (/usr/local/go/test/codegen/mathbits.go:334)	TESTQ	AX, AX
	0x001a 00026 (/usr/local/go/test/codegen/mathbits.go:334)	JNE	9
	0x001c 00028 (/usr/local/go/test/codegen/mathbits.go:339)	MOVQ	CX, "".~r1+16(SP)
	0x0021 00033 (/usr/local/go/test/codegen/mathbits.go:339)	RET
	0x0000 48 8b 44 24 08 31 c9 eb 0e 48 0f bc d0 48 01 d1  H.D$.1...H...H..
	0x0010 48 8d 50 ff 48 21 d0 48 85 c0 75 ed 48 89 4c 24  H.P.H!.H..u.H.L$
	0x0020 10 c3                                            ..
"".IterateBits64 STEXT nosplit size=34 args=0x10 locals=0x0
	0x0000 00000 (/usr/local/go/test/codegen/mathbits.go:342)	TEXT	"".IterateBits64(SB), NOSPLIT|ABIInternal, $0-16
	0x0000 00000 (/usr/local/go/test/codegen/mathbits.go:342)	FUNCDATA	$0, gclocals·33cdeccccebe80329f1fdbee7f5874cb(SB)
	0x0000 00000 (/usr/local/go/test/codegen/mathbits.go:342)	FUNCDATA	$1, gclocals·33cdeccccebe80329f1fdbee7f5874cb(SB)
	0x0000 00000 (/usr/local/go/test/codegen/mathbits.go:344)	MOVQ	"".n+8(SP), AX
	0x0005 00005 (/usr/local/go/test/codegen/mathbits.go:344)	XORL	CX, CX
	0x0007 00007 (/usr/local/go/test/codegen/mathbits.go:344)	JMP	23
	0x0009 00009 (/usr/local/go/test/codegen/mathbits.go:346)	BSFQ	AX, DX
	0x000d 00013 (/usr/local/go/test/codegen/mathbits.go:346)	ADDQ	DX, CX
	0x0010 00016 (/usr/local/go/test/codegen/mathbits.go:347)	LEAQ	-1(AX), DX
	0x0014 00020 (/usr/local/go/test/codegen/mathbits.go:347)	ANDQ	DX, AX
	0x0017 00023 (/usr/local/go/test/codegen/mathbits.go:344)	TESTQ	AX, AX
	0x001a 00026 (/usr/local/go/test/codegen/mathbits.go:344)	JNE	9
	0x001c 00028 (/usr/local/go/test/codegen/mathbits.go:349)	MOVQ	CX, "".~r1+16(SP)
	0x0021 00033 (/usr/local/go/test/codegen/mathbits.go:349)	RET
	0x0000 48 8b 44 24 08 31 c9 eb 0e 48 0f bc d0 48 01 d1  H.D$.1...H...H..
	0x0010 48 8d 50 ff 48 21 d0 48 85 c0 75 ed 48 89 4c 24  H.P.H!.H..u.H.L$
	0x0020 10 c3                                            ..
"".IterateBits32 STEXT nosplit size=29 args=0x10 locals=0x0
	0x0000 00000 (/usr/local/go/test/codegen/mathbits.go:352)	TEXT	"".IterateBits32(SB), NOSPLIT|ABIInternal, $0-16
	0x0000 00000 (/usr/local/go/test/codegen/mathbits.go:352)	FUNCDATA	$0, gclocals·33cdeccccebe80329f1fdbee7f5874cb(SB)
	0x0000 00000 (/usr/local/go/test/codegen/mathbits.go:352)	FUNCDATA	$1, gclocals·33cdeccccebe80329f1fdbee7f5874cb(SB)
	0x0000 00000 (/usr/local/go/test/codegen/mathbits.go:354)	MOVL	"".n+8(SP), AX
	0x0004 00004 (/usr/local/go/test/codegen/mathbits.go:354)	XORL	CX, CX
	0x0006 00006 (/usr/local/go/test/codegen/mathbits.go:354)	JMP	19
	0x0008 00008 (/usr/local/go/test/codegen/mathbits.go:356)	BSFL	AX, DX
	0x000b 00011 (/usr/local/go/test/codegen/mathbits.go:356)	ADDQ	DX, CX
	0x000e 00014 (/usr/local/go/test/codegen/mathbits.go:357)	LEAL	-1(AX), DX
	0x0011 00017 (/usr/local/go/test/codegen/mathbits.go:357)	ANDL	DX, AX
	0x0013 00019 (/usr/local/go/test/codegen/mathbits.go:354)	TESTL	AX, AX
	0x0015 00021 (/usr/local/go/test/codegen/mathbits.go:354)	JNE	8
	0x0017 00023 (/usr/local/go/test/codegen/mathbits.go:359)	MOVQ	CX, "".~r1+16(SP)
	0x001c 00028 (/usr/local/go/test/codegen/mathbits.go:359)	RET
	0x0000 8b 44 24 08 31 c9 eb 0b 0f bc d0 48 01 d1 8d 50  .D$.1......H...P
	0x0010 ff 21 d0 85 c0 75 f1 48 89 4c 24 10 c3           .!...u.H.L$..
"".IterateBits16 STEXT nosplit size=31 args=0x10 locals=0x0
	0x0000 00000 (/usr/local/go/test/codegen/mathbits.go:362)	TEXT	"".IterateBits16(SB), NOSPLIT|ABIInternal, $0-16
	0x0000 00000 (/usr/local/go/test/codegen/mathbits.go:362)	FUNCDATA	$0, gclocals·33cdeccccebe80329f1fdbee7f5874cb(SB)
	0x0000 00000 (/usr/local/go/test/codegen/mathbits.go:362)	FUNCDATA	$1, gclocals·33cdeccccebe80329f1fdbee7f5874cb(SB)
	0x0000 00000 (/usr/local/go/test/codegen/mathbits.go:364)	MOVWLZX	"".n+8(SP), AX
	0x0005 00005 (/usr/local/go/test/codegen/mathbits.go:364)	XORL	CX, CX
	0x0007 00007 (/usr/local/go/test/codegen/mathbits.go:364)	JMP	20
	0x0009 00009 (/usr/local/go/test/codegen/mathbits.go:367)	BSFL	AX, DX
	0x000c 00012 (/usr/local/go/test/codegen/mathbits.go:367)	ADDQ	DX, CX
	0x000f 00015 (/usr/local/go/test/codegen/mathbits.go:368)	LEAL	-1(AX), DX
	0x0012 00018 (/usr/local/go/test/codegen/mathbits.go:368)	ANDL	DX, AX
	0x0014 00020 (/usr/local/go/test/codegen/mathbits.go:364)	TESTW	AX, AX
	0x0017 00023 (/usr/local/go/test/codegen/mathbits.go:364)	JNE	9
	0x0019 00025 (/usr/local/go/test/codegen/mathbits.go:370)	MOVQ	CX, "".~r1+16(SP)
	0x001e 00030 (/usr/local/go/test/codegen/mathbits.go:370)	RET
	0x0000 0f b7 44 24 08 31 c9 eb 0b 0f bc d0 48 01 d1 8d  ..D$.1......H...
	0x0010 50 ff 21 d0 66 85 c0 75 f0 48 89 4c 24 10 c3     P.!.f..u.H.L$..
"".IterateBits8 STEXT nosplit size=30 args=0x10 locals=0x0
	0x0000 00000 (/usr/local/go/test/codegen/mathbits.go:373)	TEXT	"".IterateBits8(SB), NOSPLIT|ABIInternal, $0-16
	0x0000 00000 (/usr/local/go/test/codegen/mathbits.go:373)	FUNCDATA	$0, gclocals·33cdeccccebe80329f1fdbee7f5874cb(SB)
	0x0000 00000 (/usr/local/go/test/codegen/mathbits.go:373)	FUNCDATA	$1, gclocals·33cdeccccebe80329f1fdbee7f5874cb(SB)
	0x0000 00000 (/usr/local/go/test/codegen/mathbits.go:375)	MOVBLZX	"".n+8(SP), AX
	0x0005 00005 (/usr/local/go/test/codegen/mathbits.go:375)	XORL	CX, CX
	0x0007 00007 (/usr/local/go/test/codegen/mathbits.go:375)	JMP	20
	0x0009 00009 (/usr/local/go/test/codegen/mathbits.go:378)	BSFL	AX, DX
	0x000c 00012 (/usr/local/go/test/codegen/mathbits.go:378)	ADDQ	DX, CX
	0x000f 00015 (/usr/local/go/test/codegen/mathbits.go:379)	LEAL	-1(AX), DX
	0x0012 00018 (/usr/local/go/test/codegen/mathbits.go:379)	ANDL	DX, AX
	0x0014 00020 (/usr/local/go/test/codegen/mathbits.go:375)	TESTB	AL, AL
	0x0016 00022 (/usr/local/go/test/codegen/mathbits.go:375)	JNE	9
	0x0018 00024 (/usr/local/go/test/codegen/mathbits.go:381)	MOVQ	CX, "".~r1+16(SP)
	0x001d 00029 (/usr/local/go/test/codegen/mathbits.go:381)	RET
	0x0000 0f b6 44 24 08 31 c9 eb 0b 0f bc d0 48 01 d1 8d  ..D$.1......H...
	0x0010 50 ff 21 d0 84 c0 75 f1 48 89 4c 24 10 c3        P.!...u.H.L$..
"".Add STEXT nosplit size=37 args=0x28 locals=0x0
	0x0000 00000 (/usr/local/go/test/codegen/mathbits.go:388)	TEXT	"".Add(SB), NOSPLIT|ABIInternal, $0-40
	0x0000 00000 (/usr/local/go/test/codegen/mathbits.go:388)	FUNCDATA	$0, gclocals·33cdeccccebe80329f1fdbee7f5874cb(SB)
	0x0000 00000 (/usr/local/go/test/codegen/mathbits.go:388)	FUNCDATA	$1, gclocals·33cdeccccebe80329f1fdbee7f5874cb(SB)
	0x0000 00000 (/usr/local/go/test/codegen/mathbits.go:392)	MOVQ	"".ci+24(SP), AX
	0x0005 00005 (/usr/local/go/test/codegen/mathbits.go:392)	NEGL	AX
	0x0007 00007 (/usr/local/go/test/codegen/mathbits.go:392)	MOVQ	"".y+16(SP), AX
	0x000c 00012 (/usr/local/go/test/codegen/mathbits.go:392)	MOVQ	"".x+8(SP), CX
	0x0011 00017 (/usr/local/go/test/codegen/mathbits.go:392)	ADCQ	CX, AX
	0x0014 00020 (/usr/local/go/test/codegen/mathbits.go:392)	MOVQ	AX, "".r+32(SP)
	0x0019 00025 (/usr/local/go/test/codegen/mathbits.go:392)	SBBQ	AX, AX
	0x001c 00028 (/usr/local/go/test/codegen/mathbits.go:392)	NEGQ	AX
	0x001f 00031 (/usr/local/go/test/codegen/mathbits.go:392)	MOVQ	AX, "".co+40(SP)
	0x0024 00036 (/usr/local/go/test/codegen/mathbits.go:392)	RET
	0x0000 48 8b 44 24 18 f7 d8 48 8b 44 24 10 48 8b 4c 24  H.D$...H.D$.H.L$
	0x0010 08 48 11 c8 48 89 44 24 20 48 19 c0 48 f7 d8 48  .H..H.D$ H..H..H
	0x0020 89 44 24 28 c3                                   .D$(.
"".AddC STEXT nosplit size=33 args=0x20 locals=0x0
	0x0000 00000 (/usr/local/go/test/codegen/mathbits.go:395)	TEXT	"".AddC(SB), NOSPLIT|ABIInternal, $0-32
	0x0000 00000 (/usr/local/go/test/codegen/mathbits.go:395)	FUNCDATA	$0, gclocals·33cdeccccebe80329f1fdbee7f5874cb(SB)
	0x0000 00000 (/usr/local/go/test/codegen/mathbits.go:395)	FUNCDATA	$1, gclocals·33cdeccccebe80329f1fdbee7f5874cb(SB)
	0x0000 00000 (/usr/local/go/test/codegen/mathbits.go:399)	MOVQ	"".ci+16(SP), AX
	0x0005 00005 (/usr/local/go/test/codegen/mathbits.go:399)	NEGL	AX
	0x0007 00007 (/usr/local/go/test/codegen/mathbits.go:399)	MOVQ	"".x+8(SP), AX
	0x000c 00012 (/usr/local/go/test/codegen/mathbits.go:399)	ADCQ	$7, AX
	0x0010 00016 (/usr/local/go/test/codegen/mathbits.go:399)	MOVQ	AX, "".r+24(SP)
	0x0015 00021 (/usr/local/go/test/codegen/mathbits.go:399)	SBBQ	AX, AX
	0x0018 00024 (/usr/local/go/test/codegen/mathbits.go:399)	NEGQ	AX
	0x001b 00027 (/usr/local/go/test/codegen/mathbits.go:399)	MOVQ	AX, "".co+32(SP)
	0x0020 00032 (/usr/local/go/test/codegen/mathbits.go:399)	RET
	0x0000 48 8b 44 24 10 f7 d8 48 8b 44 24 08 48 83 d0 07  H.D$...H.D$.H...
	0x0010 48 89 44 24 18 48 19 c0 48 f7 d8 48 89 44 24 20  H.D$.H..H..H.D$ 
	0x0020 c3                                               .
"".AddZ STEXT nosplit size=30 args=0x20 locals=0x0
	0x0000 00000 (/usr/local/go/test/codegen/mathbits.go:402)	TEXT	"".AddZ(SB), NOSPLIT|ABIInternal, $0-32
	0x0000 00000 (/usr/local/go/test/codegen/mathbits.go:402)	FUNCDATA	$0, gclocals·33cdeccccebe80329f1fdbee7f5874cb(SB)
	0x0000 00000 (/usr/local/go/test/codegen/mathbits.go:402)	FUNCDATA	$1, gclocals·33cdeccccebe80329f1fdbee7f5874cb(SB)
	0x0000 00000 (/usr/local/go/test/codegen/mathbits.go:406)	MOVQ	"".y+16(SP), AX
	0x0005 00005 (/usr/local/go/test/codegen/mathbits.go:406)	MOVQ	"".x+8(SP), CX
	0x000a 00010 (/usr/local/go/test/codegen/mathbits.go:406)	ADDQ	CX, AX
	0x000d 00013 (/usr/local/go/test/codegen/mathbits.go:406)	MOVQ	AX, "".r+24(SP)
	0x0012 00018 (/usr/local/go/test/codegen/mathbits.go:406)	SBBQ	AX, AX
	0x0015 00021 (/usr/local/go/test/codegen/mathbits.go:406)	NEGQ	AX
	0x0018 00024 (/usr/local/go/test/codegen/mathbits.go:406)	MOVQ	AX, "".co+32(SP)
	0x001d 00029 (/usr/local/go/test/codegen/mathbits.go:406)	RET
	0x0000 48 8b 44 24 10 48 8b 4c 24 08 48 01 c8 48 89 44  H.D$.H.L$.H..H.D
	0x0010 24 18 48 19 c0 48 f7 d8 48 89 44 24 20 c3        $.H..H..H.D$ .
"".AddR STEXT nosplit size=26 args=0x20 locals=0x0
	0x0000 00000 (/usr/local/go/test/codegen/mathbits.go:409)	TEXT	"".AddR(SB), NOSPLIT|ABIInternal, $0-32
	0x0000 00000 (/usr/local/go/test/codegen/mathbits.go:409)	FUNCDATA	$0, gclocals·33cdeccccebe80329f1fdbee7f5874cb(SB)
	0x0000 00000 (/usr/local/go/test/codegen/mathbits.go:409)	FUNCDATA	$1, gclocals·33cdeccccebe80329f1fdbee7f5874cb(SB)
	0x0000 00000 (/usr/local/go/test/codegen/mathbits.go:413)	MOVQ	"".ci+24(SP), AX
	0x0005 00005 (/usr/local/go/test/codegen/mathbits.go:413)	NEGL	AX
	0x0007 00007 (/usr/local/go/test/codegen/mathbits.go:413)	MOVQ	"".x+8(SP), AX
	0x000c 00012 (/usr/local/go/test/codegen/mathbits.go:413)	MOVQ	"".y+16(SP), CX
	0x0011 00017 (/usr/local/go/test/codegen/mathbits.go:413)	ADCQ	CX, AX
	0x0014 00020 (/usr/local/go/test/codegen/mathbits.go:414)	MOVQ	AX, "".~r3+32(SP)
	0x0019 00025 (/usr/local/go/test/codegen/mathbits.go:414)	RET
	0x0000 48 8b 44 24 18 f7 d8 48 8b 44 24 08 48 8b 4c 24  H.D$...H.D$.H.L$
	0x0010 10 48 11 c8 48 89 44 24 20 c3                    .H..H.D$ .
"".AddM STEXT nosplit size=58 args=0x18 locals=0x0
	0x0000 00000 (/usr/local/go/test/codegen/mathbits.go:417)	TEXT	"".AddM(SB), NOSPLIT|ABIInternal, $0-24
	0x0000 00000 (/usr/local/go/test/codegen/mathbits.go:417)	FUNCDATA	$0, gclocals·9aa48eca674789341e2d6be6614c399c(SB)
	0x0000 00000 (/usr/local/go/test/codegen/mathbits.go:417)	FUNCDATA	$1, gclocals·69c1753bd5f81501d95132d08af04464(SB)
	0x0000 00000 (/usr/local/go/test/codegen/mathbits.go:419)	MOVQ	"".p+8(SP), AX
	0x0005 00005 (/usr/local/go/test/codegen/mathbits.go:419)	MOVQ	(AX), CX
	0x0008 00008 (/usr/local/go/test/codegen/mathbits.go:419)	MOVQ	"".q+16(SP), DX
	0x000d 00013 (/usr/local/go/test/codegen/mathbits.go:419)	MOVQ	(DX), BX
	0x0010 00016 (/usr/local/go/test/codegen/mathbits.go:419)	ADDQ	CX, BX
	0x0013 00019 (/usr/local/go/test/codegen/mathbits.go:419)	MOVQ	"".r+24(SP), CX
	0x0018 00024 (/usr/local/go/test/codegen/mathbits.go:419)	MOVQ	BX, (CX)
	0x001b 00027 (/usr/local/go/test/codegen/mathbits.go:423)	MOVQ	8(AX), BX
	0x001f 00031 (/usr/local/go/test/codegen/mathbits.go:423)	MOVQ	8(DX), SI
	0x0023 00035 (/usr/local/go/test/codegen/mathbits.go:423)	ADCQ	BX, SI
	0x0026 00038 (/usr/local/go/test/codegen/mathbits.go:423)	MOVQ	SI, 8(CX)
	0x002a 00042 (/usr/local/go/test/codegen/mathbits.go:424)	MOVQ	16(AX), AX
	0x002e 00046 (/usr/local/go/test/codegen/mathbits.go:424)	MOVQ	16(DX), DX
	0x0032 00050 (/usr/local/go/test/codegen/mathbits.go:424)	ADCQ	DX, AX
	0x0035 00053 (/usr/local/go/test/codegen/mathbits.go:424)	MOVQ	AX, 16(CX)
	0x0039 00057 (/usr/local/go/test/codegen/mathbits.go:425)	RET
	0x0000 48 8b 44 24 08 48 8b 08 48 8b 54 24 10 48 8b 1a  H.D$.H..H.T$.H..
	0x0010 48 01 cb 48 8b 4c 24 18 48 89 19 48 8b 58 08 48  H..H.L$.H..H.X.H
	0x0020 8b 72 08 48 11 de 48 89 71 08 48 8b 40 10 48 8b  .r.H..H.q.H.@.H.
	0x0030 52 10 48 11 d0 48 89 41 10 c3                    R.H..H.A..
"".Add64 STEXT nosplit size=37 args=0x28 locals=0x0
	0x0000 00000 (/usr/local/go/test/codegen/mathbits.go:427)	TEXT	"".Add64(SB), NOSPLIT|ABIInternal, $0-40
	0x0000 00000 (/usr/local/go/test/codegen/mathbits.go:427)	FUNCDATA	$0, gclocals·33cdeccccebe80329f1fdbee7f5874cb(SB)
	0x0000 00000 (/usr/local/go/test/codegen/mathbits.go:427)	FUNCDATA	$1, gclocals·33cdeccccebe80329f1fdbee7f5874cb(SB)
	0x0000 00000 (/usr/local/go/test/codegen/mathbits.go:433)	MOVQ	"".ci+24(SP), AX
	0x0005 00005 (/usr/local/go/test/codegen/mathbits.go:433)	NEGL	AX
	0x0007 00007 (/usr/local/go/test/codegen/mathbits.go:433)	MOVQ	"".y+16(SP), AX
	0x000c 00012 (/usr/local/go/test/codegen/mathbits.go:433)	MOVQ	"".x+8(SP), CX
	0x0011 00017 (/usr/local/go/test/codegen/mathbits.go:433)	ADCQ	CX, AX
	0x0014 00020 (/usr/local/go/test/codegen/mathbits.go:433)	MOVQ	AX, "".r+32(SP)
	0x0019 00025 (/usr/local/go/test/codegen/mathbits.go:433)	SBBQ	AX, AX
	0x001c 00028 (/usr/local/go/test/codegen/mathbits.go:433)	NEGQ	AX
	0x001f 00031 (/usr/local/go/test/codegen/mathbits.go:433)	MOVQ	AX, "".co+40(SP)
	0x0024 00036 (/usr/local/go/test/codegen/mathbits.go:433)	RET
	0x0000 48 8b 44 24 18 f7 d8 48 8b 44 24 10 48 8b 4c 24  H.D$...H.D$.H.L$
	0x0010 08 48 11 c8 48 89 44 24 20 48 19 c0 48 f7 d8 48  .H..H.D$ H..H..H
	0x0020 89 44 24 28 c3                                   .D$(.
"".Add64C STEXT nosplit size=33 args=0x20 locals=0x0
	0x0000 00000 (/usr/local/go/test/codegen/mathbits.go:436)	TEXT	"".Add64C(SB), NOSPLIT|ABIInternal, $0-32
	0x0000 00000 (/usr/local/go/test/codegen/mathbits.go:436)	FUNCDATA	$0, gclocals·33cdeccccebe80329f1fdbee7f5874cb(SB)
	0x0000 00000 (/usr/local/go/test/codegen/mathbits.go:436)	FUNCDATA	$1, gclocals·33cdeccccebe80329f1fdbee7f5874cb(SB)
	0x0000 00000 (/usr/local/go/test/codegen/mathbits.go:442)	MOVQ	"".ci+16(SP), AX
	0x0005 00005 (/usr/local/go/test/codegen/mathbits.go:442)	NEGL	AX
	0x0007 00007 (/usr/local/go/test/codegen/mathbits.go:442)	MOVQ	"".x+8(SP), AX
	0x000c 00012 (/usr/local/go/test/codegen/mathbits.go:442)	ADCQ	$7, AX
	0x0010 00016 (/usr/local/go/test/codegen/mathbits.go:442)	MOVQ	AX, "".r+24(SP)
	0x0015 00021 (/usr/local/go/test/codegen/mathbits.go:442)	SBBQ	AX, AX
	0x0018 00024 (/usr/local/go/test/codegen/mathbits.go:442)	NEGQ	AX
	0x001b 00027 (/usr/local/go/test/codegen/mathbits.go:442)	MOVQ	AX, "".co+32(SP)
	0x0020 00032 (/usr/local/go/test/codegen/mathbits.go:442)	RET
	0x0000 48 8b 44 24 10 f7 d8 48 8b 44 24 08 48 83 d0 07  H.D$...H.D$.H...
	0x0010 48 89 44 24 18 48 19 c0 48 f7 d8 48 89 44 24 20  H.D$.H..H..H.D$ 
	0x0020 c3                                               .
"".Add64Z STEXT nosplit size=30 args=0x20 locals=0x0
	0x0000 00000 (/usr/local/go/test/codegen/mathbits.go:445)	TEXT	"".Add64Z(SB), NOSPLIT|ABIInternal, $0-32
	0x0000 00000 (/usr/local/go/test/codegen/mathbits.go:445)	FUNCDATA	$0, gclocals·33cdeccccebe80329f1fdbee7f5874cb(SB)
	0x0000 00000 (/usr/local/go/test/codegen/mathbits.go:445)	FUNCDATA	$1, gclocals·33cdeccccebe80329f1fdbee7f5874cb(SB)
	0x0000 00000 (/usr/local/go/test/codegen/mathbits.go:451)	MOVQ	"".y+16(SP), AX
	0x0005 00005 (/usr/local/go/test/codegen/mathbits.go:451)	MOVQ	"".x+8(SP), CX
	0x000a 00010 (/usr/local/go/test/codegen/mathbits.go:451)	ADDQ	CX, AX
	0x000d 00013 (/usr/local/go/test/codegen/mathbits.go:451)	MOVQ	AX, "".r+24(SP)
	0x0012 00018 (/usr/local/go/test/codegen/mathbits.go:451)	SBBQ	AX, AX
	0x0015 00021 (/usr/local/go/test/codegen/mathbits.go:451)	NEGQ	AX
	0x0018 00024 (/usr/local/go/test/codegen/mathbits.go:451)	MOVQ	AX, "".co+32(SP)
	0x001d 00029 (/usr/local/go/test/codegen/mathbits.go:451)	RET
	0x0000 48 8b 44 24 10 48 8b 4c 24 08 48 01 c8 48 89 44  H.D$.H.L$.H..H.D
	0x0010 24 18 48 19 c0 48 f7 d8 48 89 44 24 20 c3        $.H..H..H.D$ .
"".Add64R STEXT nosplit size=26 args=0x20 locals=0x0
	0x0000 00000 (/usr/local/go/test/codegen/mathbits.go:454)	TEXT	"".Add64R(SB), NOSPLIT|ABIInternal, $0-32
	0x0000 00000 (/usr/local/go/test/codegen/mathbits.go:454)	FUNCDATA	$0, gclocals·33cdeccccebe80329f1fdbee7f5874cb(SB)
	0x0000 00000 (/usr/local/go/test/codegen/mathbits.go:454)	FUNCDATA	$1, gclocals·33cdeccccebe80329f1fdbee7f5874cb(SB)
	0x0000 00000 (/usr/local/go/test/codegen/mathbits.go:460)	MOVQ	"".ci+24(SP), AX
	0x0005 00005 (/usr/local/go/test/codegen/mathbits.go:460)	NEGL	AX
	0x0007 00007 (/usr/local/go/test/codegen/mathbits.go:460)	MOVQ	"".x+8(SP), AX
	0x000c 00012 (/usr/local/go/test/codegen/mathbits.go:460)	MOVQ	"".y+16(SP), CX
	0x0011 00017 (/usr/local/go/test/codegen/mathbits.go:460)	ADCQ	CX, AX
	0x0014 00020 (/usr/local/go/test/codegen/mathbits.go:461)	MOVQ	AX, "".~r3+32(SP)
	0x0019 00025 (/usr/local/go/test/codegen/mathbits.go:461)	RET
	0x0000 48 8b 44 24 18 f7 d8 48 8b 44 24 08 48 8b 4c 24  H.D$...H.D$.H.L$
	0x0010 10 48 11 c8 48 89 44 24 20 c3                    .H..H.D$ .
"".Add64M STEXT nosplit size=58 args=0x18 locals=0x0
	0x0000 00000 (/usr/local/go/test/codegen/mathbits.go:463)	TEXT	"".Add64M(SB), NOSPLIT|ABIInternal, $0-24
	0x0000 00000 (/usr/local/go/test/codegen/mathbits.go:463)	FUNCDATA	$0, gclocals·9aa48eca674789341e2d6be6614c399c(SB)
	0x0000 00000 (/usr/local/go/test/codegen/mathbits.go:463)	FUNCDATA	$1, gclocals·69c1753bd5f81501d95132d08af04464(SB)
	0x0000 00000 (/usr/local/go/test/codegen/mathbits.go:465)	MOVQ	"".p+8(SP), AX
	0x0005 00005 (/usr/local/go/test/codegen/mathbits.go:465)	MOVQ	(AX), CX
	0x0008 00008 (/usr/local/go/test/codegen/mathbits.go:465)	MOVQ	"".q+16(SP), DX
	0x000d 00013 (/usr/local/go/test/codegen/mathbits.go:465)	MOVQ	(DX), BX
	0x0010 00016 (/usr/local/go/test/codegen/mathbits.go:465)	ADDQ	CX, BX
	0x0013 00019 (/usr/local/go/test/codegen/mathbits.go:465)	MOVQ	"".r+24(SP), CX
	0x0018 00024 (/usr/local/go/test/codegen/mathbits.go:465)	MOVQ	BX, (CX)
	0x001b 00027 (/usr/local/go/test/codegen/mathbits.go:471)	MOVQ	8(AX), BX
	0x001f 00031 (/usr/local/go/test/codegen/mathbits.go:471)	MOVQ	8(DX), SI
	0x0023 00035 (/usr/local/go/test/codegen/mathbits.go:471)	ADCQ	BX, SI
	0x0026 00038 (/usr/local/go/test/codegen/mathbits.go:471)	MOVQ	SI, 8(CX)
	0x002a 00042 (/usr/local/go/test/codegen/mathbits.go:472)	MOVQ	16(AX), AX
	0x002e 00046 (/usr/local/go/test/codegen/mathbits.go:472)	MOVQ	16(DX), DX
	0x0032 00050 (/usr/local/go/test/codegen/mathbits.go:472)	ADCQ	DX, AX
	0x0035 00053 (/usr/local/go/test/codegen/mathbits.go:472)	MOVQ	AX, 16(CX)
	0x0039 00057 (/usr/local/go/test/codegen/mathbits.go:473)	RET
	0x0000 48 8b 44 24 08 48 8b 08 48 8b 54 24 10 48 8b 1a  H.D$.H..H.T$.H..
	0x0010 48 01 cb 48 8b 4c 24 18 48 89 19 48 8b 58 08 48  H..H.L$.H..H.X.H
	0x0020 8b 72 08 48 11 de 48 89 71 08 48 8b 40 10 48 8b  .r.H..H.q.H.@.H.
	0x0030 52 10 48 11 d0 48 89 41 10 c3                    R.H..H.A..
"".Add64PanicOnOverflowEQ STEXT size=109 args=0x18 locals=0x18
	0x0000 00000 (/usr/local/go/test/codegen/mathbits.go:475)	TEXT	"".Add64PanicOnOverflowEQ(SB), ABIInternal, $24-24
	0x0000 00000 (/usr/local/go/test/codegen/mathbits.go:475)	MOVQ	(TLS), CX
	0x0009 00009 (/usr/local/go/test/codegen/mathbits.go:475)	CMPQ	SP, 16(CX)
	0x000d 00013 (/usr/local/go/test/codegen/mathbits.go:475)	PCDATA	$0, $-2
	0x000d 00013 (/usr/local/go/test/codegen/mathbits.go:475)	JLS	102
	0x000f 00015 (/usr/local/go/test/codegen/mathbits.go:475)	PCDATA	$0, $-1
	0x000f 00015 (/usr/local/go/test/codegen/mathbits.go:475)	SUBQ	$24, SP
	0x0013 00019 (/usr/local/go/test/codegen/mathbits.go:475)	MOVQ	BP, 16(SP)
	0x0018 00024 (/usr/local/go/test/codegen/mathbits.go:475)	LEAQ	16(SP), BP
	0x001d 00029 (/usr/local/go/test/codegen/mathbits.go:475)	FUNCDATA	$0, gclocals·33cdeccccebe80329f1fdbee7f5874cb(SB)
	0x001d 00029 (/usr/local/go/test/codegen/mathbits.go:475)	FUNCDATA	$1, gclocals·33cdeccccebe80329f1fdbee7f5874cb(SB)
	0x001d 00029 (/usr/local/go/test/codegen/mathbits.go:476)	MOVQ	"".b+40(SP), AX
	0x0022 00034 (/usr/local/go/test/codegen/mathbits.go:476)	MOVQ	"".a+32(SP), CX
	0x0027 00039 (/usr/local/go/test/codegen/mathbits.go:476)	ADDQ	CX, AX
	0x002a 00042 (/usr/local/go/test/codegen/mathbits.go:476)	SBBQ	CX, CX
	0x002d 00045 (/usr/local/go/test/codegen/mathbits.go:476)	NEGQ	CX
	0x0030 00048 (/usr/local/go/test/codegen/mathbits.go:478)	CMPQ	CX, $1
	0x0034 00052 (/usr/local/go/test/codegen/mathbits.go:478)	JEQ	69
	0x0036 00054 (/usr/local/go/test/codegen/mathbits.go:481)	MOVQ	AX, "".~r2+48(SP)
	0x003b 00059 (/usr/local/go/test/codegen/mathbits.go:481)	MOVQ	16(SP), BP
	0x0040 00064 (/usr/local/go/test/codegen/mathbits.go:481)	ADDQ	$24, SP
	0x0044 00068 (/usr/local/go/test/codegen/mathbits.go:481)	RET
	0x0045 00069 (/usr/local/go/test/codegen/mathbits.go:479)	LEAQ	type.string(SB), AX
	0x004c 00076 (/usr/local/go/test/codegen/mathbits.go:479)	MOVQ	AX, (SP)
	0x0050 00080 (/usr/local/go/test/codegen/mathbits.go:479)	LEAQ	""..stmp_0(SB), AX
	0x0057 00087 (/usr/local/go/test/codegen/mathbits.go:479)	MOVQ	AX, 8(SP)
	0x005c 00092 (/usr/local/go/test/codegen/mathbits.go:479)	PCDATA	$1, $0
	0x005c 00092 (/usr/local/go/test/codegen/mathbits.go:479)	NOP
	0x0060 00096 (/usr/local/go/test/codegen/mathbits.go:479)	CALL	runtime.gopanic(SB)
	0x0065 00101 (/usr/local/go/test/codegen/mathbits.go:479)	XCHGL	AX, AX
	0x0066 00102 (/usr/local/go/test/codegen/mathbits.go:479)	NOP
	0x0066 00102 (/usr/local/go/test/codegen/mathbits.go:475)	PCDATA	$1, $-1
	0x0066 00102 (/usr/local/go/test/codegen/mathbits.go:475)	PCDATA	$0, $-2
	0x0066 00102 (/usr/local/go/test/codegen/mathbits.go:475)	CALL	runtime.morestack_noctxt(SB)
	0x006b 00107 (/usr/local/go/test/codegen/mathbits.go:475)	PCDATA	$0, $-1
	0x006b 00107 (/usr/local/go/test/codegen/mathbits.go:475)	JMP	0
	0x0000 64 48 8b 0c 25 00 00 00 00 48 3b 61 10 76 57 48  dH..%....H;a.vWH
	0x0010 83 ec 18 48 89 6c 24 10 48 8d 6c 24 10 48 8b 44  ...H.l$.H.l$.H.D
	0x0020 24 28 48 8b 4c 24 20 48 01 c8 48 19 c9 48 f7 d9  $(H.L$ H..H..H..
	0x0030 48 83 f9 01 74 0f 48 89 44 24 30 48 8b 6c 24 10  H...t.H.D$0H.l$.
	0x0040 48 83 c4 18 c3 48 8d 05 00 00 00 00 48 89 04 24  H....H......H..$
	0x0050 48 8d 05 00 00 00 00 48 89 44 24 08 0f 1f 40 00  H......H.D$...@.
	0x0060 e8 00 00 00 00 90 e8 00 00 00 00 eb 93           .............
	rel 5+4 t=17 TLS+0
	rel 72+4 t=16 type.string+0
	rel 83+4 t=16 ""..stmp_0+0
	rel 97+4 t=8 runtime.gopanic+0
	rel 103+4 t=8 runtime.morestack_noctxt+0
"".Add64PanicOnOverflowNE STEXT size=109 args=0x18 locals=0x18
	0x0000 00000 (/usr/local/go/test/codegen/mathbits.go:484)	TEXT	"".Add64PanicOnOverflowNE(SB), ABIInternal, $24-24
	0x0000 00000 (/usr/local/go/test/codegen/mathbits.go:484)	MOVQ	(TLS), CX
	0x0009 00009 (/usr/local/go/test/codegen/mathbits.go:484)	CMPQ	SP, 16(CX)
	0x000d 00013 (/usr/local/go/test/codegen/mathbits.go:484)	PCDATA	$0, $-2
	0x000d 00013 (/usr/local/go/test/codegen/mathbits.go:484)	JLS	102
	0x000f 00015 (/usr/local/go/test/codegen/mathbits.go:484)	PCDATA	$0, $-1
	0x000f 00015 (/usr/local/go/test/codegen/mathbits.go:484)	SUBQ	$24, SP
	0x0013 00019 (/usr/local/go/test/codegen/mathbits.go:484)	MOVQ	BP, 16(SP)
	0x0018 00024 (/usr/local/go/test/codegen/mathbits.go:484)	LEAQ	16(SP), BP
	0x001d 00029 (/usr/local/go/test/codegen/mathbits.go:484)	FUNCDATA	$0, gclocals·33cdeccccebe80329f1fdbee7f5874cb(SB)
	0x001d 00029 (/usr/local/go/test/codegen/mathbits.go:484)	FUNCDATA	$1, gclocals·33cdeccccebe80329f1fdbee7f5874cb(SB)
	0x001d 00029 (/usr/local/go/test/codegen/mathbits.go:485)	MOVQ	"".b+40(SP), AX
	0x0022 00034 (/usr/local/go/test/codegen/mathbits.go:485)	MOVQ	"".a+32(SP), CX
	0x0027 00039 (/usr/local/go/test/codegen/mathbits.go:485)	ADDQ	CX, AX
	0x002a 00042 (/usr/local/go/test/codegen/mathbits.go:485)	SBBQ	CX, CX
	0x002d 00045 (/usr/local/go/test/codegen/mathbits.go:485)	NEGQ	CX
	0x0030 00048 (/usr/local/go/test/codegen/mathbits.go:487)	TESTQ	CX, CX
	0x0033 00051 (/usr/local/go/test/codegen/mathbits.go:487)	JNE	68
	0x0035 00053 (/usr/local/go/test/codegen/mathbits.go:490)	MOVQ	AX, "".~r2+48(SP)
	0x003a 00058 (/usr/local/go/test/codegen/mathbits.go:490)	MOVQ	16(SP), BP
	0x003f 00063 (/usr/local/go/test/codegen/mathbits.go:490)	ADDQ	$24, SP
	0x0043 00067 (/usr/local/go/test/codegen/mathbits.go:490)	RET
	0x0044 00068 (/usr/local/go/test/codegen/mathbits.go:488)	LEAQ	type.string(SB), AX
	0x004b 00075 (/usr/local/go/test/codegen/mathbits.go:488)	MOVQ	AX, (SP)
	0x004f 00079 (/usr/local/go/test/codegen/mathbits.go:488)	LEAQ	""..stmp_1(SB), AX
	0x0056 00086 (/usr/local/go/test/codegen/mathbits.go:488)	MOVQ	AX, 8(SP)
	0x005b 00091 (/usr/local/go/test/codegen/mathbits.go:488)	PCDATA	$1, $0
	0x005b 00091 (/usr/local/go/test/codegen/mathbits.go:488)	NOP
	0x0060 00096 (/usr/local/go/test/codegen/mathbits.go:488)	CALL	runtime.gopanic(SB)
	0x0065 00101 (/usr/local/go/test/codegen/mathbits.go:488)	XCHGL	AX, AX
	0x0066 00102 (/usr/local/go/test/codegen/mathbits.go:488)	NOP
	0x0066 00102 (/usr/local/go/test/codegen/mathbits.go:484)	PCDATA	$1, $-1
	0x0066 00102 (/usr/local/go/test/codegen/mathbits.go:484)	PCDATA	$0, $-2
	0x0066 00102 (/usr/local/go/test/codegen/mathbits.go:484)	CALL	runtime.morestack_noctxt(SB)
	0x006b 00107 (/usr/local/go/test/codegen/mathbits.go:484)	PCDATA	$0, $-1
	0x006b 00107 (/usr/local/go/test/codegen/mathbits.go:484)	JMP	0
	0x0000 64 48 8b 0c 25 00 00 00 00 48 3b 61 10 76 57 48  dH..%....H;a.vWH
	0x0010 83 ec 18 48 89 6c 24 10 48 8d 6c 24 10 48 8b 44  ...H.l$.H.l$.H.D
	0x0020 24 28 48 8b 4c 24 20 48 01 c8 48 19 c9 48 f7 d9  $(H.L$ H..H..H..
	0x0030 48 85 c9 75 0f 48 89 44 24 30 48 8b 6c 24 10 48  H..u.H.D$0H.l$.H
	0x0040 83 c4 18 c3 48 8d 05 00 00 00 00 48 89 04 24 48  ....H......H..$H
	0x0050 8d 05 00 00 00 00 48 89 44 24 08 0f 1f 44 00 00  ......H.D$...D..
	0x0060 e8 00 00 00 00 90 e8 00 00 00 00 eb 93           .............
	rel 5+4 t=17 TLS+0
	rel 71+4 t=16 type.string+0
	rel 82+4 t=16 ""..stmp_1+0
	rel 97+4 t=8 runtime.gopanic+0
	rel 103+4 t=8 runtime.morestack_noctxt+0
"".Add64PanicOnOverflowGT STEXT size=109 args=0x18 locals=0x18
	0x0000 00000 (/usr/local/go/test/codegen/mathbits.go:493)	TEXT	"".Add64PanicOnOverflowGT(SB), ABIInternal, $24-24
	0x0000 00000 (/usr/local/go/test/codegen/mathbits.go:493)	MOVQ	(TLS), CX
	0x0009 00009 (/usr/local/go/test/codegen/mathbits.go:493)	CMPQ	SP, 16(CX)
	0x000d 00013 (/usr/local/go/test/codegen/mathbits.go:493)	PCDATA	$0, $-2
	0x000d 00013 (/usr/local/go/test/codegen/mathbits.go:493)	JLS	102
	0x000f 00015 (/usr/local/go/test/codegen/mathbits.go:493)	PCDATA	$0, $-1
	0x000f 00015 (/usr/local/go/test/codegen/mathbits.go:493)	SUBQ	$24, SP
	0x0013 00019 (/usr/local/go/test/codegen/mathbits.go:493)	MOVQ	BP, 16(SP)
	0x0018 00024 (/usr/local/go/test/codegen/mathbits.go:493)	LEAQ	16(SP), BP
	0x001d 00029 (/usr/local/go/test/codegen/mathbits.go:493)	FUNCDATA	$0, gclocals·33cdeccccebe80329f1fdbee7f5874cb(SB)
	0x001d 00029 (/usr/local/go/test/codegen/mathbits.go:493)	FUNCDATA	$1, gclocals·33cdeccccebe80329f1fdbee7f5874cb(SB)
	0x001d 00029 (/usr/local/go/test/codegen/mathbits.go:494)	MOVQ	"".b+40(SP), AX
	0x0022 00034 (/usr/local/go/test/codegen/mathbits.go:494)	MOVQ	"".a+32(SP), CX
	0x0027 00039 (/usr/local/go/test/codegen/mathbits.go:494)	ADDQ	CX, AX
	0x002a 00042 (/usr/local/go/test/codegen/mathbits.go:494)	SBBQ	CX, CX
	0x002d 00045 (/usr/local/go/test/codegen/mathbits.go:494)	NEGQ	CX
	0x0030 00048 (/usr/local/go/test/codegen/mathbits.go:496)	TESTQ	CX, CX
	0x0033 00051 (/usr/local/go/test/codegen/mathbits.go:496)	JHI	68
	0x0035 00053 (/usr/local/go/test/codegen/mathbits.go:499)	MOVQ	AX, "".~r2+48(SP)
	0x003a 00058 (/usr/local/go/test/codegen/mathbits.go:499)	MOVQ	16(SP), BP
	0x003f 00063 (/usr/local/go/test/codegen/mathbits.go:499)	ADDQ	$24, SP
	0x0043 00067 (/usr/local/go/test/codegen/mathbits.go:499)	RET
	0x0044 00068 (/usr/local/go/test/codegen/mathbits.go:497)	LEAQ	type.string(SB), AX
	0x004b 00075 (/usr/local/go/test/codegen/mathbits.go:497)	MOVQ	AX, (SP)
	0x004f 00079 (/usr/local/go/test/codegen/mathbits.go:497)	LEAQ	""..stmp_2(SB), AX
	0x0056 00086 (/usr/local/go/test/codegen/mathbits.go:497)	MOVQ	AX, 8(SP)
	0x005b 00091 (/usr/local/go/test/codegen/mathbits.go:497)	PCDATA	$1, $0
	0x005b 00091 (/usr/local/go/test/codegen/mathbits.go:497)	NOP
	0x0060 00096 (/usr/local/go/test/codegen/mathbits.go:497)	CALL	runtime.gopanic(SB)
	0x0065 00101 (/usr/local/go/test/codegen/mathbits.go:497)	XCHGL	AX, AX
	0x0066 00102 (/usr/local/go/test/codegen/mathbits.go:497)	NOP
	0x0066 00102 (/usr/local/go/test/codegen/mathbits.go:493)	PCDATA	$1, $-1
	0x0066 00102 (/usr/local/go/test/codegen/mathbits.go:493)	PCDATA	$0, $-2
	0x0066 00102 (/usr/local/go/test/codegen/mathbits.go:493)	CALL	runtime.morestack_noctxt(SB)
	0x006b 00107 (/usr/local/go/test/codegen/mathbits.go:493)	PCDATA	$0, $-1
	0x006b 00107 (/usr/local/go/test/codegen/mathbits.go:493)	JMP	0
	0x0000 64 48 8b 0c 25 00 00 00 00 48 3b 61 10 76 57 48  dH..%....H;a.vWH
	0x0010 83 ec 18 48 89 6c 24 10 48 8d 6c 24 10 48 8b 44  ...H.l$.H.l$.H.D
	0x0020 24 28 48 8b 4c 24 20 48 01 c8 48 19 c9 48 f7 d9  $(H.L$ H..H..H..
	0x0030 48 85 c9 77 0f 48 89 44 24 30 48 8b 6c 24 10 48  H..w.H.D$0H.l$.H
	0x0040 83 c4 18 c3 48 8d 05 00 00 00 00 48 89 04 24 48  ....H......H..$H
	0x0050 8d 05 00 00 00 00 48 89 44 24 08 0f 1f 44 00 00  ......H.D$...D..
	0x0060 e8 00 00 00 00 90 e8 00 00 00 00 eb 93           .............
	rel 5+4 t=17 TLS+0
	rel 71+4 t=16 type.string+0
	rel 82+4 t=16 ""..stmp_2+0
	rel 97+4 t=8 runtime.gopanic+0
	rel 103+4 t=8 runtime.morestack_noctxt+0
"".Add64MPanicOnOverflowEQ STEXT size=138 args=0x30 locals=0x18
	0x0000 00000 (/usr/local/go/test/codegen/mathbits.go:502)	TEXT	"".Add64MPanicOnOverflowEQ(SB), ABIInternal, $24-48
	0x0000 00000 (/usr/local/go/test/codegen/mathbits.go:502)	MOVQ	(TLS), CX
	0x0009 00009 (/usr/local/go/test/codegen/mathbits.go:502)	CMPQ	SP, 16(CX)
	0x000d 00013 (/usr/local/go/test/codegen/mathbits.go:502)	PCDATA	$0, $-2
	0x000d 00013 (/usr/local/go/test/codegen/mathbits.go:502)	JLS	128
	0x000f 00015 (/usr/local/go/test/codegen/mathbits.go:502)	PCDATA	$0, $-1
	0x000f 00015 (/usr/local/go/test/codegen/mathbits.go:502)	SUBQ	$24, SP
	0x0013 00019 (/usr/local/go/test/codegen/mathbits.go:502)	MOVQ	BP, 16(SP)
	0x0018 00024 (/usr/local/go/test/codegen/mathbits.go:502)	LEAQ	16(SP), BP
	0x001d 00029 (/usr/local/go/test/codegen/mathbits.go:502)	FUNCDATA	$0, gclocals·33cdeccccebe80329f1fdbee7f5874cb(SB)
	0x001d 00029 (/usr/local/go/test/codegen/mathbits.go:502)	FUNCDATA	$1, gclocals·33cdeccccebe80329f1fdbee7f5874cb(SB)
	0x001d 00029 (/usr/local/go/test/codegen/mathbits.go:502)	XORPS	X0, X0
	0x0020 00032 (/usr/local/go/test/codegen/mathbits.go:502)	MOVUPS	X0, "".~r2+64(SP)
	0x0025 00037 (/usr/local/go/test/codegen/mathbits.go:505)	MOVQ	"".a+32(SP), AX
	0x002a 00042 (/usr/local/go/test/codegen/mathbits.go:505)	MOVQ	"".b+48(SP), CX
	0x002f 00047 (/usr/local/go/test/codegen/mathbits.go:505)	ADDQ	AX, CX
	0x0032 00050 (/usr/local/go/test/codegen/mathbits.go:506)	MOVQ	"".a+40(SP), AX
	0x0037 00055 (/usr/local/go/test/codegen/mathbits.go:506)	MOVQ	"".b+56(SP), DX
	0x003c 00060 (/usr/local/go/test/codegen/mathbits.go:506)	ADCQ	AX, DX
	0x003f 00063 (/usr/local/go/test/codegen/mathbits.go:506)	SBBQ	AX, AX
	0x0042 00066 (/usr/local/go/test/codegen/mathbits.go:506)	NEGQ	AX
	0x0045 00069 (/usr/local/go/test/codegen/mathbits.go:508)	CMPQ	AX, $1
	0x0049 00073 (/usr/local/go/test/codegen/mathbits.go:508)	JEQ	95
	0x004b 00075 (/usr/local/go/test/codegen/mathbits.go:511)	MOVQ	CX, "".~r2+64(SP)
	0x0050 00080 (/usr/local/go/test/codegen/mathbits.go:511)	MOVQ	DX, "".~r2+72(SP)
	0x0055 00085 (/usr/local/go/test/codegen/mathbits.go:511)	MOVQ	16(SP), BP
	0x005a 00090 (/usr/local/go/test/codegen/mathbits.go:511)	ADDQ	$24, SP
	0x005e 00094 (/usr/local/go/test/codegen/mathbits.go:511)	RET
	0x005f 00095 (/usr/local/go/test/codegen/mathbits.go:509)	LEAQ	type.string(SB), AX
	0x0066 00102 (/usr/local/go/test/codegen/mathbits.go:509)	MOVQ	AX, (SP)
	0x006a 00106 (/usr/local/go/test/codegen/mathbits.go:509)	LEAQ	""..stmp_3(SB), AX
	0x0071 00113 (/usr/local/go/test/codegen/mathbits.go:509)	MOVQ	AX, 8(SP)
	0x0076 00118 (/usr/local/go/test/codegen/mathbits.go:509)	PCDATA	$1, $0
	0x0076 00118 (/usr/local/go/test/codegen/mathbits.go:509)	CALL	runtime.gopanic(SB)
	0x007b 00123 (/usr/local/go/test/codegen/mathbits.go:509)	XCHGL	AX, AX
	0x007c 00124 (/usr/local/go/test/codegen/mathbits.go:509)	NOP
	0x007c 00124 (/usr/local/go/test/codegen/mathbits.go:502)	PCDATA	$1, $-1
	0x007c 00124 (/usr/local/go/test/codegen/mathbits.go:502)	PCDATA	$0, $-2
	0x007c 00124 (/usr/local/go/test/codegen/mathbits.go:502)	NOP
	0x0080 00128 (/usr/local/go/test/codegen/mathbits.go:502)	CALL	runtime.morestack_noctxt(SB)
	0x0085 00133 (/usr/local/go/test/codegen/mathbits.go:502)	PCDATA	$0, $-1
	0x0085 00133 (/usr/local/go/test/codegen/mathbits.go:502)	JMP	0
	0x0000 64 48 8b 0c 25 00 00 00 00 48 3b 61 10 76 71 48  dH..%....H;a.vqH
	0x0010 83 ec 18 48 89 6c 24 10 48 8d 6c 24 10 0f 57 c0  ...H.l$.H.l$..W.
	0x0020 0f 11 44 24 40 48 8b 44 24 20 48 8b 4c 24 30 48  ..D$@H.D$ H.L$0H
	0x0030 01 c1 48 8b 44 24 28 48 8b 54 24 38 48 11 c2 48  ..H.D$(H.T$8H..H
	0x0040 19 c0 48 f7 d8 48 83 f8 01 74 14 48 89 4c 24 40  ..H..H...t.H.L$@
	0x0050 48 89 54 24 48 48 8b 6c 24 10 48 83 c4 18 c3 48  H.T$HH.l$.H....H
	0x0060 8d 05 00 00 00 00 48 89 04 24 48 8d 05 00 00 00  ......H..$H.....
	0x0070 00 48 89 44 24 08 e8 00 00 00 00 90 0f 1f 40 00  .H.D$.........@.
	0x0080 e8 00 00 00 00 e9 76 ff ff ff                    ......v...
	rel 5+4 t=17 TLS+0
	rel 98+4 t=16 type.string+0
	rel 109+4 t=16 ""..stmp_3+0
	rel 119+4 t=8 runtime.gopanic+0
	rel 129+4 t=8 runtime.morestack_noctxt+0
"".Add64MPanicOnOverflowNE STEXT size=138 args=0x30 locals=0x18
	0x0000 00000 (/usr/local/go/test/codegen/mathbits.go:514)	TEXT	"".Add64MPanicOnOverflowNE(SB), ABIInternal, $24-48
	0x0000 00000 (/usr/local/go/test/codegen/mathbits.go:514)	MOVQ	(TLS), CX
	0x0009 00009 (/usr/local/go/test/codegen/mathbits.go:514)	CMPQ	SP, 16(CX)
	0x000d 00013 (/usr/local/go/test/codegen/mathbits.go:514)	PCDATA	$0, $-2
	0x000d 00013 (/usr/local/go/test/codegen/mathbits.go:514)	JLS	128
	0x000f 00015 (/usr/local/go/test/codegen/mathbits.go:514)	PCDATA	$0, $-1
	0x000f 00015 (/usr/local/go/test/codegen/mathbits.go:514)	SUBQ	$24, SP
	0x0013 00019 (/usr/local/go/test/codegen/mathbits.go:514)	MOVQ	BP, 16(SP)
	0x0018 00024 (/usr/local/go/test/codegen/mathbits.go:514)	LEAQ	16(SP), BP
	0x001d 00029 (/usr/local/go/test/codegen/mathbits.go:514)	FUNCDATA	$0, gclocals·33cdeccccebe80329f1fdbee7f5874cb(SB)
	0x001d 00029 (/usr/local/go/test/codegen/mathbits.go:514)	FUNCDATA	$1, gclocals·33cdeccccebe80329f1fdbee7f5874cb(SB)
	0x001d 00029 (/usr/local/go/test/codegen/mathbits.go:514)	XORPS	X0, X0
	0x0020 00032 (/usr/local/go/test/codegen/mathbits.go:514)	MOVUPS	X0, "".~r2+64(SP)
	0x0025 00037 (/usr/local/go/test/codegen/mathbits.go:517)	MOVQ	"".a+32(SP), AX
	0x002a 00042 (/usr/local/go/test/codegen/mathbits.go:517)	MOVQ	"".b+48(SP), CX
	0x002f 00047 (/usr/local/go/test/codegen/mathbits.go:517)	ADDQ	AX, CX
	0x0032 00050 (/usr/local/go/test/codegen/mathbits.go:518)	MOVQ	"".a+40(SP), AX
	0x0037 00055 (/usr/local/go/test/codegen/mathbits.go:518)	MOVQ	"".b+56(SP), DX
	0x003c 00060 (/usr/local/go/test/codegen/mathbits.go:518)	ADCQ	AX, DX
	0x003f 00063 (/usr/local/go/test/codegen/mathbits.go:518)	SBBQ	AX, AX
	0x0042 00066 (/usr/local/go/test/codegen/mathbits.go:518)	NEGQ	AX
	0x0045 00069 (/usr/local/go/test/codegen/mathbits.go:520)	TESTQ	AX, AX
	0x0048 00072 (/usr/local/go/test/codegen/mathbits.go:520)	JNE	94
	0x004a 00074 (/usr/local/go/test/codegen/mathbits.go:523)	MOVQ	CX, "".~r2+64(SP)
	0x004f 00079 (/usr/local/go/test/codegen/mathbits.go:523)	MOVQ	DX, "".~r2+72(SP)
	0x0054 00084 (/usr/local/go/test/codegen/mathbits.go:523)	MOVQ	16(SP), BP
	0x0059 00089 (/usr/local/go/test/codegen/mathbits.go:523)	ADDQ	$24, SP
	0x005d 00093 (/usr/local/go/test/codegen/mathbits.go:523)	RET
	0x005e 00094 (/usr/local/go/test/codegen/mathbits.go:521)	LEAQ	type.string(SB), AX
	0x0065 00101 (/usr/local/go/test/codegen/mathbits.go:521)	MOVQ	AX, (SP)
	0x0069 00105 (/usr/local/go/test/codegen/mathbits.go:521)	LEAQ	""..stmp_4(SB), AX
	0x0070 00112 (/usr/local/go/test/codegen/mathbits.go:521)	MOVQ	AX, 8(SP)
	0x0075 00117 (/usr/local/go/test/codegen/mathbits.go:521)	PCDATA	$1, $0
	0x0075 00117 (/usr/local/go/test/codegen/mathbits.go:521)	CALL	runtime.gopanic(SB)
	0x007a 00122 (/usr/local/go/test/codegen/mathbits.go:521)	XCHGL	AX, AX
	0x007b 00123 (/usr/local/go/test/codegen/mathbits.go:521)	NOP
	0x007b 00123 (/usr/local/go/test/codegen/mathbits.go:514)	PCDATA	$1, $-1
	0x007b 00123 (/usr/local/go/test/codegen/mathbits.go:514)	PCDATA	$0, $-2
	0x007b 00123 (/usr/local/go/test/codegen/mathbits.go:514)	NOP
	0x0080 00128 (/usr/local/go/test/codegen/mathbits.go:514)	CALL	runtime.morestack_noctxt(SB)
	0x0085 00133 (/usr/local/go/test/codegen/mathbits.go:514)	PCDATA	$0, $-1
	0x0085 00133 (/usr/local/go/test/codegen/mathbits.go:514)	JMP	0
	0x0000 64 48 8b 0c 25 00 00 00 00 48 3b 61 10 76 71 48  dH..%....H;a.vqH
	0x0010 83 ec 18 48 89 6c 24 10 48 8d 6c 24 10 0f 57 c0  ...H.l$.H.l$..W.
	0x0020 0f 11 44 24 40 48 8b 44 24 20 48 8b 4c 24 30 48  ..D$@H.D$ H.L$0H
	0x0030 01 c1 48 8b 44 24 28 48 8b 54 24 38 48 11 c2 48  ..H.D$(H.T$8H..H
	0x0040 19 c0 48 f7 d8 48 85 c0 75 14 48 89 4c 24 40 48  ..H..H..u.H.L$@H
	0x0050 89 54 24 48 48 8b 6c 24 10 48 83 c4 18 c3 48 8d  .T$HH.l$.H....H.
	0x0060 05 00 00 00 00 48 89 04 24 48 8d 05 00 00 00 00  .....H..$H......
	0x0070 48 89 44 24 08 e8 00 00 00 00 90 0f 1f 44 00 00  H.D$.........D..
	0x0080 e8 00 00 00 00 e9 76 ff ff ff                    ......v...
	rel 5+4 t=17 TLS+0
	rel 97+4 t=16 type.string+0
	rel 108+4 t=16 ""..stmp_4+0
	rel 118+4 t=8 runtime.gopanic+0
	rel 129+4 t=8 runtime.morestack_noctxt+0
"".Add64MPanicOnOverflowGT STEXT size=138 args=0x30 locals=0x18
	0x0000 00000 (/usr/local/go/test/codegen/mathbits.go:526)	TEXT	"".Add64MPanicOnOverflowGT(SB), ABIInternal, $24-48
	0x0000 00000 (/usr/local/go/test/codegen/mathbits.go:526)	MOVQ	(TLS), CX
	0x0009 00009 (/usr/local/go/test/codegen/mathbits.go:526)	CMPQ	SP, 16(CX)
	0x000d 00013 (/usr/local/go/test/codegen/mathbits.go:526)	PCDATA	$0, $-2
	0x000d 00013 (/usr/local/go/test/codegen/mathbits.go:526)	JLS	128
	0x000f 00015 (/usr/local/go/test/codegen/mathbits.go:526)	PCDATA	$0, $-1
	0x000f 00015 (/usr/local/go/test/codegen/mathbits.go:526)	SUBQ	$24, SP
	0x0013 00019 (/usr/local/go/test/codegen/mathbits.go:526)	MOVQ	BP, 16(SP)
	0x0018 00024 (/usr/local/go/test/codegen/mathbits.go:526)	LEAQ	16(SP), BP
	0x001d 00029 (/usr/local/go/test/codegen/mathbits.go:526)	FUNCDATA	$0, gclocals·33cdeccccebe80329f1fdbee7f5874cb(SB)
	0x001d 00029 (/usr/local/go/test/codegen/mathbits.go:526)	FUNCDATA	$1, gclocals·33cdeccccebe80329f1fdbee7f5874cb(SB)
	0x001d 00029 (/usr/local/go/test/codegen/mathbits.go:526)	XORPS	X0, X0
	0x0020 00032 (/usr/local/go/test/codegen/mathbits.go:526)	MOVUPS	X0, "".~r2+64(SP)
	0x0025 00037 (/usr/local/go/test/codegen/mathbits.go:529)	MOVQ	"".a+32(SP), AX
	0x002a 00042 (/usr/local/go/test/codegen/mathbits.go:529)	MOVQ	"".b+48(SP), CX
	0x002f 00047 (/usr/local/go/test/codegen/mathbits.go:529)	ADDQ	AX, CX
	0x0032 00050 (/usr/local/go/test/codegen/mathbits.go:530)	MOVQ	"".a+40(SP), AX
	0x0037 00055 (/usr/local/go/test/codegen/mathbits.go:530)	MOVQ	"".b+56(SP), DX
	0x003c 00060 (/usr/local/go/test/codegen/mathbits.go:530)	ADCQ	AX, DX
	0x003f 00063 (/usr/local/go/test/codegen/mathbits.go:530)	SBBQ	AX, AX
	0x0042 00066 (/usr/local/go/test/codegen/mathbits.go:530)	NEGQ	AX
	0x0045 00069 (/usr/local/go/test/codegen/mathbits.go:532)	TESTQ	AX, AX
	0x0048 00072 (/usr/local/go/test/codegen/mathbits.go:532)	JHI	94
	0x004a 00074 (/usr/local/go/test/codegen/mathbits.go:535)	MOVQ	CX, "".~r2+64(SP)
	0x004f 00079 (/usr/local/go/test/codegen/mathbits.go:535)	MOVQ	DX, "".~r2+72(SP)
	0x0054 00084 (/usr/local/go/test/codegen/mathbits.go:535)	MOVQ	16(SP), BP
	0x0059 00089 (/usr/local/go/test/codegen/mathbits.go:535)	ADDQ	$24, SP
	0x005d 00093 (/usr/local/go/test/codegen/mathbits.go:535)	RET
	0x005e 00094 (/usr/local/go/test/codegen/mathbits.go:533)	LEAQ	type.string(SB), AX
	0x0065 00101 (/usr/local/go/test/codegen/mathbits.go:533)	MOVQ	AX, (SP)
	0x0069 00105 (/usr/local/go/test/codegen/mathbits.go:533)	LEAQ	""..stmp_5(SB), AX
	0x0070 00112 (/usr/local/go/test/codegen/mathbits.go:533)	MOVQ	AX, 8(SP)
	0x0075 00117 (/usr/local/go/test/codegen/mathbits.go:533)	PCDATA	$1, $0
	0x0075 00117 (/usr/local/go/test/codegen/mathbits.go:533)	CALL	runtime.gopanic(SB)
	0x007a 00122 (/usr/local/go/test/codegen/mathbits.go:533)	XCHGL	AX, AX
	0x007b 00123 (/usr/local/go/test/codegen/mathbits.go:533)	NOP
	0x007b 00123 (/usr/local/go/test/codegen/mathbits.go:526)	PCDATA	$1, $-1
	0x007b 00123 (/usr/local/go/test/codegen/mathbits.go:526)	PCDATA	$0, $-2
	0x007b 00123 (/usr/local/go/test/codegen/mathbits.go:526)	NOP
	0x0080 00128 (/usr/local/go/test/codegen/mathbits.go:526)	CALL	runtime.morestack_noctxt(SB)
	0x0085 00133 (/usr/local/go/test/codegen/mathbits.go:526)	PCDATA	$0, $-1
	0x0085 00133 (/usr/local/go/test/codegen/mathbits.go:526)	JMP	0
	0x0000 64 48 8b 0c 25 00 00 00 00 48 3b 61 10 76 71 48  dH..%....H;a.vqH
	0x0010 83 ec 18 48 89 6c 24 10 48 8d 6c 24 10 0f 57 c0  ...H.l$.H.l$..W.
	0x0020 0f 11 44 24 40 48 8b 44 24 20 48 8b 4c 24 30 48  ..D$@H.D$ H.L$0H
	0x0030 01 c1 48 8b 44 24 28 48 8b 54 24 38 48 11 c2 48  ..H.D$(H.T$8H..H
	0x0040 19 c0 48 f7 d8 48 85 c0 77 14 48 89 4c 24 40 48  ..H..H..w.H.L$@H
	0x0050 89 54 24 48 48 8b 6c 24 10 48 83 c4 18 c3 48 8d  .T$HH.l$.H....H.
	0x0060 05 00 00 00 00 48 89 04 24 48 8d 05 00 00 00 00  .....H..$H......
	0x0070 48 89 44 24 08 e8 00 00 00 00 90 0f 1f 44 00 00  H.D$.........D..
	0x0080 e8 00 00 00 00 e9 76 ff ff ff                    ......v...
	rel 5+4 t=17 TLS+0
	rel 97+4 t=16 type.string+0
	rel 108+4 t=16 ""..stmp_5+0
	rel 118+4 t=8 runtime.gopanic+0
	rel 129+4 t=8 runtime.morestack_noctxt+0
"".Sub STEXT nosplit size=37 args=0x28 locals=0x0
	0x0000 00000 (/usr/local/go/test/codegen/mathbits.go:542)	TEXT	"".Sub(SB), NOSPLIT|ABIInternal, $0-40
	0x0000 00000 (/usr/local/go/test/codegen/mathbits.go:542)	FUNCDATA	$0, gclocals·33cdeccccebe80329f1fdbee7f5874cb(SB)
	0x0000 00000 (/usr/local/go/test/codegen/mathbits.go:542)	FUNCDATA	$1, gclocals·33cdeccccebe80329f1fdbee7f5874cb(SB)
	0x0000 00000 (/usr/local/go/test/codegen/mathbits.go:546)	MOVQ	"".ci+24(SP), AX
	0x0005 00005 (/usr/local/go/test/codegen/mathbits.go:546)	NEGL	AX
	0x0007 00007 (/usr/local/go/test/codegen/mathbits.go:546)	MOVQ	"".x+8(SP), AX
	0x000c 00012 (/usr/local/go/test/codegen/mathbits.go:546)	MOVQ	"".y+16(SP), CX
	0x0011 00017 (/usr/local/go/test/codegen/mathbits.go:546)	SBBQ	CX, AX
	0x0014 00020 (/usr/local/go/test/codegen/mathbits.go:546)	MOVQ	AX, "".r+32(SP)
	0x0019 00025 (/usr/local/go/test/codegen/mathbits.go:546)	SBBQ	AX, AX
	0x001c 00028 (/usr/local/go/test/codegen/mathbits.go:546)	NEGQ	AX
	0x001f 00031 (/usr/local/go/test/codegen/mathbits.go:546)	MOVQ	AX, "".co+40(SP)
	0x0024 00036 (/usr/local/go/test/codegen/mathbits.go:546)	RET
	0x0000 48 8b 44 24 18 f7 d8 48 8b 44 24 08 48 8b 4c 24  H.D$...H.D$.H.L$
	0x0010 10 48 19 c8 48 89 44 24 20 48 19 c0 48 f7 d8 48  .H..H.D$ H..H..H
	0x0020 89 44 24 28 c3                                   .D$(.
"".SubC STEXT nosplit size=33 args=0x20 locals=0x0
	0x0000 00000 (/usr/local/go/test/codegen/mathbits.go:549)	TEXT	"".SubC(SB), NOSPLIT|ABIInternal, $0-32
	0x0000 00000 (/usr/local/go/test/codegen/mathbits.go:549)	FUNCDATA	$0, gclocals·33cdeccccebe80329f1fdbee7f5874cb(SB)
	0x0000 00000 (/usr/local/go/test/codegen/mathbits.go:549)	FUNCDATA	$1, gclocals·33cdeccccebe80329f1fdbee7f5874cb(SB)
	0x0000 00000 (/usr/local/go/test/codegen/mathbits.go:553)	MOVQ	"".ci+16(SP), AX
	0x0005 00005 (/usr/local/go/test/codegen/mathbits.go:553)	NEGL	AX
	0x0007 00007 (/usr/local/go/test/codegen/mathbits.go:553)	MOVQ	"".x+8(SP), AX
	0x000c 00012 (/usr/local/go/test/codegen/mathbits.go:553)	SBBQ	$7, AX
	0x0010 00016 (/usr/local/go/test/codegen/mathbits.go:553)	MOVQ	AX, "".r+24(SP)
	0x0015 00021 (/usr/local/go/test/codegen/mathbits.go:553)	SBBQ	AX, AX
	0x0018 00024 (/usr/local/go/test/codegen/mathbits.go:553)	NEGQ	AX
	0x001b 00027 (/usr/local/go/test/codegen/mathbits.go:553)	MOVQ	AX, "".co+32(SP)
	0x0020 00032 (/usr/local/go/test/codegen/mathbits.go:553)	RET
	0x0000 48 8b 44 24 10 f7 d8 48 8b 44 24 08 48 83 d8 07  H.D$...H.D$.H...
	0x0010 48 89 44 24 18 48 19 c0 48 f7 d8 48 89 44 24 20  H.D$.H..H..H.D$ 
	0x0020 c3                                               .
"".SubZ STEXT nosplit size=30 args=0x20 locals=0x0
	0x0000 00000 (/usr/local/go/test/codegen/mathbits.go:556)	TEXT	"".SubZ(SB), NOSPLIT|ABIInternal, $0-32
	0x0000 00000 (/usr/local/go/test/codegen/mathbits.go:556)	FUNCDATA	$0, gclocals·33cdeccccebe80329f1fdbee7f5874cb(SB)
	0x0000 00000 (/usr/local/go/test/codegen/mathbits.go:556)	FUNCDATA	$1, gclocals·33cdeccccebe80329f1fdbee7f5874cb(SB)
	0x0000 00000 (/usr/local/go/test/codegen/mathbits.go:560)	MOVQ	"".x+8(SP), AX
	0x0005 00005 (/usr/local/go/test/codegen/mathbits.go:560)	MOVQ	"".y+16(SP), CX
	0x000a 00010 (/usr/local/go/test/codegen/mathbits.go:560)	SUBQ	CX, AX
	0x000d 00013 (/usr/local/go/test/codegen/mathbits.go:560)	MOVQ	AX, "".r+24(SP)
	0x0012 00018 (/usr/local/go/test/codegen/mathbits.go:560)	SBBQ	AX, AX
	0x0015 00021 (/usr/local/go/test/codegen/mathbits.go:560)	NEGQ	AX
	0x0018 00024 (/usr/local/go/test/codegen/mathbits.go:560)	MOVQ	AX, "".co+32(SP)
	0x001d 00029 (/usr/local/go/test/codegen/mathbits.go:560)	RET
	0x0000 48 8b 44 24 08 48 8b 4c 24 10 48 29 c8 48 89 44  H.D$.H.L$.H).H.D
	0x0010 24 18 48 19 c0 48 f7 d8 48 89 44 24 20 c3        $.H..H..H.D$ .
"".SubR STEXT nosplit size=26 args=0x20 locals=0x0
	0x0000 00000 (/usr/local/go/test/codegen/mathbits.go:563)	TEXT	"".SubR(SB), NOSPLIT|ABIInternal, $0-32
	0x0000 00000 (/usr/local/go/test/codegen/mathbits.go:563)	FUNCDATA	$0, gclocals·33cdeccccebe80329f1fdbee7f5874cb(SB)
	0x0000 00000 (/usr/local/go/test/codegen/mathbits.go:563)	FUNCDATA	$1, gclocals·33cdeccccebe80329f1fdbee7f5874cb(SB)
	0x0000 00000 (/usr/local/go/test/codegen/mathbits.go:567)	MOVQ	"".ci+24(SP), AX
	0x0005 00005 (/usr/local/go/test/codegen/mathbits.go:567)	NEGL	AX
	0x0007 00007 (/usr/local/go/test/codegen/mathbits.go:567)	MOVQ	"".x+8(SP), AX
	0x000c 00012 (/usr/local/go/test/codegen/mathbits.go:567)	MOVQ	"".y+16(SP), CX
	0x0011 00017 (/usr/local/go/test/codegen/mathbits.go:567)	SBBQ	CX, AX
	0x0014 00020 (/usr/local/go/test/codegen/mathbits.go:568)	MOVQ	AX, "".~r3+32(SP)
	0x0019 00025 (/usr/local/go/test/codegen/mathbits.go:568)	RET
	0x0000 48 8b 44 24 18 f7 d8 48 8b 44 24 08 48 8b 4c 24  H.D$...H.D$.H.L$
	0x0010 10 48 19 c8 48 89 44 24 20 c3                    .H..H.D$ .
"".SubM STEXT nosplit size=58 args=0x18 locals=0x0
	0x0000 00000 (/usr/local/go/test/codegen/mathbits.go:570)	TEXT	"".SubM(SB), NOSPLIT|ABIInternal, $0-24
	0x0000 00000 (/usr/local/go/test/codegen/mathbits.go:570)	FUNCDATA	$0, gclocals·9aa48eca674789341e2d6be6614c399c(SB)
	0x0000 00000 (/usr/local/go/test/codegen/mathbits.go:570)	FUNCDATA	$1, gclocals·69c1753bd5f81501d95132d08af04464(SB)
	0x0000 00000 (/usr/local/go/test/codegen/mathbits.go:572)	MOVQ	"".p+8(SP), AX
	0x0005 00005 (/usr/local/go/test/codegen/mathbits.go:572)	MOVQ	(AX), CX
	0x0008 00008 (/usr/local/go/test/codegen/mathbits.go:572)	MOVQ	"".q+16(SP), DX
	0x000d 00013 (/usr/local/go/test/codegen/mathbits.go:572)	MOVQ	(DX), BX
	0x0010 00016 (/usr/local/go/test/codegen/mathbits.go:572)	SUBQ	BX, CX
	0x0013 00019 (/usr/local/go/test/codegen/mathbits.go:572)	MOVQ	"".r+24(SP), BX
	0x0018 00024 (/usr/local/go/test/codegen/mathbits.go:572)	MOVQ	CX, (BX)
	0x001b 00027 (/usr/local/go/test/codegen/mathbits.go:576)	MOVQ	8(AX), CX
	0x001f 00031 (/usr/local/go/test/codegen/mathbits.go:576)	MOVQ	8(DX), SI
	0x0023 00035 (/usr/local/go/test/codegen/mathbits.go:576)	SBBQ	SI, CX
	0x0026 00038 (/usr/local/go/test/codegen/mathbits.go:576)	MOVQ	CX, 8(BX)
	0x002a 00042 (/usr/local/go/test/codegen/mathbits.go:577)	MOVQ	16(AX), AX
	0x002e 00046 (/usr/local/go/test/codegen/mathbits.go:577)	MOVQ	16(DX), CX
	0x0032 00050 (/usr/local/go/test/codegen/mathbits.go:577)	SBBQ	CX, AX
	0x0035 00053 (/usr/local/go/test/codegen/mathbits.go:577)	MOVQ	AX, 16(BX)
	0x0039 00057 (/usr/local/go/test/codegen/mathbits.go:578)	RET
	0x0000 48 8b 44 24 08 48 8b 08 48 8b 54 24 10 48 8b 1a  H.D$.H..H.T$.H..
	0x0010 48 29 d9 48 8b 5c 24 18 48 89 0b 48 8b 48 08 48  H).H.\$.H..H.H.H
	0x0020 8b 72 08 48 19 f1 48 89 4b 08 48 8b 40 10 48 8b  .r.H..H.K.H.@.H.
	0x0030 4a 10 48 19 c8 48 89 43 10 c3                    J.H..H.C..
"".Sub64 STEXT nosplit size=37 args=0x28 locals=0x0
	0x0000 00000 (/usr/local/go/test/codegen/mathbits.go:580)	TEXT	"".Sub64(SB), NOSPLIT|ABIInternal, $0-40
	0x0000 00000 (/usr/local/go/test/codegen/mathbits.go:580)	FUNCDATA	$0, gclocals·33cdeccccebe80329f1fdbee7f5874cb(SB)
	0x0000 00000 (/usr/local/go/test/codegen/mathbits.go:580)	FUNCDATA	$1, gclocals·33cdeccccebe80329f1fdbee7f5874cb(SB)
	0x0000 00000 (/usr/local/go/test/codegen/mathbits.go:584)	MOVQ	"".ci+24(SP), AX
	0x0005 00005 (/usr/local/go/test/codegen/mathbits.go:584)	NEGL	AX
	0x0007 00007 (/usr/local/go/test/codegen/mathbits.go:584)	MOVQ	"".x+8(SP), AX
	0x000c 00012 (/usr/local/go/test/codegen/mathbits.go:584)	MOVQ	"".y+16(SP), CX
	0x0011 00017 (/usr/local/go/test/codegen/mathbits.go:584)	SBBQ	CX, AX
	0x0014 00020 (/usr/local/go/test/codegen/mathbits.go:584)	MOVQ	AX, "".r+32(SP)
	0x0019 00025 (/usr/local/go/test/codegen/mathbits.go:584)	SBBQ	AX, AX
	0x001c 00028 (/usr/local/go/test/codegen/mathbits.go:584)	NEGQ	AX
	0x001f 00031 (/usr/local/go/test/codegen/mathbits.go:584)	MOVQ	AX, "".co+40(SP)
	0x0024 00036 (/usr/local/go/test/codegen/mathbits.go:584)	RET
	0x0000 48 8b 44 24 18 f7 d8 48 8b 44 24 08 48 8b 4c 24  H.D$...H.D$.H.L$
	0x0010 10 48 19 c8 48 89 44 24 20 48 19 c0 48 f7 d8 48  .H..H.D$ H..H..H
	0x0020 89 44 24 28 c3                                   .D$(.
"".Sub64C STEXT nosplit size=33 args=0x20 locals=0x0
	0x0000 00000 (/usr/local/go/test/codegen/mathbits.go:587)	TEXT	"".Sub64C(SB), NOSPLIT|ABIInternal, $0-32
	0x0000 00000 (/usr/local/go/test/codegen/mathbits.go:587)	FUNCDATA	$0, gclocals·33cdeccccebe80329f1fdbee7f5874cb(SB)
	0x0000 00000 (/usr/local/go/test/codegen/mathbits.go:587)	FUNCDATA	$1, gclocals·33cdeccccebe80329f1fdbee7f5874cb(SB)
	0x0000 00000 (/usr/local/go/test/codegen/mathbits.go:591)	MOVQ	"".ci+16(SP), AX
	0x0005 00005 (/usr/local/go/test/codegen/mathbits.go:591)	NEGL	AX
	0x0007 00007 (/usr/local/go/test/codegen/mathbits.go:591)	MOVQ	"".x+8(SP), AX
	0x000c 00012 (/usr/local/go/test/codegen/mathbits.go:591)	SBBQ	$7, AX
	0x0010 00016 (/usr/local/go/test/codegen/mathbits.go:591)	MOVQ	AX, "".r+24(SP)
	0x0015 00021 (/usr/local/go/test/codegen/mathbits.go:591)	SBBQ	AX, AX
	0x0018 00024 (/usr/local/go/test/codegen/mathbits.go:591)	NEGQ	AX
	0x001b 00027 (/usr/local/go/test/codegen/mathbits.go:591)	MOVQ	AX, "".co+32(SP)
	0x0020 00032 (/usr/local/go/test/codegen/mathbits.go:591)	RET
	0x0000 48 8b 44 24 10 f7 d8 48 8b 44 24 08 48 83 d8 07  H.D$...H.D$.H...
	0x0010 48 89 44 24 18 48 19 c0 48 f7 d8 48 89 44 24 20  H.D$.H..H..H.D$ 
	0x0020 c3                                               .
"".Sub64Z STEXT nosplit size=30 args=0x20 locals=0x0
	0x0000 00000 (/usr/local/go/test/codegen/mathbits.go:594)	TEXT	"".Sub64Z(SB), NOSPLIT|ABIInternal, $0-32
	0x0000 00000 (/usr/local/go/test/codegen/mathbits.go:594)	FUNCDATA	$0, gclocals·33cdeccccebe80329f1fdbee7f5874cb(SB)
	0x0000 00000 (/usr/local/go/test/codegen/mathbits.go:594)	FUNCDATA	$1, gclocals·33cdeccccebe80329f1fdbee7f5874cb(SB)
	0x0000 00000 (/usr/local/go/test/codegen/mathbits.go:598)	MOVQ	"".x+8(SP), AX
	0x0005 00005 (/usr/local/go/test/codegen/mathbits.go:598)	MOVQ	"".y+16(SP), CX
	0x000a 00010 (/usr/local/go/test/codegen/mathbits.go:598)	SUBQ	CX, AX
	0x000d 00013 (/usr/local/go/test/codegen/mathbits.go:598)	MOVQ	AX, "".r+24(SP)
	0x0012 00018 (/usr/local/go/test/codegen/mathbits.go:598)	SBBQ	AX, AX
	0x0015 00021 (/usr/local/go/test/codegen/mathbits.go:598)	NEGQ	AX
	0x0018 00024 (/usr/local/go/test/codegen/mathbits.go:598)	MOVQ	AX, "".co+32(SP)
	0x001d 00029 (/usr/local/go/test/codegen/mathbits.go:598)	RET
	0x0000 48 8b 44 24 08 48 8b 4c 24 10 48 29 c8 48 89 44  H.D$.H.L$.H).H.D
	0x0010 24 18 48 19 c0 48 f7 d8 48 89 44 24 20 c3        $.H..H..H.D$ .
"".Sub64R STEXT nosplit size=26 args=0x20 locals=0x0
	0x0000 00000 (/usr/local/go/test/codegen/mathbits.go:601)	TEXT	"".Sub64R(SB), NOSPLIT|ABIInternal, $0-32
	0x0000 00000 (/usr/local/go/test/codegen/mathbits.go:601)	FUNCDATA	$0, gclocals·33cdeccccebe80329f1fdbee7f5874cb(SB)
	0x0000 00000 (/usr/local/go/test/codegen/mathbits.go:601)	FUNCDATA	$1, gclocals·33cdeccccebe80329f1fdbee7f5874cb(SB)
	0x0000 00000 (/usr/local/go/test/codegen/mathbits.go:605)	MOVQ	"".ci+24(SP), AX
	0x0005 00005 (/usr/local/go/test/codegen/mathbits.go:605)	NEGL	AX
	0x0007 00007 (/usr/local/go/test/codegen/mathbits.go:605)	MOVQ	"".x+8(SP), AX
	0x000c 00012 (/usr/local/go/test/codegen/mathbits.go:605)	MOVQ	"".y+16(SP), CX
	0x0011 00017 (/usr/local/go/test/codegen/mathbits.go:605)	SBBQ	CX, AX
	0x0014 00020 (/usr/local/go/test/codegen/mathbits.go:606)	MOVQ	AX, "".~r3+32(SP)
	0x0019 00025 (/usr/local/go/test/codegen/mathbits.go:606)	RET
	0x0000 48 8b 44 24 18 f7 d8 48 8b 44 24 08 48 8b 4c 24  H.D$...H.D$.H.L$
	0x0010 10 48 19 c8 48 89 44 24 20 c3                    .H..H.D$ .
"".Sub64M STEXT nosplit size=58 args=0x18 locals=0x0
	0x0000 00000 (/usr/local/go/test/codegen/mathbits.go:608)	TEXT	"".Sub64M(SB), NOSPLIT|ABIInternal, $0-24
	0x0000 00000 (/usr/local/go/test/codegen/mathbits.go:608)	FUNCDATA	$0, gclocals·9aa48eca674789341e2d6be6614c399c(SB)
	0x0000 00000 (/usr/local/go/test/codegen/mathbits.go:608)	FUNCDATA	$1, gclocals·69c1753bd5f81501d95132d08af04464(SB)
	0x0000 00000 (/usr/local/go/test/codegen/mathbits.go:610)	MOVQ	"".p+8(SP), AX
	0x0005 00005 (/usr/local/go/test/codegen/mathbits.go:610)	MOVQ	(AX), CX
	0x0008 00008 (/usr/local/go/test/codegen/mathbits.go:610)	MOVQ	"".q+16(SP), DX
	0x000d 00013 (/usr/local/go/test/codegen/mathbits.go:610)	MOVQ	(DX), BX
	0x0010 00016 (/usr/local/go/test/codegen/mathbits.go:610)	SUBQ	BX, CX
	0x0013 00019 (/usr/local/go/test/codegen/mathbits.go:610)	MOVQ	"".r+24(SP), BX
	0x0018 00024 (/usr/local/go/test/codegen/mathbits.go:610)	MOVQ	CX, (BX)
	0x001b 00027 (/usr/local/go/test/codegen/mathbits.go:614)	MOVQ	8(AX), CX
	0x001f 00031 (/usr/local/go/test/codegen/mathbits.go:614)	MOVQ	8(DX), SI
	0x0023 00035 (/usr/local/go/test/codegen/mathbits.go:614)	SBBQ	SI, CX
	0x0026 00038 (/usr/local/go/test/codegen/mathbits.go:614)	MOVQ	CX, 8(BX)
	0x002a 00042 (/usr/local/go/test/codegen/mathbits.go:615)	MOVQ	16(AX), AX
	0x002e 00046 (/usr/local/go/test/codegen/mathbits.go:615)	MOVQ	16(DX), CX
	0x0032 00050 (/usr/local/go/test/codegen/mathbits.go:615)	SBBQ	CX, AX
	0x0035 00053 (/usr/local/go/test/codegen/mathbits.go:615)	MOVQ	AX, 16(BX)
	0x0039 00057 (/usr/local/go/test/codegen/mathbits.go:616)	RET
	0x0000 48 8b 44 24 08 48 8b 08 48 8b 54 24 10 48 8b 1a  H.D$.H..H.T$.H..
	0x0010 48 29 d9 48 8b 5c 24 18 48 89 0b 48 8b 48 08 48  H).H.\$.H..H.H.H
	0x0020 8b 72 08 48 19 f1 48 89 4b 08 48 8b 40 10 48 8b  .r.H..H.K.H.@.H.
	0x0030 4a 10 48 19 c8 48 89 43 10 c3                    J.H..H.C..
"".Sub64PanicOnOverflowEQ STEXT size=109 args=0x18 locals=0x18
	0x0000 00000 (/usr/local/go/test/codegen/mathbits.go:618)	TEXT	"".Sub64PanicOnOverflowEQ(SB), ABIInternal, $24-24
	0x0000 00000 (/usr/local/go/test/codegen/mathbits.go:618)	MOVQ	(TLS), CX
	0x0009 00009 (/usr/local/go/test/codegen/mathbits.go:618)	CMPQ	SP, 16(CX)
	0x000d 00013 (/usr/local/go/test/codegen/mathbits.go:618)	PCDATA	$0, $-2
	0x000d 00013 (/usr/local/go/test/codegen/mathbits.go:618)	JLS	102
	0x000f 00015 (/usr/local/go/test/codegen/mathbits.go:618)	PCDATA	$0, $-1
	0x000f 00015 (/usr/local/go/test/codegen/mathbits.go:618)	SUBQ	$24, SP
	0x0013 00019 (/usr/local/go/test/codegen/mathbits.go:618)	MOVQ	BP, 16(SP)
	0x0018 00024 (/usr/local/go/test/codegen/mathbits.go:618)	LEAQ	16(SP), BP
	0x001d 00029 (/usr/local/go/test/codegen/mathbits.go:618)	FUNCDATA	$0, gclocals·33cdeccccebe80329f1fdbee7f5874cb(SB)
	0x001d 00029 (/usr/local/go/test/codegen/mathbits.go:618)	FUNCDATA	$1, gclocals·33cdeccccebe80329f1fdbee7f5874cb(SB)
	0x001d 00029 (/usr/local/go/test/codegen/mathbits.go:619)	MOVQ	"".a+32(SP), AX
	0x0022 00034 (/usr/local/go/test/codegen/mathbits.go:619)	MOVQ	"".b+40(SP), CX
	0x0027 00039 (/usr/local/go/test/codegen/mathbits.go:619)	SUBQ	CX, AX
	0x002a 00042 (/usr/local/go/test/codegen/mathbits.go:619)	SBBQ	CX, CX
	0x002d 00045 (/usr/local/go/test/codegen/mathbits.go:619)	NEGQ	CX
	0x0030 00048 (/usr/local/go/test/codegen/mathbits.go:621)	CMPQ	CX, $1
	0x0034 00052 (/usr/local/go/test/codegen/mathbits.go:621)	JEQ	69
	0x0036 00054 (/usr/local/go/test/codegen/mathbits.go:624)	MOVQ	AX, "".~r2+48(SP)
	0x003b 00059 (/usr/local/go/test/codegen/mathbits.go:624)	MOVQ	16(SP), BP
	0x0040 00064 (/usr/local/go/test/codegen/mathbits.go:624)	ADDQ	$24, SP
	0x0044 00068 (/usr/local/go/test/codegen/mathbits.go:624)	RET
	0x0045 00069 (/usr/local/go/test/codegen/mathbits.go:622)	LEAQ	type.string(SB), AX
	0x004c 00076 (/usr/local/go/test/codegen/mathbits.go:622)	MOVQ	AX, (SP)
	0x0050 00080 (/usr/local/go/test/codegen/mathbits.go:622)	LEAQ	""..stmp_6(SB), AX
	0x0057 00087 (/usr/local/go/test/codegen/mathbits.go:622)	MOVQ	AX, 8(SP)
	0x005c 00092 (/usr/local/go/test/codegen/mathbits.go:622)	PCDATA	$1, $0
	0x005c 00092 (/usr/local/go/test/codegen/mathbits.go:622)	NOP
	0x0060 00096 (/usr/local/go/test/codegen/mathbits.go:622)	CALL	runtime.gopanic(SB)
	0x0065 00101 (/usr/local/go/test/codegen/mathbits.go:622)	XCHGL	AX, AX
	0x0066 00102 (/usr/local/go/test/codegen/mathbits.go:622)	NOP
	0x0066 00102 (/usr/local/go/test/codegen/mathbits.go:618)	PCDATA	$1, $-1
	0x0066 00102 (/usr/local/go/test/codegen/mathbits.go:618)	PCDATA	$0, $-2
	0x0066 00102 (/usr/local/go/test/codegen/mathbits.go:618)	CALL	runtime.morestack_noctxt(SB)
	0x006b 00107 (/usr/local/go/test/codegen/mathbits.go:618)	PCDATA	$0, $-1
	0x006b 00107 (/usr/local/go/test/codegen/mathbits.go:618)	JMP	0
	0x0000 64 48 8b 0c 25 00 00 00 00 48 3b 61 10 76 57 48  dH..%....H;a.vWH
	0x0010 83 ec 18 48 89 6c 24 10 48 8d 6c 24 10 48 8b 44  ...H.l$.H.l$.H.D
	0x0020 24 20 48 8b 4c 24 28 48 29 c8 48 19 c9 48 f7 d9  $ H.L$(H).H..H..
	0x0030 48 83 f9 01 74 0f 48 89 44 24 30 48 8b 6c 24 10  H...t.H.D$0H.l$.
	0x0040 48 83 c4 18 c3 48 8d 05 00 00 00 00 48 89 04 24  H....H......H..$
	0x0050 48 8d 05 00 00 00 00 48 89 44 24 08 0f 1f 40 00  H......H.D$...@.
	0x0060 e8 00 00 00 00 90 e8 00 00 00 00 eb 93           .............
	rel 5+4 t=17 TLS+0
	rel 72+4 t=16 type.string+0
	rel 83+4 t=16 ""..stmp_6+0
	rel 97+4 t=8 runtime.gopanic+0
	rel 103+4 t=8 runtime.morestack_noctxt+0
"".Sub64PanicOnOverflowNE STEXT size=109 args=0x18 locals=0x18
	0x0000 00000 (/usr/local/go/test/codegen/mathbits.go:627)	TEXT	"".Sub64PanicOnOverflowNE(SB), ABIInternal, $24-24
	0x0000 00000 (/usr/local/go/test/codegen/mathbits.go:627)	MOVQ	(TLS), CX
	0x0009 00009 (/usr/local/go/test/codegen/mathbits.go:627)	CMPQ	SP, 16(CX)
	0x000d 00013 (/usr/local/go/test/codegen/mathbits.go:627)	PCDATA	$0, $-2
	0x000d 00013 (/usr/local/go/test/codegen/mathbits.go:627)	JLS	102
	0x000f 00015 (/usr/local/go/test/codegen/mathbits.go:627)	PCDATA	$0, $-1
	0x000f 00015 (/usr/local/go/test/codegen/mathbits.go:627)	SUBQ	$24, SP
	0x0013 00019 (/usr/local/go/test/codegen/mathbits.go:627)	MOVQ	BP, 16(SP)
	0x0018 00024 (/usr/local/go/test/codegen/mathbits.go:627)	LEAQ	16(SP), BP
	0x001d 00029 (/usr/local/go/test/codegen/mathbits.go:627)	FUNCDATA	$0, gclocals·33cdeccccebe80329f1fdbee7f5874cb(SB)
	0x001d 00029 (/usr/local/go/test/codegen/mathbits.go:627)	FUNCDATA	$1, gclocals·33cdeccccebe80329f1fdbee7f5874cb(SB)
	0x001d 00029 (/usr/local/go/test/codegen/mathbits.go:628)	MOVQ	"".a+32(SP), AX
	0x0022 00034 (/usr/local/go/test/codegen/mathbits.go:628)	MOVQ	"".b+40(SP), CX
	0x0027 00039 (/usr/local/go/test/codegen/mathbits.go:628)	SUBQ	CX, AX
	0x002a 00042 (/usr/local/go/test/codegen/mathbits.go:628)	SBBQ	CX, CX
	0x002d 00045 (/usr/local/go/test/codegen/mathbits.go:628)	NEGQ	CX
	0x0030 00048 (/usr/local/go/test/codegen/mathbits.go:630)	TESTQ	CX, CX
	0x0033 00051 (/usr/local/go/test/codegen/mathbits.go:630)	JNE	68
	0x0035 00053 (/usr/local/go/test/codegen/mathbits.go:633)	MOVQ	AX, "".~r2+48(SP)
	0x003a 00058 (/usr/local/go/test/codegen/mathbits.go:633)	MOVQ	16(SP), BP
	0x003f 00063 (/usr/local/go/test/codegen/mathbits.go:633)	ADDQ	$24, SP
	0x0043 00067 (/usr/local/go/test/codegen/mathbits.go:633)	RET
	0x0044 00068 (/usr/local/go/test/codegen/mathbits.go:631)	LEAQ	type.string(SB), AX
	0x004b 00075 (/usr/local/go/test/codegen/mathbits.go:631)	MOVQ	AX, (SP)
	0x004f 00079 (/usr/local/go/test/codegen/mathbits.go:631)	LEAQ	""..stmp_7(SB), AX
	0x0056 00086 (/usr/local/go/test/codegen/mathbits.go:631)	MOVQ	AX, 8(SP)
	0x005b 00091 (/usr/local/go/test/codegen/mathbits.go:631)	PCDATA	$1, $0
	0x005b 00091 (/usr/local/go/test/codegen/mathbits.go:631)	NOP
	0x0060 00096 (/usr/local/go/test/codegen/mathbits.go:631)	CALL	runtime.gopanic(SB)
	0x0065 00101 (/usr/local/go/test/codegen/mathbits.go:631)	XCHGL	AX, AX
	0x0066 00102 (/usr/local/go/test/codegen/mathbits.go:631)	NOP
	0x0066 00102 (/usr/local/go/test/codegen/mathbits.go:627)	PCDATA	$1, $-1
	0x0066 00102 (/usr/local/go/test/codegen/mathbits.go:627)	PCDATA	$0, $-2
	0x0066 00102 (/usr/local/go/test/codegen/mathbits.go:627)	CALL	runtime.morestack_noctxt(SB)
	0x006b 00107 (/usr/local/go/test/codegen/mathbits.go:627)	PCDATA	$0, $-1
	0x006b 00107 (/usr/local/go/test/codegen/mathbits.go:627)	JMP	0
	0x0000 64 48 8b 0c 25 00 00 00 00 48 3b 61 10 76 57 48  dH..%....H;a.vWH
	0x0010 83 ec 18 48 89 6c 24 10 48 8d 6c 24 10 48 8b 44  ...H.l$.H.l$.H.D
	0x0020 24 20 48 8b 4c 24 28 48 29 c8 48 19 c9 48 f7 d9  $ H.L$(H).H..H..
	0x0030 48 85 c9 75 0f 48 89 44 24 30 48 8b 6c 24 10 48  H..u.H.D$0H.l$.H
	0x0040 83 c4 18 c3 48 8d 05 00 00 00 00 48 89 04 24 48  ....H......H..$H
	0x0050 8d 05 00 00 00 00 48 89 44 24 08 0f 1f 44 00 00  ......H.D$...D..
	0x0060 e8 00 00 00 00 90 e8 00 00 00 00 eb 93           .............
	rel 5+4 t=17 TLS+0
	rel 71+4 t=16 type.string+0
	rel 82+4 t=16 ""..stmp_7+0
	rel 97+4 t=8 runtime.gopanic+0
	rel 103+4 t=8 runtime.morestack_noctxt+0
"".Sub64PanicOnOverflowGT STEXT size=109 args=0x18 locals=0x18
	0x0000 00000 (/usr/local/go/test/codegen/mathbits.go:636)	TEXT	"".Sub64PanicOnOverflowGT(SB), ABIInternal, $24-24
	0x0000 00000 (/usr/local/go/test/codegen/mathbits.go:636)	MOVQ	(TLS), CX
	0x0009 00009 (/usr/local/go/test/codegen/mathbits.go:636)	CMPQ	SP, 16(CX)
	0x000d 00013 (/usr/local/go/test/codegen/mathbits.go:636)	PCDATA	$0, $-2
	0x000d 00013 (/usr/local/go/test/codegen/mathbits.go:636)	JLS	102
	0x000f 00015 (/usr/local/go/test/codegen/mathbits.go:636)	PCDATA	$0, $-1
	0x000f 00015 (/usr/local/go/test/codegen/mathbits.go:636)	SUBQ	$24, SP
	0x0013 00019 (/usr/local/go/test/codegen/mathbits.go:636)	MOVQ	BP, 16(SP)
	0x0018 00024 (/usr/local/go/test/codegen/mathbits.go:636)	LEAQ	16(SP), BP
	0x001d 00029 (/usr/local/go/test/codegen/mathbits.go:636)	FUNCDATA	$0, gclocals·33cdeccccebe80329f1fdbee7f5874cb(SB)
	0x001d 00029 (/usr/local/go/test/codegen/mathbits.go:636)	FUNCDATA	$1, gclocals·33cdeccccebe80329f1fdbee7f5874cb(SB)
	0x001d 00029 (/usr/local/go/test/codegen/mathbits.go:637)	MOVQ	"".a+32(SP), AX
	0x0022 00034 (/usr/local/go/test/codegen/mathbits.go:637)	MOVQ	"".b+40(SP), CX
	0x0027 00039 (/usr/local/go/test/codegen/mathbits.go:637)	SUBQ	CX, AX
	0x002a 00042 (/usr/local/go/test/codegen/mathbits.go:637)	SBBQ	CX, CX
	0x002d 00045 (/usr/local/go/test/codegen/mathbits.go:637)	NEGQ	CX
	0x0030 00048 (/usr/local/go/test/codegen/mathbits.go:639)	TESTQ	CX, CX
	0x0033 00051 (/usr/local/go/test/codegen/mathbits.go:639)	JHI	68
	0x0035 00053 (/usr/local/go/test/codegen/mathbits.go:642)	MOVQ	AX, "".~r2+48(SP)
	0x003a 00058 (/usr/local/go/test/codegen/mathbits.go:642)	MOVQ	16(SP), BP
	0x003f 00063 (/usr/local/go/test/codegen/mathbits.go:642)	ADDQ	$24, SP
	0x0043 00067 (/usr/local/go/test/codegen/mathbits.go:642)	RET
	0x0044 00068 (/usr/local/go/test/codegen/mathbits.go:640)	LEAQ	type.string(SB), AX
	0x004b 00075 (/usr/local/go/test/codegen/mathbits.go:640)	MOVQ	AX, (SP)
	0x004f 00079 (/usr/local/go/test/codegen/mathbits.go:640)	LEAQ	""..stmp_8(SB), AX
	0x0056 00086 (/usr/local/go/test/codegen/mathbits.go:640)	MOVQ	AX, 8(SP)
	0x005b 00091 (/usr/local/go/test/codegen/mathbits.go:640)	PCDATA	$1, $0
	0x005b 00091 (/usr/local/go/test/codegen/mathbits.go:640)	NOP
	0x0060 00096 (/usr/local/go/test/codegen/mathbits.go:640)	CALL	runtime.gopanic(SB)
	0x0065 00101 (/usr/local/go/test/codegen/mathbits.go:640)	XCHGL	AX, AX
	0x0066 00102 (/usr/local/go/test/codegen/mathbits.go:640)	NOP
	0x0066 00102 (/usr/local/go/test/codegen/mathbits.go:636)	PCDATA	$1, $-1
	0x0066 00102 (/usr/local/go/test/codegen/mathbits.go:636)	PCDATA	$0, $-2
	0x0066 00102 (/usr/local/go/test/codegen/mathbits.go:636)	CALL	runtime.morestack_noctxt(SB)
	0x006b 00107 (/usr/local/go/test/codegen/mathbits.go:636)	PCDATA	$0, $-1
	0x006b 00107 (/usr/local/go/test/codegen/mathbits.go:636)	JMP	0
	0x0000 64 48 8b 0c 25 00 00 00 00 48 3b 61 10 76 57 48  dH..%....H;a.vWH
	0x0010 83 ec 18 48 89 6c 24 10 48 8d 6c 24 10 48 8b 44  ...H.l$.H.l$.H.D
	0x0020 24 20 48 8b 4c 24 28 48 29 c8 48 19 c9 48 f7 d9  $ H.L$(H).H..H..
	0x0030 48 85 c9 77 0f 48 89 44 24 30 48 8b 6c 24 10 48  H..w.H.D$0H.l$.H
	0x0040 83 c4 18 c3 48 8d 05 00 00 00 00 48 89 04 24 48  ....H......H..$H
	0x0050 8d 05 00 00 00 00 48 89 44 24 08 0f 1f 44 00 00  ......H.D$...D..
	0x0060 e8 00 00 00 00 90 e8 00 00 00 00 eb 93           .............
	rel 5+4 t=17 TLS+0
	rel 71+4 t=16 type.string+0
	rel 82+4 t=16 ""..stmp_8+0
	rel 97+4 t=8 runtime.gopanic+0
	rel 103+4 t=8 runtime.morestack_noctxt+0
"".Sub64MPanicOnOverflowEQ STEXT size=138 args=0x30 locals=0x18
	0x0000 00000 (/usr/local/go/test/codegen/mathbits.go:645)	TEXT	"".Sub64MPanicOnOverflowEQ(SB), ABIInternal, $24-48
	0x0000 00000 (/usr/local/go/test/codegen/mathbits.go:645)	MOVQ	(TLS), CX
	0x0009 00009 (/usr/local/go/test/codegen/mathbits.go:645)	CMPQ	SP, 16(CX)
	0x000d 00013 (/usr/local/go/test/codegen/mathbits.go:645)	PCDATA	$0, $-2
	0x000d 00013 (/usr/local/go/test/codegen/mathbits.go:645)	JLS	128
	0x000f 00015 (/usr/local/go/test/codegen/mathbits.go:645)	PCDATA	$0, $-1
	0x000f 00015 (/usr/local/go/test/codegen/mathbits.go:645)	SUBQ	$24, SP
	0x0013 00019 (/usr/local/go/test/codegen/mathbits.go:645)	MOVQ	BP, 16(SP)
	0x0018 00024 (/usr/local/go/test/codegen/mathbits.go:645)	LEAQ	16(SP), BP
	0x001d 00029 (/usr/local/go/test/codegen/mathbits.go:645)	FUNCDATA	$0, gclocals·33cdeccccebe80329f1fdbee7f5874cb(SB)
	0x001d 00029 (/usr/local/go/test/codegen/mathbits.go:645)	FUNCDATA	$1, gclocals·33cdeccccebe80329f1fdbee7f5874cb(SB)
	0x001d 00029 (/usr/local/go/test/codegen/mathbits.go:645)	XORPS	X0, X0
	0x0020 00032 (/usr/local/go/test/codegen/mathbits.go:645)	MOVUPS	X0, "".~r2+64(SP)
	0x0025 00037 (/usr/local/go/test/codegen/mathbits.go:648)	MOVQ	"".a+32(SP), AX
	0x002a 00042 (/usr/local/go/test/codegen/mathbits.go:648)	MOVQ	"".b+48(SP), CX
	0x002f 00047 (/usr/local/go/test/codegen/mathbits.go:648)	SUBQ	CX, AX
	0x0032 00050 (/usr/local/go/test/codegen/mathbits.go:649)	MOVQ	"".a+40(SP), CX
	0x0037 00055 (/usr/local/go/test/codegen/mathbits.go:649)	MOVQ	"".b+56(SP), DX
	0x003c 00060 (/usr/local/go/test/codegen/mathbits.go:649)	SBBQ	DX, CX
	0x003f 00063 (/usr/local/go/test/codegen/mathbits.go:649)	SBBQ	DX, DX
	0x0042 00066 (/usr/local/go/test/codegen/mathbits.go:649)	NEGQ	DX
	0x0045 00069 (/usr/local/go/test/codegen/mathbits.go:651)	CMPQ	DX, $1
	0x0049 00073 (/usr/local/go/test/codegen/mathbits.go:651)	JEQ	95
	0x004b 00075 (/usr/local/go/test/codegen/mathbits.go:654)	MOVQ	AX, "".~r2+64(SP)
	0x0050 00080 (/usr/local/go/test/codegen/mathbits.go:654)	MOVQ	CX, "".~r2+72(SP)
	0x0055 00085 (/usr/local/go/test/codegen/mathbits.go:654)	MOVQ	16(SP), BP
	0x005a 00090 (/usr/local/go/test/codegen/mathbits.go:654)	ADDQ	$24, SP
	0x005e 00094 (/usr/local/go/test/codegen/mathbits.go:654)	RET
	0x005f 00095 (/usr/local/go/test/codegen/mathbits.go:652)	LEAQ	type.string(SB), AX
	0x0066 00102 (/usr/local/go/test/codegen/mathbits.go:652)	MOVQ	AX, (SP)
	0x006a 00106 (/usr/local/go/test/codegen/mathbits.go:652)	LEAQ	""..stmp_9(SB), AX
	0x0071 00113 (/usr/local/go/test/codegen/mathbits.go:652)	MOVQ	AX, 8(SP)
	0x0076 00118 (/usr/local/go/test/codegen/mathbits.go:652)	PCDATA	$1, $0
	0x0076 00118 (/usr/local/go/test/codegen/mathbits.go:652)	CALL	runtime.gopanic(SB)
	0x007b 00123 (/usr/local/go/test/codegen/mathbits.go:652)	XCHGL	AX, AX
	0x007c 00124 (/usr/local/go/test/codegen/mathbits.go:652)	NOP
	0x007c 00124 (/usr/local/go/test/codegen/mathbits.go:645)	PCDATA	$1, $-1
	0x007c 00124 (/usr/local/go/test/codegen/mathbits.go:645)	PCDATA	$0, $-2
	0x007c 00124 (/usr/local/go/test/codegen/mathbits.go:645)	NOP
	0x0080 00128 (/usr/local/go/test/codegen/mathbits.go:645)	CALL	runtime.morestack_noctxt(SB)
	0x0085 00133 (/usr/local/go/test/codegen/mathbits.go:645)	PCDATA	$0, $-1
	0x0085 00133 (/usr/local/go/test/codegen/mathbits.go:645)	JMP	0
	0x0000 64 48 8b 0c 25 00 00 00 00 48 3b 61 10 76 71 48  dH..%....H;a.vqH
	0x0010 83 ec 18 48 89 6c 24 10 48 8d 6c 24 10 0f 57 c0  ...H.l$.H.l$..W.
	0x0020 0f 11 44 24 40 48 8b 44 24 20 48 8b 4c 24 30 48  ..D$@H.D$ H.L$0H
	0x0030 29 c8 48 8b 4c 24 28 48 8b 54 24 38 48 19 d1 48  ).H.L$(H.T$8H..H
	0x0040 19 d2 48 f7 da 48 83 fa 01 74 14 48 89 44 24 40  ..H..H...t.H.D$@
	0x0050 48 89 4c 24 48 48 8b 6c 24 10 48 83 c4 18 c3 48  H.L$HH.l$.H....H
	0x0060 8d 05 00 00 00 00 48 89 04 24 48 8d 05 00 00 00  ......H..$H.....
	0x0070 00 48 89 44 24 08 e8 00 00 00 00 90 0f 1f 40 00  .H.D$.........@.
	0x0080 e8 00 00 00 00 e9 76 ff ff ff                    ......v...
	rel 5+4 t=17 TLS+0
	rel 98+4 t=16 type.string+0
	rel 109+4 t=16 ""..stmp_9+0
	rel 119+4 t=8 runtime.gopanic+0
	rel 129+4 t=8 runtime.morestack_noctxt+0
"".Sub64MPanicOnOverflowNE STEXT size=138 args=0x30 locals=0x18
	0x0000 00000 (/usr/local/go/test/codegen/mathbits.go:657)	TEXT	"".Sub64MPanicOnOverflowNE(SB), ABIInternal, $24-48
	0x0000 00000 (/usr/local/go/test/codegen/mathbits.go:657)	MOVQ	(TLS), CX
	0x0009 00009 (/usr/local/go/test/codegen/mathbits.go:657)	CMPQ	SP, 16(CX)
	0x000d 00013 (/usr/local/go/test/codegen/mathbits.go:657)	PCDATA	$0, $-2
	0x000d 00013 (/usr/local/go/test/codegen/mathbits.go:657)	JLS	128
	0x000f 00015 (/usr/local/go/test/codegen/mathbits.go:657)	PCDATA	$0, $-1
	0x000f 00015 (/usr/local/go/test/codegen/mathbits.go:657)	SUBQ	$24, SP
	0x0013 00019 (/usr/local/go/test/codegen/mathbits.go:657)	MOVQ	BP, 16(SP)
	0x0018 00024 (/usr/local/go/test/codegen/mathbits.go:657)	LEAQ	16(SP), BP
	0x001d 00029 (/usr/local/go/test/codegen/mathbits.go:657)	FUNCDATA	$0, gclocals·33cdeccccebe80329f1fdbee7f5874cb(SB)
	0x001d 00029 (/usr/local/go/test/codegen/mathbits.go:657)	FUNCDATA	$1, gclocals·33cdeccccebe80329f1fdbee7f5874cb(SB)
	0x001d 00029 (/usr/local/go/test/codegen/mathbits.go:657)	XORPS	X0, X0
	0x0020 00032 (/usr/local/go/test/codegen/mathbits.go:657)	MOVUPS	X0, "".~r2+64(SP)
	0x0025 00037 (/usr/local/go/test/codegen/mathbits.go:660)	MOVQ	"".a+32(SP), AX
	0x002a 00042 (/usr/local/go/test/codegen/mathbits.go:660)	MOVQ	"".b+48(SP), CX
	0x002f 00047 (/usr/local/go/test/codegen/mathbits.go:660)	SUBQ	CX, AX
	0x0032 00050 (/usr/local/go/test/codegen/mathbits.go:661)	MOVQ	"".a+40(SP), CX
	0x0037 00055 (/usr/local/go/test/codegen/mathbits.go:661)	MOVQ	"".b+56(SP), DX
	0x003c 00060 (/usr/local/go/test/codegen/mathbits.go:661)	SBBQ	DX, CX
	0x003f 00063 (/usr/local/go/test/codegen/mathbits.go:661)	SBBQ	DX, DX
	0x0042 00066 (/usr/local/go/test/codegen/mathbits.go:661)	NEGQ	DX
	0x0045 00069 (/usr/local/go/test/codegen/mathbits.go:663)	TESTQ	DX, DX
	0x0048 00072 (/usr/local/go/test/codegen/mathbits.go:663)	JNE	94
	0x004a 00074 (/usr/local/go/test/codegen/mathbits.go:666)	MOVQ	AX, "".~r2+64(SP)
	0x004f 00079 (/usr/local/go/test/codegen/mathbits.go:666)	MOVQ	CX, "".~r2+72(SP)
	0x0054 00084 (/usr/local/go/test/codegen/mathbits.go:666)	MOVQ	16(SP), BP
	0x0059 00089 (/usr/local/go/test/codegen/mathbits.go:666)	ADDQ	$24, SP
	0x005d 00093 (/usr/local/go/test/codegen/mathbits.go:666)	RET
	0x005e 00094 (/usr/local/go/test/codegen/mathbits.go:664)	LEAQ	type.string(SB), AX
	0x0065 00101 (/usr/local/go/test/codegen/mathbits.go:664)	MOVQ	AX, (SP)
	0x0069 00105 (/usr/local/go/test/codegen/mathbits.go:664)	LEAQ	""..stmp_10(SB), AX
	0x0070 00112 (/usr/local/go/test/codegen/mathbits.go:664)	MOVQ	AX, 8(SP)
	0x0075 00117 (/usr/local/go/test/codegen/mathbits.go:664)	PCDATA	$1, $0
	0x0075 00117 (/usr/local/go/test/codegen/mathbits.go:664)	CALL	runtime.gopanic(SB)
	0x007a 00122 (/usr/local/go/test/codegen/mathbits.go:664)	XCHGL	AX, AX
	0x007b 00123 (/usr/local/go/test/codegen/mathbits.go:664)	NOP
	0x007b 00123 (/usr/local/go/test/codegen/mathbits.go:657)	PCDATA	$1, $-1
	0x007b 00123 (/usr/local/go/test/codegen/mathbits.go:657)	PCDATA	$0, $-2
	0x007b 00123 (/usr/local/go/test/codegen/mathbits.go:657)	NOP
	0x0080 00128 (/usr/local/go/test/codegen/mathbits.go:657)	CALL	runtime.morestack_noctxt(SB)
	0x0085 00133 (/usr/local/go/test/codegen/mathbits.go:657)	PCDATA	$0, $-1
	0x0085 00133 (/usr/local/go/test/codegen/mathbits.go:657)	JMP	0
	0x0000 64 48 8b 0c 25 00 00 00 00 48 3b 61 10 76 71 48  dH..%....H;a.vqH
	0x0010 83 ec 18 48 89 6c 24 10 48 8d 6c 24 10 0f 57 c0  ...H.l$.H.l$..W.
	0x0020 0f 11 44 24 40 48 8b 44 24 20 48 8b 4c 24 30 48  ..D$@H.D$ H.L$0H
	0x0030 29 c8 48 8b 4c 24 28 48 8b 54 24 38 48 19 d1 48  ).H.L$(H.T$8H..H
	0x0040 19 d2 48 f7 da 48 85 d2 75 14 48 89 44 24 40 48  ..H..H..u.H.D$@H
	0x0050 89 4c 24 48 48 8b 6c 24 10 48 83 c4 18 c3 48 8d  .L$HH.l$.H....H.
	0x0060 05 00 00 00 00 48 89 04 24 48 8d 05 00 00 00 00  .....H..$H......
	0x0070 48 89 44 24 08 e8 00 00 00 00 90 0f 1f 44 00 00  H.D$.........D..
	0x0080 e8 00 00 00 00 e9 76 ff ff ff                    ......v...
	rel 5+4 t=17 TLS+0
	rel 97+4 t=16 type.string+0
	rel 108+4 t=16 ""..stmp_10+0
	rel 118+4 t=8 runtime.gopanic+0
	rel 129+4 t=8 runtime.morestack_noctxt+0
"".Sub64MPanicOnOverflowGT STEXT size=138 args=0x30 locals=0x18
	0x0000 00000 (/usr/local/go/test/codegen/mathbits.go:669)	TEXT	"".Sub64MPanicOnOverflowGT(SB), ABIInternal, $24-48
	0x0000 00000 (/usr/local/go/test/codegen/mathbits.go:669)	MOVQ	(TLS), CX
	0x0009 00009 (/usr/local/go/test/codegen/mathbits.go:669)	CMPQ	SP, 16(CX)
	0x000d 00013 (/usr/local/go/test/codegen/mathbits.go:669)	PCDATA	$0, $-2
	0x000d 00013 (/usr/local/go/test/codegen/mathbits.go:669)	JLS	128
	0x000f 00015 (/usr/local/go/test/codegen/mathbits.go:669)	PCDATA	$0, $-1
	0x000f 00015 (/usr/local/go/test/codegen/mathbits.go:669)	SUBQ	$24, SP
	0x0013 00019 (/usr/local/go/test/codegen/mathbits.go:669)	MOVQ	BP, 16(SP)
	0x0018 00024 (/usr/local/go/test/codegen/mathbits.go:669)	LEAQ	16(SP), BP
	0x001d 00029 (/usr/local/go/test/codegen/mathbits.go:669)	FUNCDATA	$0, gclocals·33cdeccccebe80329f1fdbee7f5874cb(SB)
	0x001d 00029 (/usr/local/go/test/codegen/mathbits.go:669)	FUNCDATA	$1, gclocals·33cdeccccebe80329f1fdbee7f5874cb(SB)
	0x001d 00029 (/usr/local/go/test/codegen/mathbits.go:669)	XORPS	X0, X0
	0x0020 00032 (/usr/local/go/test/codegen/mathbits.go:669)	MOVUPS	X0, "".~r2+64(SP)
	0x0025 00037 (/usr/local/go/test/codegen/mathbits.go:672)	MOVQ	"".a+32(SP), AX
	0x002a 00042 (/usr/local/go/test/codegen/mathbits.go:672)	MOVQ	"".b+48(SP), CX
	0x002f 00047 (/usr/local/go/test/codegen/mathbits.go:672)	SUBQ	CX, AX
	0x0032 00050 (/usr/local/go/test/codegen/mathbits.go:673)	MOVQ	"".a+40(SP), CX
	0x0037 00055 (/usr/local/go/test/codegen/mathbits.go:673)	MOVQ	"".b+56(SP), DX
	0x003c 00060 (/usr/local/go/test/codegen/mathbits.go:673)	SBBQ	DX, CX
	0x003f 00063 (/usr/local/go/test/codegen/mathbits.go:673)	SBBQ	DX, DX
	0x0042 00066 (/usr/local/go/test/codegen/mathbits.go:673)	NEGQ	DX
	0x0045 00069 (/usr/local/go/test/codegen/mathbits.go:675)	TESTQ	DX, DX
	0x0048 00072 (/usr/local/go/test/codegen/mathbits.go:675)	JHI	94
	0x004a 00074 (/usr/local/go/test/codegen/mathbits.go:678)	MOVQ	AX, "".~r2+64(SP)
	0x004f 00079 (/usr/local/go/test/codegen/mathbits.go:678)	MOVQ	CX, "".~r2+72(SP)
	0x0054 00084 (/usr/local/go/test/codegen/mathbits.go:678)	MOVQ	16(SP), BP
	0x0059 00089 (/usr/local/go/test/codegen/mathbits.go:678)	ADDQ	$24, SP
	0x005d 00093 (/usr/local/go/test/codegen/mathbits.go:678)	RET
	0x005e 00094 (/usr/local/go/test/codegen/mathbits.go:676)	LEAQ	type.string(SB), AX
	0x0065 00101 (/usr/local/go/test/codegen/mathbits.go:676)	MOVQ	AX, (SP)
	0x0069 00105 (/usr/local/go/test/codegen/mathbits.go:676)	LEAQ	""..stmp_11(SB), AX
	0x0070 00112 (/usr/local/go/test/codegen/mathbits.go:676)	MOVQ	AX, 8(SP)
	0x0075 00117 (/usr/local/go/test/codegen/mathbits.go:676)	PCDATA	$1, $0
	0x0075 00117 (/usr/local/go/test/codegen/mathbits.go:676)	CALL	runtime.gopanic(SB)
	0x007a 00122 (/usr/local/go/test/codegen/mathbits.go:676)	XCHGL	AX, AX
	0x007b 00123 (/usr/local/go/test/codegen/mathbits.go:676)	NOP
	0x007b 00123 (/usr/local/go/test/codegen/mathbits.go:669)	PCDATA	$1, $-1
	0x007b 00123 (/usr/local/go/test/codegen/mathbits.go:669)	PCDATA	$0, $-2
	0x007b 00123 (/usr/local/go/test/codegen/mathbits.go:669)	NOP
	0x0080 00128 (/usr/local/go/test/codegen/mathbits.go:669)	CALL	runtime.morestack_noctxt(SB)
	0x0085 00133 (/usr/local/go/test/codegen/mathbits.go:669)	PCDATA	$0, $-1
	0x0085 00133 (/usr/local/go/test/codegen/mathbits.go:669)	JMP	0
	0x0000 64 48 8b 0c 25 00 00 00 00 48 3b 61 10 76 71 48  dH..%....H;a.vqH
	0x0010 83 ec 18 48 89 6c 24 10 48 8d 6c 24 10 0f 57 c0  ...H.l$.H.l$..W.
	0x0020 0f 11 44 24 40 48 8b 44 24 20 48 8b 4c 24 30 48  ..D$@H.D$ H.L$0H
	0x0030 29 c8 48 8b 4c 24 28 48 8b 54 24 38 48 19 d1 48  ).H.L$(H.T$8H..H
	0x0040 19 d2 48 f7 da 48 85 d2 77 14 48 89 44 24 40 48  ..H..H..w.H.D$@H
	0x0050 89 4c 24 48 48 8b 6c 24 10 48 83 c4 18 c3 48 8d  .L$HH.l$.H....H.
	0x0060 05 00 00 00 00 48 89 04 24 48 8d 05 00 00 00 00  .....H..$H......
	0x0070 48 89 44 24 08 e8 00 00 00 00 90 0f 1f 44 00 00  H.D$.........D..
	0x0080 e8 00 00 00 00 e9 76 ff ff ff                    ......v...
	rel 5+4 t=17 TLS+0
	rel 97+4 t=16 type.string+0
	rel 108+4 t=16 ""..stmp_11+0
	rel 118+4 t=8 runtime.gopanic+0
	rel 129+4 t=8 runtime.morestack_noctxt+0
"".Mul STEXT nosplit size=24 args=0x20 locals=0x0
	0x0000 00000 (/usr/local/go/test/codegen/mathbits.go:685)	TEXT	"".Mul(SB), NOSPLIT|ABIInternal, $0-32
	0x0000 00000 (/usr/local/go/test/codegen/mathbits.go:685)	FUNCDATA	$0, gclocals·33cdeccccebe80329f1fdbee7f5874cb(SB)
	0x0000 00000 (/usr/local/go/test/codegen/mathbits.go:685)	FUNCDATA	$1, gclocals·33cdeccccebe80329f1fdbee7f5874cb(SB)
	0x0000 00000 (/usr/local/go/test/codegen/mathbits.go:692)	MOVQ	"".x+8(SP), AX
	0x0005 00005 (/usr/local/go/test/codegen/mathbits.go:692)	MOVQ	"".y+16(SP), CX
	0x000a 00010 (/usr/local/go/test/codegen/mathbits.go:692)	MULQ	CX
	0x000d 00013 (/usr/local/go/test/codegen/mathbits.go:692)	MOVQ	DX, "".hi+24(SP)
	0x0012 00018 (/usr/local/go/test/codegen/mathbits.go:692)	MOVQ	AX, "".lo+32(SP)
	0x0017 00023 (/usr/local/go/test/codegen/mathbits.go:692)	RET
	0x0000 48 8b 44 24 08 48 8b 4c 24 10 48 f7 e1 48 89 54  H.D$.H.L$.H..H.T
	0x0010 24 18 48 89 44 24 20 c3                          $.H.D$ .
"".Mul64 STEXT nosplit size=24 args=0x20 locals=0x0
	0x0000 00000 (/usr/local/go/test/codegen/mathbits.go:695)	TEXT	"".Mul64(SB), NOSPLIT|ABIInternal, $0-32
	0x0000 00000 (/usr/local/go/test/codegen/mathbits.go:695)	FUNCDATA	$0, gclocals·33cdeccccebe80329f1fdbee7f5874cb(SB)
	0x0000 00000 (/usr/local/go/test/codegen/mathbits.go:695)	FUNCDATA	$1, gclocals·33cdeccccebe80329f1fdbee7f5874cb(SB)
	0x0000 00000 (/usr/local/go/test/codegen/mathbits.go:702)	MOVQ	"".x+8(SP), AX
	0x0005 00005 (/usr/local/go/test/codegen/mathbits.go:702)	MOVQ	"".y+16(SP), CX
	0x000a 00010 (/usr/local/go/test/codegen/mathbits.go:702)	MULQ	CX
	0x000d 00013 (/usr/local/go/test/codegen/mathbits.go:702)	MOVQ	DX, "".hi+24(SP)
	0x0012 00018 (/usr/local/go/test/codegen/mathbits.go:702)	MOVQ	AX, "".lo+32(SP)
	0x0017 00023 (/usr/local/go/test/codegen/mathbits.go:702)	RET
	0x0000 48 8b 44 24 08 48 8b 4c 24 10 48 f7 e1 48 89 54  H.D$.H.L$.H..H.T
	0x0010 24 18 48 89 44 24 20 c3                          $.H.D$ .
"".Div STEXT size=92 args=0x28 locals=0x8
	0x0000 00000 (/usr/local/go/test/codegen/mathbits.go:709)	TEXT	"".Div(SB), ABIInternal, $8-40
	0x0000 00000 (/usr/local/go/test/codegen/mathbits.go:709)	MOVQ	(TLS), CX
	0x0009 00009 (/usr/local/go/test/codegen/mathbits.go:709)	CMPQ	SP, 16(CX)
	0x000d 00013 (/usr/local/go/test/codegen/mathbits.go:709)	PCDATA	$0, $-2
	0x000d 00013 (/usr/local/go/test/codegen/mathbits.go:709)	JLS	85
	0x000f 00015 (/usr/local/go/test/codegen/mathbits.go:709)	PCDATA	$0, $-1
	0x000f 00015 (/usr/local/go/test/codegen/mathbits.go:709)	SUBQ	$8, SP
	0x0013 00019 (/usr/local/go/test/codegen/mathbits.go:709)	MOVQ	BP, (SP)
	0x0017 00023 (/usr/local/go/test/codegen/mathbits.go:709)	LEAQ	(SP), BP
	0x001b 00027 (/usr/local/go/test/codegen/mathbits.go:709)	FUNCDATA	$0, gclocals·33cdeccccebe80329f1fdbee7f5874cb(SB)
	0x001b 00027 (/usr/local/go/test/codegen/mathbits.go:709)	FUNCDATA	$1, gclocals·33cdeccccebe80329f1fdbee7f5874cb(SB)
	0x001b 00027 (/usr/local/go/test/codegen/mathbits.go:711)	MOVQ	"".x+32(SP), CX
	0x0020 00032 (/usr/local/go/test/codegen/mathbits.go:711)	TESTQ	CX, CX
	0x0023 00035 (/usr/local/go/test/codegen/mathbits.go:711)	JEQ	79
	0x0025 00037 (/usr/local/go/test/codegen/mathbits.go:711)	MOVQ	"".hi+16(SP), DX
	0x002a 00042 (/usr/local/go/test/codegen/mathbits.go:711)	CMPQ	DX, CX
	0x002d 00045 (/usr/local/go/test/codegen/mathbits.go:711)	JCC	74
	0x002f 00047 (/usr/local/go/test/codegen/mathbits.go:711)	MOVQ	"".lo+24(SP), AX
	0x0034 00052 (/usr/local/go/test/codegen/mathbits.go:711)	DIVQ	CX
	0x0037 00055 (/usr/local/go/test/codegen/mathbits.go:711)	MOVQ	AX, "".q+40(SP)
	0x003c 00060 (/usr/local/go/test/codegen/mathbits.go:711)	MOVQ	DX, "".r+48(SP)
	0x0041 00065 (/usr/local/go/test/codegen/mathbits.go:711)	MOVQ	(SP), BP
	0x0045 00069 (/usr/local/go/test/codegen/mathbits.go:711)	ADDQ	$8, SP
	0x0049 00073 (/usr/local/go/test/codegen/mathbits.go:711)	RET
	0x004a 00074 (/usr/local/go/test/codegen/mathbits.go:711)	PCDATA	$1, $0
	0x004a 00074 (/usr/local/go/test/codegen/mathbits.go:711)	CALL	runtime.panicoverflow(SB)
	0x004f 00079 (/usr/local/go/test/codegen/mathbits.go:711)	CALL	runtime.panicdivide(SB)
	0x0054 00084 (/usr/local/go/test/codegen/mathbits.go:711)	XCHGL	AX, AX
	0x0055 00085 (/usr/local/go/test/codegen/mathbits.go:711)	NOP
	0x0055 00085 (/usr/local/go/test/codegen/mathbits.go:709)	PCDATA	$1, $-1
	0x0055 00085 (/usr/local/go/test/codegen/mathbits.go:709)	PCDATA	$0, $-2
	0x0055 00085 (/usr/local/go/test/codegen/mathbits.go:709)	CALL	runtime.morestack_noctxt(SB)
	0x005a 00090 (/usr/local/go/test/codegen/mathbits.go:709)	PCDATA	$0, $-1
	0x005a 00090 (/usr/local/go/test/codegen/mathbits.go:709)	JMP	0
	0x0000 64 48 8b 0c 25 00 00 00 00 48 3b 61 10 76 46 48  dH..%....H;a.vFH
	0x0010 83 ec 08 48 89 2c 24 48 8d 2c 24 48 8b 4c 24 20  ...H.,$H.,$H.L$ 
	0x0020 48 85 c9 74 2a 48 8b 54 24 10 48 39 ca 73 1b 48  H..t*H.T$.H9.s.H
	0x0030 8b 44 24 18 48 f7 f1 48 89 44 24 28 48 89 54 24  .D$.H..H.D$(H.T$
	0x0040 30 48 8b 2c 24 48 83 c4 08 c3 e8 00 00 00 00 e8  0H.,$H..........
	0x0050 00 00 00 00 90 e8 00 00 00 00 eb a4              ............
	rel 5+4 t=17 TLS+0
	rel 75+4 t=8 runtime.panicoverflow+0
	rel 80+4 t=8 runtime.panicdivide+0
	rel 86+4 t=8 runtime.morestack_noctxt+0
"".Div32 STEXT size=145 args=0x18 locals=0x18
	0x0000 00000 (/usr/local/go/test/codegen/mathbits.go:714)	TEXT	"".Div32(SB), ABIInternal, $24-24
	0x0000 00000 (/usr/local/go/test/codegen/mathbits.go:714)	MOVQ	(TLS), CX
	0x0009 00009 (/usr/local/go/test/codegen/mathbits.go:714)	CMPQ	SP, 16(CX)
	0x000d 00013 (/usr/local/go/test/codegen/mathbits.go:714)	PCDATA	$0, $-2
	0x000d 00013 (/usr/local/go/test/codegen/mathbits.go:714)	JLS	135
	0x000f 00015 (/usr/local/go/test/codegen/mathbits.go:714)	PCDATA	$0, $-1
	0x000f 00015 (/usr/local/go/test/codegen/mathbits.go:714)	SUBQ	$24, SP
	0x0013 00019 (/usr/local/go/test/codegen/mathbits.go:714)	MOVQ	BP, 16(SP)
	0x0018 00024 (/usr/local/go/test/codegen/mathbits.go:714)	LEAQ	16(SP), BP
	0x001d 00029 (/usr/local/go/test/codegen/mathbits.go:714)	FUNCDATA	$0, gclocals·33cdeccccebe80329f1fdbee7f5874cb(SB)
	0x001d 00029 (/usr/local/go/test/codegen/mathbits.go:714)	FUNCDATA	$1, gclocals·33cdeccccebe80329f1fdbee7f5874cb(SB)
	0x001d 00029 (<unknown line number>)	NOP
	0x001d 00029 (/usr/local/go/test/codegen/mathbits.go:716)	MOVL	"".x+40(SP), CX
	0x0021 00033 (/usr/local/go/test/codegen/mathbits.go:716)	TESTL	CX, CX
	0x0023 00035 (/usr/local/go/test/codegen/mathbits.go:716)	JEQ	84
	0x0025 00037 (/usr/local/go/test/codegen/mathbits.go:716)	MOVL	"".hi+32(SP), AX
	0x0029 00041 (/usr/local/go/test/codegen/mathbits.go:716)	CMPL	AX, CX
	0x002b 00043 (/usr/local/go/test/codegen/mathbits.go:716)	JCC	90
	0x002d 00045 (/usr/local/go/test/codegen/mathbits.go:716)	SHLQ	$32, AX
	0x0031 00049 (/usr/local/go/test/codegen/mathbits.go:716)	MOVL	"".lo+36(SP), DX
	0x0035 00053 (/usr/local/go/test/codegen/mathbits.go:716)	ORQ	DX, AX
	0x0038 00056 (/usr/local/go/test/codegen/mathbits.go:716)	TESTQ	CX, CX
	0x003b 00059 (/usr/local/go/test/codegen/mathbits.go:716)	JEQ	115
	0x003d 00061 (/usr/local/go/test/codegen/mathbits.go:716)	XORL	DX, DX
	0x003f 00063 (/usr/local/go/test/codegen/mathbits.go:716)	DIVQ	CX
	0x0042 00066 (/usr/local/go/test/codegen/mathbits.go:716)	MOVL	AX, "".q+48(SP)
	0x0046 00070 (/usr/local/go/test/codegen/mathbits.go:716)	MOVL	DX, "".r+52(SP)
	0x004a 00074 (/usr/local/go/test/codegen/mathbits.go:716)	MOVQ	16(SP), BP
	0x004f 00079 (/usr/local/go/test/codegen/mathbits.go:716)	ADDQ	$24, SP
	0x0053 00083 (/usr/local/go/test/codegen/mathbits.go:716)	RET
	0x0054 00084 (/usr/local/go/test/codegen/mathbits.go:716)	MOVL	"".hi+32(SP), AX
	0x0058 00088 (/usr/local/go/test/codegen/mathbits.go:716)	JMP	45
	0x005a 00090 (/usr/local/go/test/codegen/mathbits.go:716)	MOVQ	runtime.overflowError(SB), AX
	0x0061 00097 (/usr/local/go/test/codegen/mathbits.go:716)	MOVQ	runtime.overflowError+8(SB), CX
	0x0068 00104 (/usr/local/go/test/codegen/mathbits.go:716)	TESTQ	AX, AX
	0x006b 00107 (/usr/local/go/test/codegen/mathbits.go:716)	JEQ	120
	0x006d 00109 (/usr/local/go/test/codegen/mathbits.go:716)	MOVQ	8(AX), AX
	0x0071 00113 (/usr/local/go/test/codegen/mathbits.go:716)	JMP	120
	0x0073 00115 (/usr/local/go/test/codegen/mathbits.go:716)	PCDATA	$1, $0
	0x0073 00115 (/usr/local/go/test/codegen/mathbits.go:716)	CALL	runtime.panicdivide(SB)
	0x0078 00120 (/usr/local/go/test/codegen/mathbits.go:716)	MOVQ	AX, (SP)
	0x007c 00124 (/usr/local/go/test/codegen/mathbits.go:716)	MOVQ	CX, 8(SP)
	0x0081 00129 (/usr/local/go/test/codegen/mathbits.go:716)	CALL	runtime.gopanic(SB)
	0x0086 00134 (/usr/local/go/test/codegen/mathbits.go:716)	XCHGL	AX, AX
	0x0087 00135 (/usr/local/go/test/codegen/mathbits.go:716)	NOP
	0x0087 00135 (/usr/local/go/test/codegen/mathbits.go:714)	PCDATA	$1, $-1
	0x0087 00135 (/usr/local/go/test/codegen/mathbits.go:714)	PCDATA	$0, $-2
	0x0087 00135 (/usr/local/go/test/codegen/mathbits.go:714)	CALL	runtime.morestack_noctxt(SB)
	0x008c 00140 (/usr/local/go/test/codegen/mathbits.go:714)	PCDATA	$0, $-1
	0x008c 00140 (/usr/local/go/test/codegen/mathbits.go:714)	JMP	0
	0x0000 64 48 8b 0c 25 00 00 00 00 48 3b 61 10 76 78 48  dH..%....H;a.vxH
	0x0010 83 ec 18 48 89 6c 24 10 48 8d 6c 24 10 8b 4c 24  ...H.l$.H.l$..L$
	0x0020 28 85 c9 74 2f 8b 44 24 20 39 c8 73 2d 48 c1 e0  (..t/.D$ 9.s-H..
	0x0030 20 8b 54 24 24 48 09 d0 48 85 c9 74 36 31 d2 48   .T$$H..H..t61.H
	0x0040 f7 f1 89 44 24 30 89 54 24 34 48 8b 6c 24 10 48  ...D$0.T$4H.l$.H
	0x0050 83 c4 18 c3 8b 44 24 20 eb d3 48 8b 05 00 00 00  .....D$ ..H.....
	0x0060 00 48 8b 0d 00 00 00 00 48 85 c0 74 0b 48 8b 40  .H......H..t.H.@
	0x0070 08 eb 05 e8 00 00 00 00 48 89 04 24 48 89 4c 24  ........H..$H.L$
	0x0080 08 e8 00 00 00 00 90 e8 00 00 00 00 e9 6f ff ff  .............o..
	0x0090 ff                                               .
	rel 5+4 t=17 TLS+0
	rel 93+4 t=16 runtime.overflowError+0
	rel 100+4 t=16 runtime.overflowError+8
	rel 116+4 t=8 runtime.panicdivide+0
	rel 130+4 t=8 runtime.gopanic+0
	rel 136+4 t=8 runtime.morestack_noctxt+0
"".Div64 STEXT size=92 args=0x28 locals=0x8
	0x0000 00000 (/usr/local/go/test/codegen/mathbits.go:719)	TEXT	"".Div64(SB), ABIInternal, $8-40
	0x0000 00000 (/usr/local/go/test/codegen/mathbits.go:719)	MOVQ	(TLS), CX
	0x0009 00009 (/usr/local/go/test/codegen/mathbits.go:719)	CMPQ	SP, 16(CX)
	0x000d 00013 (/usr/local/go/test/codegen/mathbits.go:719)	PCDATA	$0, $-2
	0x000d 00013 (/usr/local/go/test/codegen/mathbits.go:719)	JLS	85
	0x000f 00015 (/usr/local/go/test/codegen/mathbits.go:719)	PCDATA	$0, $-1
	0x000f 00015 (/usr/local/go/test/codegen/mathbits.go:719)	SUBQ	$8, SP
	0x0013 00019 (/usr/local/go/test/codegen/mathbits.go:719)	MOVQ	BP, (SP)
	0x0017 00023 (/usr/local/go/test/codegen/mathbits.go:719)	LEAQ	(SP), BP
	0x001b 00027 (/usr/local/go/test/codegen/mathbits.go:719)	FUNCDATA	$0, gclocals·33cdeccccebe80329f1fdbee7f5874cb(SB)
	0x001b 00027 (/usr/local/go/test/codegen/mathbits.go:719)	FUNCDATA	$1, gclocals·33cdeccccebe80329f1fdbee7f5874cb(SB)
	0x001b 00027 (/usr/local/go/test/codegen/mathbits.go:721)	MOVQ	"".x+32(SP), CX
	0x0020 00032 (/usr/local/go/test/codegen/mathbits.go:721)	TESTQ	CX, CX
	0x0023 00035 (/usr/local/go/test/codegen/mathbits.go:721)	JEQ	79
	0x0025 00037 (/usr/local/go/test/codegen/mathbits.go:721)	MOVQ	"".hi+16(SP), DX
	0x002a 00042 (/usr/local/go/test/codegen/mathbits.go:721)	CMPQ	DX, CX
	0x002d 00045 (/usr/local/go/test/codegen/mathbits.go:721)	JCC	74
	0x002f 00047 (/usr/local/go/test/codegen/mathbits.go:721)	MOVQ	"".lo+24(SP), AX
	0x0034 00052 (/usr/local/go/test/codegen/mathbits.go:721)	DIVQ	CX
	0x0037 00055 (/usr/local/go/test/codegen/mathbits.go:721)	MOVQ	AX, "".q+40(SP)
	0x003c 00060 (/usr/local/go/test/codegen/mathbits.go:721)	MOVQ	DX, "".r+48(SP)
	0x0041 00065 (/usr/local/go/test/codegen/mathbits.go:721)	MOVQ	(SP), BP
	0x0045 00069 (/usr/local/go/test/codegen/mathbits.go:721)	ADDQ	$8, SP
	0x0049 00073 (/usr/local/go/test/codegen/mathbits.go:721)	RET
	0x004a 00074 (/usr/local/go/test/codegen/mathbits.go:721)	PCDATA	$1, $0
	0x004a 00074 (/usr/local/go/test/codegen/mathbits.go:721)	CALL	runtime.panicoverflow(SB)
	0x004f 00079 (/usr/local/go/test/codegen/mathbits.go:721)	CALL	runtime.panicdivide(SB)
	0x0054 00084 (/usr/local/go/test/codegen/mathbits.go:721)	XCHGL	AX, AX
	0x0055 00085 (/usr/local/go/test/codegen/mathbits.go:721)	NOP
	0x0055 00085 (/usr/local/go/test/codegen/mathbits.go:719)	PCDATA	$1, $-1
	0x0055 00085 (/usr/local/go/test/codegen/mathbits.go:719)	PCDATA	$0, $-2
	0x0055 00085 (/usr/local/go/test/codegen/mathbits.go:719)	CALL	runtime.morestack_noctxt(SB)
	0x005a 00090 (/usr/local/go/test/codegen/mathbits.go:719)	PCDATA	$0, $-1
	0x005a 00090 (/usr/local/go/test/codegen/mathbits.go:719)	JMP	0
	0x0000 64 48 8b 0c 25 00 00 00 00 48 3b 61 10 76 46 48  dH..%....H;a.vFH
	0x0010 83 ec 08 48 89 2c 24 48 8d 2c 24 48 8b 4c 24 20  ...H.,$H.,$H.L$ 
	0x0020 48 85 c9 74 2a 48 8b 54 24 10 48 39 ca 73 1b 48  H..t*H.T$.H9.s.H
	0x0030 8b 44 24 18 48 f7 f1 48 89 44 24 28 48 89 54 24  .D$.H..H.D$(H.T$
	0x0040 30 48 8b 2c 24 48 83 c4 08 c3 e8 00 00 00 00 e8  0H.,$H..........
	0x0050 00 00 00 00 90 e8 00 00 00 00 eb a4              ............
	rel 5+4 t=17 TLS+0
	rel 75+4 t=8 runtime.panicoverflow+0
	rel 80+4 t=8 runtime.panicdivide+0
	rel 86+4 t=8 runtime.morestack_noctxt+0
"".Div64degenerate STEXT nosplit size=40 args=0x18 locals=0x0
	0x0000 00000 (/usr/local/go/test/codegen/mathbits.go:724)	TEXT	"".Div64degenerate(SB), NOSPLIT|ABIInternal, $0-24
	0x0000 00000 (/usr/local/go/test/codegen/mathbits.go:724)	FUNCDATA	$0, gclocals·33cdeccccebe80329f1fdbee7f5874cb(SB)
	0x0000 00000 (/usr/local/go/test/codegen/mathbits.go:724)	FUNCDATA	$1, gclocals·33cdeccccebe80329f1fdbee7f5874cb(SB)
	0x0000 00000 (/usr/local/go/test/codegen/mathbits.go:726)	MOVQ	$-3689348814741910323, AX
	0x000a 00010 (/usr/local/go/test/codegen/mathbits.go:726)	MOVQ	"".x+8(SP), CX
	0x000f 00015 (/usr/local/go/test/codegen/mathbits.go:726)	MULQ	CX
	0x0012 00018 (/usr/local/go/test/codegen/mathbits.go:726)	SHRQ	$2, DX
	0x0016 00022 (/usr/local/go/test/codegen/mathbits.go:726)	MOVQ	DX, "".q+16(SP)
	0x001b 00027 (/usr/local/go/test/codegen/mathbits.go:726)	LEAQ	(DX)(DX*4), DX
	0x001f 00031 (/usr/local/go/test/codegen/mathbits.go:726)	SUBQ	DX, CX
	0x0022 00034 (/usr/local/go/test/codegen/mathbits.go:726)	MOVQ	CX, "".r+24(SP)
	0x0027 00039 (/usr/local/go/test/codegen/mathbits.go:726)	RET
	0x0000 48 b8 cd cc cc cc cc cc cc cc 48 8b 4c 24 08 48  H.........H.L$.H
	0x0010 f7 e1 48 c1 ea 02 48 89 54 24 10 48 8d 14 92 48  ..H...H.T$.H...H
	0x0020 29 d1 48 89 4c 24 18 c3                          ).H.L$..
go.cuinfo.packagename.command-line-arguments SDWARFINFO dupok size=0
	0x0000 63 6f 64 65 67 65 6e                             codegen
go.info.math/bits.LeadingZeros$abstract SDWARFINFO dupok size=35
	0x0000 04 6d 61 74 68 2f 62 69 74 73 2e 4c 65 61 64 69  .math/bits.Leadi
	0x0010 6e 67 5a 65 72 6f 73 00 01 01 11 78 00 00 00 00  ngZeros....x....
	0x0020 00 00 00                                         ...
	rel 0+0 t=24 type.uint+0
	rel 30+4 t=29 go.info.uint+0
go.info.math/bits.LeadingZeros64$abstract SDWARFINFO dupok size=37
	0x0000 04 6d 61 74 68 2f 62 69 74 73 2e 4c 65 61 64 69  .math/bits.Leadi
	0x0010 6e 67 5a 65 72 6f 73 36 34 00 01 01 11 78 00 00  ngZeros64....x..
	0x0020 00 00 00 00 00                                   .....
	rel 0+0 t=24 type.uint64+0
	rel 32+4 t=29 go.info.uint64+0
go.info.math/bits.LeadingZeros32$abstract SDWARFINFO dupok size=37
	0x0000 04 6d 61 74 68 2f 62 69 74 73 2e 4c 65 61 64 69  .math/bits.Leadi
	0x0010 6e 67 5a 65 72 6f 73 33 32 00 01 01 11 78 00 00  ngZeros32....x..
	0x0020 00 00 00 00 00                                   .....
	rel 0+0 t=24 type.uint32+0
	rel 32+4 t=29 go.info.uint32+0
go.info.math/bits.LeadingZeros16$abstract SDWARFINFO dupok size=37
	0x0000 04 6d 61 74 68 2f 62 69 74 73 2e 4c 65 61 64 69  .math/bits.Leadi
	0x0010 6e 67 5a 65 72 6f 73 31 36 00 01 01 11 78 00 00  ngZeros16....x..
	0x0020 00 00 00 00 00                                   .....
	rel 0+0 t=24 type.uint16+0
	rel 32+4 t=29 go.info.uint16+0
go.info.math/bits.LeadingZeros8$abstract SDWARFINFO dupok size=36
	0x0000 04 6d 61 74 68 2f 62 69 74 73 2e 4c 65 61 64 69  .math/bits.Leadi
	0x0010 6e 67 5a 65 72 6f 73 38 00 01 01 11 78 00 00 00  ngZeros8....x...
	0x0020 00 00 00 00                                      ....
	rel 0+0 t=24 type.uint8+0
	rel 31+4 t=29 go.info.uint8+0
go.info.math/bits.OnesCount8$abstract SDWARFINFO dupok size=33
	0x0000 04 6d 61 74 68 2f 62 69 74 73 2e 4f 6e 65 73 43  .math/bits.OnesC
	0x0010 6f 75 6e 74 38 00 01 01 11 78 00 00 00 00 00 00  ount8....x......
	0x0020 00                                               .
	rel 0+0 t=24 type.uint8+0
	rel 28+4 t=29 go.info.uint8+0
go.info.math/bits.ReverseBytes$abstract SDWARFINFO dupok size=35
	0x0000 04 6d 61 74 68 2f 62 69 74 73 2e 52 65 76 65 72  .math/bits.Rever
	0x0010 73 65 42 79 74 65 73 00 01 01 11 78 00 00 00 00  seBytes....x....
	0x0020 00 00 00                                         ...
	rel 0+0 t=24 type.uint+0
	rel 30+4 t=29 go.info.uint+0
go.info.math/bits.ReverseBytes16$abstract SDWARFINFO dupok size=37
	0x0000 04 6d 61 74 68 2f 62 69 74 73 2e 52 65 76 65 72  .math/bits.Rever
	0x0010 73 65 42 79 74 65 73 31 36 00 01 01 11 78 00 00  seBytes16....x..
	0x0020 00 00 00 00 00                                   .....
	rel 0+0 t=24 type.uint16+0
	rel 32+4 t=29 go.info.uint16+0
go.info.math/bits.TrailingZeros$abstract SDWARFINFO dupok size=36
	0x0000 04 6d 61 74 68 2f 62 69 74 73 2e 54 72 61 69 6c  .math/bits.Trail
	0x0010 69 6e 67 5a 65 72 6f 73 00 01 01 11 78 00 00 00  ingZeros....x...
	0x0020 00 00 00 00                                      ....
	rel 0+0 t=24 type.uint+0
	rel 31+4 t=29 go.info.uint+0
go.info.math/bits.Div32$abstract SDWARFINFO dupok size=75
	0x0000 04 6d 61 74 68 2f 62 69 74 73 2e 44 69 76 33 32  .math/bits.Div32
	0x0010 00 01 01 11 68 69 00 00 00 00 00 00 11 6c 6f 00  ....hi.......lo.
	0x0020 00 00 00 00 00 11 79 00 00 00 00 00 00 11 71 75  ......y.......qu
	0x0030 6f 00 01 00 00 00 00 11 72 65 6d 00 01 00 00 00  o.......rem.....
	0x0040 00 0c 7a 00 f7 03 00 00 00 00 00                 ..z........
	rel 0+0 t=24 type.uint32+0
	rel 0+0 t=24 type.uint64+0
	rel 24+4 t=29 go.info.uint32+0
	rel 33+4 t=29 go.info.uint32+0
	rel 41+4 t=29 go.info.uint32+0
	rel 51+4 t=29 go.info.uint32+0
	rel 61+4 t=29 go.info.uint32+0
	rel 70+4 t=29 go.info.uint64+0
go.string."overflow" SRODATA dupok size=8
	0x0000 6f 76 65 72 66 6c 6f 77                          overflow
""..stmp_0 SRODATA size=16
	0x0000 00 00 00 00 00 00 00 00 08 00 00 00 00 00 00 00  ................
	rel 0+8 t=1 go.string."overflow"+0
""..stmp_1 SRODATA size=16
	0x0000 00 00 00 00 00 00 00 00 08 00 00 00 00 00 00 00  ................
	rel 0+8 t=1 go.string."overflow"+0
""..stmp_2 SRODATA size=16
	0x0000 00 00 00 00 00 00 00 00 08 00 00 00 00 00 00 00  ................
	rel 0+8 t=1 go.string."overflow"+0
""..stmp_3 SRODATA size=16
	0x0000 00 00 00 00 00 00 00 00 08 00 00 00 00 00 00 00  ................
	rel 0+8 t=1 go.string."overflow"+0
""..stmp_4 SRODATA size=16
	0x0000 00 00 00 00 00 00 00 00 08 00 00 00 00 00 00 00  ................
	rel 0+8 t=1 go.string."overflow"+0
""..stmp_5 SRODATA size=16
	0x0000 00 00 00 00 00 00 00 00 08 00 00 00 00 00 00 00  ................
	rel 0+8 t=1 go.string."overflow"+0
""..stmp_6 SRODATA size=16
	0x0000 00 00 00 00 00 00 00 00 08 00 00 00 00 00 00 00  ................
	rel 0+8 t=1 go.string."overflow"+0
""..stmp_7 SRODATA size=16
	0x0000 00 00 00 00 00 00 00 00 08 00 00 00 00 00 00 00  ................
	rel 0+8 t=1 go.string."overflow"+0
""..stmp_8 SRODATA size=16
	0x0000 00 00 00 00 00 00 00 00 08 00 00 00 00 00 00 00  ................
	rel 0+8 t=1 go.string."overflow"+0
""..stmp_9 SRODATA size=16
	0x0000 00 00 00 00 00 00 00 00 08 00 00 00 00 00 00 00  ................
	rel 0+8 t=1 go.string."overflow"+0
""..stmp_10 SRODATA size=16
	0x0000 00 00 00 00 00 00 00 00 08 00 00 00 00 00 00 00  ................
	rel 0+8 t=1 go.string."overflow"+0
""..stmp_11 SRODATA size=16
	0x0000 00 00 00 00 00 00 00 00 08 00 00 00 00 00 00 00  ................
	rel 0+8 t=1 go.string."overflow"+0
runtime.memequal64·f SRODATA dupok size=8
	0x0000 00 00 00 00 00 00 00 00                          ........
	rel 0+8 t=1 runtime.memequal64+0
runtime.gcbits.01 SRODATA dupok size=1
	0x0000 01                                               .
type..namedata.*[]uint- SRODATA dupok size=10
	0x0000 00 00 07 2a 5b 5d 75 69 6e 74                    ...*[]uint
type.*[]uint SRODATA dupok size=56
	0x0000 08 00 00 00 00 00 00 00 08 00 00 00 00 00 00 00  ................
	0x0010 18 5d c1 ed 08 08 08 36 00 00 00 00 00 00 00 00  .].....6........
	0x0020 00 00 00 00 00 00 00 00 00 00 00 00 00 00 00 00  ................
	0x0030 00 00 00 00 00 00 00 00                          ........
	rel 24+8 t=1 runtime.memequal64·f+0
	rel 32+8 t=1 runtime.gcbits.01+0
	rel 40+4 t=5 type..namedata.*[]uint-+0
	rel 48+8 t=1 type.[]uint+0
type.[]uint SRODATA dupok size=56
	0x0000 18 00 00 00 00 00 00 00 08 00 00 00 00 00 00 00  ................
	0x0010 f6 40 5e 7f 02 08 08 17 00 00 00 00 00 00 00 00  .@^.............
	0x0020 00 00 00 00 00 00 00 00 00 00 00 00 00 00 00 00  ................
	0x0030 00 00 00 00 00 00 00 00                          ........
	rel 32+8 t=1 runtime.gcbits.01+0
	rel 40+4 t=5 type..namedata.*[]uint-+0
	rel 44+4 t=6 type.*[]uint+0
	rel 48+8 t=1 type.uint+0
type..eqfunc24 SRODATA dupok size=16
	0x0000 00 00 00 00 00 00 00 00 18 00 00 00 00 00 00 00  ................
	rel 0+8 t=1 runtime.memequal_varlen+0
runtime.gcbits. SRODATA dupok size=0
type..namedata.*[3]uint- SRODATA dupok size=11
	0x0000 00 00 08 2a 5b 33 5d 75 69 6e 74                 ...*[3]uint
type.[3]uint SRODATA dupok size=72
	0x0000 18 00 00 00 00 00 00 00 00 00 00 00 00 00 00 00  ................
	0x0010 32 9a 82 db 0a 08 08 11 00 00 00 00 00 00 00 00  2...............
	0x0020 00 00 00 00 00 00 00 00 00 00 00 00 00 00 00 00  ................
	0x0030 00 00 00 00 00 00 00 00 00 00 00 00 00 00 00 00  ................
	0x0040 03 00 00 00 00 00 00 00                          ........
	rel 24+8 t=1 type..eqfunc24+0
	rel 32+8 t=1 runtime.gcbits.+0
	rel 40+4 t=5 type..namedata.*[3]uint-+0
	rel 44+4 t=6 type.*[3]uint+0
	rel 48+8 t=1 type.uint+0
	rel 56+8 t=1 type.[]uint+0
type.*[3]uint SRODATA dupok size=56
	0x0000 08 00 00 00 00 00 00 00 08 00 00 00 00 00 00 00  ................
	0x0010 4e 49 3d fa 08 08 08 36 00 00 00 00 00 00 00 00  NI=....6........
	0x0020 00 00 00 00 00 00 00 00 00 00 00 00 00 00 00 00  ................
	0x0030 00 00 00 00 00 00 00 00                          ........
	rel 24+8 t=1 runtime.memequal64·f+0
	rel 32+8 t=1 runtime.gcbits.01+0
	rel 40+4 t=5 type..namedata.*[3]uint-+0
	rel 48+8 t=1 type.[3]uint+0
type..namedata.*[]uint64- SRODATA dupok size=12
	0x0000 00 00 09 2a 5b 5d 75 69 6e 74 36 34              ...*[]uint64
type.*[]uint64 SRODATA dupok size=56
	0x0000 08 00 00 00 00 00 00 00 08 00 00 00 00 00 00 00  ................
	0x0010 2f 44 4b 5c 08 08 08 36 00 00 00 00 00 00 00 00  /DK\...6........
	0x0020 00 00 00 00 00 00 00 00 00 00 00 00 00 00 00 00  ................
	0x0030 00 00 00 00 00 00 00 00                          ........
	rel 24+8 t=1 runtime.memequal64·f+0
	rel 32+8 t=1 runtime.gcbits.01+0
	rel 40+4 t=5 type..namedata.*[]uint64-+0
	rel 48+8 t=1 type.[]uint64+0
type.[]uint64 SRODATA dupok size=56
	0x0000 18 00 00 00 00 00 00 00 08 00 00 00 00 00 00 00  ................
	0x0010 3f b5 69 20 02 08 08 17 00 00 00 00 00 00 00 00  ?.i ............
	0x0020 00 00 00 00 00 00 00 00 00 00 00 00 00 00 00 00  ................
	0x0030 00 00 00 00 00 00 00 00                          ........
	rel 32+8 t=1 runtime.gcbits.01+0
	rel 40+4 t=5 type..namedata.*[]uint64-+0
	rel 44+4 t=6 type.*[]uint64+0
	rel 48+8 t=1 type.uint64+0
type..namedata.*[3]uint64- SRODATA dupok size=13
	0x0000 00 00 0a 2a 5b 33 5d 75 69 6e 74 36 34           ...*[3]uint64
type.[3]uint64 SRODATA dupok size=72
	0x0000 18 00 00 00 00 00 00 00 00 00 00 00 00 00 00 00  ................
	0x0010 28 27 24 5e 0a 08 08 11 00 00 00 00 00 00 00 00  ('$^............
	0x0020 00 00 00 00 00 00 00 00 00 00 00 00 00 00 00 00  ................
	0x0030 00 00 00 00 00 00 00 00 00 00 00 00 00 00 00 00  ................
	0x0040 03 00 00 00 00 00 00 00                          ........
	rel 24+8 t=1 type..eqfunc24+0
	rel 32+8 t=1 runtime.gcbits.+0
	rel 40+4 t=5 type..namedata.*[3]uint64-+0
	rel 44+4 t=6 type.*[3]uint64+0
	rel 48+8 t=1 type.uint64+0
	rel 56+8 t=1 type.[]uint64+0
type.*[3]uint64 SRODATA dupok size=56
	0x0000 08 00 00 00 00 00 00 00 08 00 00 00 00 00 00 00  ................
	0x0010 e0 65 f8 e2 08 08 08 36 00 00 00 00 00 00 00 00  .e.....6........
	0x0020 00 00 00 00 00 00 00 00 00 00 00 00 00 00 00 00  ................
	0x0030 00 00 00 00 00 00 00 00                          ........
	rel 24+8 t=1 runtime.memequal64·f+0
	rel 32+8 t=1 runtime.gcbits.01+0
	rel 40+4 t=5 type..namedata.*[3]uint64-+0
	rel 48+8 t=1 type.[3]uint64+0
runtime.memequal128·f SRODATA dupok size=8
	0x0000 00 00 00 00 00 00 00 00                          ........
	rel 0+8 t=1 runtime.memequal128+0
type..namedata.*[2]uint64- SRODATA dupok size=13
	0x0000 00 00 0a 2a 5b 32 5d 75 69 6e 74 36 34           ...*[2]uint64
type.*[2]uint64 SRODATA dupok size=56
	0x0000 08 00 00 00 00 00 00 00 08 00 00 00 00 00 00 00  ................
	0x0010 49 20 93 2f 08 08 08 36 00 00 00 00 00 00 00 00  I ./...6........
	0x0020 00 00 00 00 00 00 00 00 00 00 00 00 00 00 00 00  ................
	0x0030 00 00 00 00 00 00 00 00                          ........
	rel 24+8 t=1 runtime.memequal64·f+0
	rel 32+8 t=1 runtime.gcbits.01+0
	rel 40+4 t=5 type..namedata.*[2]uint64-+0
	rel 48+8 t=1 type.[2]uint64+0
type.[2]uint64 SRODATA dupok size=72
	0x0000 10 00 00 00 00 00 00 00 00 00 00 00 00 00 00 00  ................
	0x0010 87 f8 36 aa 0a 08 08 11 00 00 00 00 00 00 00 00  ..6.............
	0x0020 00 00 00 00 00 00 00 00 00 00 00 00 00 00 00 00  ................
	0x0030 00 00 00 00 00 00 00 00 00 00 00 00 00 00 00 00  ................
	0x0040 02 00 00 00 00 00 00 00                          ........
	rel 24+8 t=1 runtime.memequal128·f+0
	rel 32+8 t=1 runtime.gcbits.+0
	rel 40+4 t=5 type..namedata.*[2]uint64-+0
	rel 44+4 t=6 type.*[2]uint64+0
	rel 48+8 t=1 type.uint64+0
	rel 56+8 t=1 type.[]uint64+0
type..importpath.math/bits. SRODATA dupok size=12
	0x0000 00 00 09 6d 61 74 68 2f 62 69 74 73              ...math/bits
gclocals·33cdeccccebe80329f1fdbee7f5874cb SRODATA dupok size=8
	0x0000 01 00 00 00 00 00 00 00                          ........
gclocals·9aa48eca674789341e2d6be6614c399c SRODATA dupok size=10
	0x0000 02 00 00 00 03 00 00 00 07 00                    ..........
gclocals·69c1753bd5f81501d95132d08af04464 SRODATA dupok size=8
	0x0000 02 00 00 00 00 00 00 00                          ........
aux for "".LeadingZeros SDWARFRANGE size=64
	0x0000 ff ff ff ff ff ff ff ff 00 00 00 00 00 00 00 00  ................
	0x0010 00 00 00 00 00 00 00 00 09 00 00 00 00 00 00 00  ................
	0x0020 09 00 00 00 00 00 00 00 1b 00 00 00 00 00 00 00  ................
	0x0030 00 00 00 00 00 00 00 00 00 00 00 00 00 00 00 00  ................
	rel 8+8 t=1 "".LeadingZeros+0
aux for "".LeadingZeros SDWARFLOC size=102
	0x0000 ff ff ff ff ff ff ff ff 00 00 00 00 00 00 00 00  ................
	0x0010 00 00 00 00 00 00 00 00 21 00 00 00 00 00 00 00  ........!.......
	0x0020 01 00 9c 00 00 00 00 00 00 00 00 00 00 00 00 00  ................
	0x0030 00 00 00 ff ff ff ff ff ff ff ff 00 00 00 00 00  ................
	0x0040 00 00 00 00 00 00 00 00 00 00 00 21 00 00 00 00  ...........!....
	0x0050 00 00 00 01 00 9c 00 00 00 00 00 00 00 00 00 00  ................
	0x0060 00 00 00 00 00 00                                ......
	rel 8+8 t=1 "".LeadingZeros+0
	rel 59+8 t=1 "".LeadingZeros+0
aux for "".LeadingZeros SDWARFLINES size=18
	0x0000 04 03 03 0d 14 06 41 04 02 06 ed 06 41 02 01 00  ......A.....A...
	0x0010 01 01                                            ..
aux for "".LeadingZeros SDWARFINFO size=110
	0x0000 03 63 6f 6d 6d 61 6e 64 2d 6c 69 6e 65 2d 61 72  .command-line-ar
	0x0010 67 75 6d 65 6e 74 73 2e 4c 65 61 64 69 6e 67 5a  guments.LeadingZ
	0x0020 65 72 6f 73 00 00 00 00 00 00 00 00 00 00 00 00  eros............
	0x0030 00 00 00 00 00 01 9c 02 00 00 00 01 10 6e 00 00  .............n..
	0x0040 0f 00 00 00 00 00 00 00 00 0f 7e 72 31 00 01 0f  ..........~r1...
	0x0050 00 00 00 00 00 07 00 00 00 00 00 00 00 00 02 00  ................
	0x0060 00 00 15 13 00 00 00 00 00 00 00 00 00 00        ..............
	rel 0+0 t=24 type.int+0
	rel 0+0 t=24 type.uint+0
	rel 37+8 t=1 "".LeadingZeros+0
	rel 45+8 t=1 "".LeadingZeros+33
	rel 65+4 t=29 go.info.uint+0
	rel 69+4 t=29 +0
	rel 80+4 t=29 go.info.int+0
	rel 86+4 t=29 go.info.math/bits.LeadingZeros$abstract+0
	rel 90+4 t=29 +0
	rel 100+4 t=29 go.info.math/bits.LeadingZeros$abstract+26
	rel 104+4 t=29 +51
aux for "".LeadingZeros64 SDWARFRANGE size=64
	0x0000 ff ff ff ff ff ff ff ff 00 00 00 00 00 00 00 00  ................
	0x0010 00 00 00 00 00 00 00 00 09 00 00 00 00 00 00 00  ................
	0x0020 09 00 00 00 00 00 00 00 1b 00 00 00 00 00 00 00  ................
	0x0030 00 00 00 00 00 00 00 00 00 00 00 00 00 00 00 00  ................
	rel 8+8 t=1 "".LeadingZeros64+0
aux for "".LeadingZeros64 SDWARFLOC size=102
	0x0000 ff ff ff ff ff ff ff ff 00 00 00 00 00 00 00 00  ................
	0x0010 00 00 00 00 00 00 00 00 21 00 00 00 00 00 00 00  ........!.......
	0x0020 01 00 9c 00 00 00 00 00 00 00 00 00 00 00 00 00  ................
	0x0030 00 00 00 ff ff ff ff ff ff ff ff 00 00 00 00 00  ................
	0x0040 00 00 00 00 00 00 00 00 00 00 00 21 00 00 00 00  ...........!....
	0x0050 00 00 00 01 00 9c 00 00 00 00 00 00 00 00 00 00  ................
	0x0060 00 00 00 00 00 00                                ......
	rel 8+8 t=1 "".LeadingZeros64+0
	rel 59+8 t=1 "".LeadingZeros64+0
aux for "".LeadingZeros64 SDWARFLINES size=18
	0x0000 04 03 03 19 14 06 41 04 02 06 ea 06 41 02 01 00  ......A.....A...
	0x0010 01 01                                            ..
aux for "".LeadingZeros64 SDWARFINFO size=112
	0x0000 03 63 6f 6d 6d 61 6e 64 2d 6c 69 6e 65 2d 61 72  .command-line-ar
	0x0010 67 75 6d 65 6e 74 73 2e 4c 65 61 64 69 6e 67 5a  guments.LeadingZ
	0x0020 65 72 6f 73 36 34 00 00 00 00 00 00 00 00 00 00  eros64..........
	0x0030 00 00 00 00 00 00 00 01 9c 02 00 00 00 01 10 6e  ...............n
	0x0040 00 00 18 00 00 00 00 00 00 00 00 0f 7e 72 31 00  ............~r1.
	0x0050 01 18 00 00 00 00 00 07 00 00 00 00 00 00 00 00  ................
	0x0060 02 00 00 00 1e 13 00 00 00 00 00 00 00 00 00 00  ................
	rel 0+0 t=24 type.int+0
	rel 0+0 t=24 type.uint64+0
	rel 39+8 t=1 "".LeadingZeros64+0
	rel 47+8 t=1 "".LeadingZeros64+33
	rel 67+4 t=29 go.info.uint64+0
	rel 71+4 t=29 +0
	rel 82+4 t=29 go.info.int+0
	rel 88+4 t=29 go.info.math/bits.LeadingZeros64$abstract+0
	rel 92+4 t=29 +0
	rel 102+4 t=29 go.info.math/bits.LeadingZeros64$abstract+28
	rel 106+4 t=29 +51
aux for "".LeadingZeros32 SDWARFRANGE size=64
	0x0000 ff ff ff ff ff ff ff ff 00 00 00 00 00 00 00 00  ................
	0x0010 00 00 00 00 00 00 00 00 10 00 00 00 00 00 00 00  ................
	0x0020 10 00 00 00 00 00 00 00 17 00 00 00 00 00 00 00  ................
	0x0030 00 00 00 00 00 00 00 00 00 00 00 00 00 00 00 00  ................
	rel 8+8 t=1 "".LeadingZeros32+0
aux for "".LeadingZeros32 SDWARFLOC size=102
	0x0000 ff ff ff ff ff ff ff ff 00 00 00 00 00 00 00 00  ................
	0x0010 00 00 00 00 00 00 00 00 1d 00 00 00 00 00 00 00  ................
	0x0020 01 00 9c 00 00 00 00 00 00 00 00 00 00 00 00 00  ................
	0x0030 00 00 00 ff ff ff ff ff ff ff ff 00 00 00 00 00  ................
	0x0040 00 00 00 00 00 00 00 00 00 00 00 1d 00 00 00 00  ................
	0x0050 00 00 00 01 00 9c 00 00 00 00 00 00 00 00 00 00  ................
	0x0060 00 00 00 00 00 00                                ......
	rel 8+8 t=1 "".LeadingZeros32+0
	rel 59+8 t=1 "".LeadingZeros32+0
aux for "".LeadingZeros32 SDWARFLINES size=20
	0x0000 04 03 03 16 14 06 37 04 02 06 03 06 d2 06 41 02  ......7.......A.
	0x0010 01 00 01 01                                      ....
aux for "".LeadingZeros32 SDWARFINFO size=112
	0x0000 03 63 6f 6d 6d 61 6e 64 2d 6c 69 6e 65 2d 61 72  .command-line-ar
	0x0010 67 75 6d 65 6e 74 73 2e 4c 65 61 64 69 6e 67 5a  guments.LeadingZ
	0x0020 65 72 6f 73 33 32 00 00 00 00 00 00 00 00 00 00  eros32..........
	0x0030 00 00 00 00 00 00 00 01 9c 02 00 00 00 01 10 6e  ...............n
	0x0040 00 00 21 00 00 00 00 00 00 00 00 0f 7e 72 31 00  ..!.........~r1.
	0x0050 01 21 00 00 00 00 00 07 00 00 00 00 00 00 00 00  .!..............
	0x0060 02 00 00 00 27 13 00 00 00 00 00 00 00 00 00 00  ....'...........
	rel 0+0 t=24 type.int+0
	rel 0+0 t=24 type.uint32+0
	rel 39+8 t=1 "".LeadingZeros32+0
	rel 47+8 t=1 "".LeadingZeros32+29
	rel 67+4 t=29 go.info.uint32+0
	rel 71+4 t=29 +0
	rel 82+4 t=29 go.info.int+0
	rel 88+4 t=29 go.info.math/bits.LeadingZeros32$abstract+0
	rel 92+4 t=29 +0
	rel 102+4 t=29 go.info.math/bits.LeadingZeros32$abstract+28
	rel 106+4 t=29 +51
aux for "".LeadingZeros16 SDWARFLOC size=102
	0x0000 ff ff ff ff ff ff ff ff 00 00 00 00 00 00 00 00  ................
	0x0010 00 00 00 00 00 00 00 00 1b 00 00 00 00 00 00 00  ................
	0x0020 01 00 9c 00 00 00 00 00 00 00 00 00 00 00 00 00  ................
	0x0030 00 00 00 ff ff ff ff ff ff ff ff 00 00 00 00 00  ................
	0x0040 00 00 00 00 00 00 00 00 00 00 00 1b 00 00 00 00  ................
	0x0050 00 00 00 01 00 9c 00 00 00 00 00 00 00 00 00 00  ................
	0x0060 00 00 00 00 00 00                                ......
	rel 8+8 t=1 "".LeadingZeros16+0
	rel 59+8 t=1 "".LeadingZeros16+0
aux for "".LeadingZeros16 SDWARFLINES size=25
	0x0000 04 02 03 2a 14 04 03 03 6d 3d 06 2d 04 02 06 03  ...*....m=.-....
	0x0010 12 96 06 41 02 01 00 01 01                       ...A.....
aux for "".LeadingZeros16 SDWARFINFO size=124
	0x0000 03 63 6f 6d 6d 61 6e 64 2d 6c 69 6e 65 2d 61 72  .command-line-ar
	0x0010 67 75 6d 65 6e 74 73 2e 4c 65 61 64 69 6e 67 5a  guments.LeadingZ
	0x0020 65 72 6f 73 31 36 00 00 00 00 00 00 00 00 00 00  eros16..........
	0x0030 00 00 00 00 00 00 00 01 9c 02 00 00 00 01 10 6e  ...............n
	0x0040 00 00 2a 00 00 00 00 00 00 00 00 0f 7e 72 31 00  ..*.........~r1.
	0x0050 01 2a 00 00 00 00 00 06 00 00 00 00 00 00 00 00  .*..............
	0x0060 00 00 00 00 00 00 00 00 00 00 00 00 02 00 00 00  ................
	0x0070 30 13 00 00 00 00 00 00 00 00 00 00              0...........
	rel 0+0 t=24 type.int+0
	rel 0+0 t=24 type.uint16+0
	rel 39+8 t=1 "".LeadingZeros16+0
	rel 47+8 t=1 "".LeadingZeros16+27
	rel 67+4 t=29 go.info.uint16+0
	rel 71+4 t=29 +0
	rel 82+4 t=29 go.info.int+0
	rel 88+4 t=29 go.info.math/bits.LeadingZeros16$abstract+0
	rel 92+8 t=1 "".LeadingZeros16+5
	rel 100+8 t=1 "".LeadingZeros16+21
	rel 114+4 t=29 go.info.math/bits.LeadingZeros16$abstract+28
	rel 118+4 t=29 +51
aux for "".LeadingZeros8 SDWARFLOC size=102
	0x0000 ff ff ff ff ff ff ff ff 00 00 00 00 00 00 00 00  ................
	0x0010 00 00 00 00 00 00 00 00 1b 00 00 00 00 00 00 00  ................
	0x0020 01 00 9c 00 00 00 00 00 00 00 00 00 00 00 00 00  ................
	0x0030 00 00 00 ff ff ff ff ff ff ff ff 00 00 00 00 00  ................
	0x0040 00 00 00 00 00 00 00 00 00 00 00 1b 00 00 00 00  ................
	0x0050 00 00 00 01 00 9c 00 00 00 00 00 00 00 00 00 00  ................
	0x0060 00 00 00 00 00 00                                ......
	rel 8+8 t=1 "".LeadingZeros8+0
	rel 59+8 t=1 "".LeadingZeros8+0
aux for "".LeadingZeros8 SDWARFLINES size=25
	0x0000 04 02 03 33 14 04 03 03 61 3d 06 2d 04 02 06 03  ...3....a=.-....
	0x0010 1e 96 06 41 02 01 00 01 01                       ...A.....
aux for "".LeadingZeros8 SDWARFINFO size=123
	0x0000 03 63 6f 6d 6d 61 6e 64 2d 6c 69 6e 65 2d 61 72  .command-line-ar
	0x0010 67 75 6d 65 6e 74 73 2e 4c 65 61 64 69 6e 67 5a  guments.LeadingZ
	0x0020 65 72 6f 73 38 00 00 00 00 00 00 00 00 00 00 00  eros8...........
	0x0030 00 00 00 00 00 00 01 9c 02 00 00 00 01 10 6e 00  ..............n.
	0x0040 00 33 00 00 00 00 00 00 00 00 0f 7e 72 31 00 01  .3.........~r1..
	0x0050 33 00 00 00 00 00 06 00 00 00 00 00 00 00 00 00  3...............
	0x0060 00 00 00 00 00 00 00 00 00 00 00 02 00 00 00 39  ...............9
	0x0070 13 00 00 00 00 00 00 00 00 00 00                 ...........
	rel 0+0 t=24 type.int+0
	rel 0+0 t=24 type.uint8+0
	rel 38+8 t=1 "".LeadingZeros8+0
	rel 46+8 t=1 "".LeadingZeros8+27
	rel 66+4 t=29 go.info.uint8+0
	rel 70+4 t=29 +0
	rel 81+4 t=29 go.info.int+0
	rel 87+4 t=29 go.info.math/bits.LeadingZeros8$abstract+0
	rel 91+8 t=1 "".LeadingZeros8+5
	rel 99+8 t=1 "".LeadingZeros8+21
	rel 113+4 t=29 go.info.math/bits.LeadingZeros8$abstract+27
	rel 117+4 t=29 +51
aux for "".Len SDWARFLOC size=51
	0x0000 ff ff ff ff ff ff ff ff 00 00 00 00 00 00 00 00  ................
	0x0010 00 00 00 00 00 00 00 00 1d 00 00 00 00 00 00 00  ................
	0x0020 01 00 9c 00 00 00 00 00 00 00 00 00 00 00 00 00  ................
	0x0030 00 00 00                                         ...
	rel 8+8 t=1 "".Len+0
aux for "".Len SDWARFLINES size=13
	0x0000 04 02 03 c0 00 14 06 41 02 18 00 01 01           .......A.....
aux for "".Len SDWARFINFO size=77
	0x0000 03 63 6f 6d 6d 61 6e 64 2d 6c 69 6e 65 2d 61 72  .command-line-ar
	0x0010 67 75 6d 65 6e 74 73 2e 4c 65 6e 00 00 00 00 00  guments.Len.....
	0x0020 00 00 00 00 00 00 00 00 00 00 00 00 01 9c 02 00  ................
	0x0030 00 00 01 10 6e 00 00 40 00 00 00 00 00 00 00 00  ....n..@........
	0x0040 0f 7e 72 31 00 01 40 00 00 00 00 00 00           .~r1..@......
	rel 0+0 t=24 type.int+0
	rel 0+0 t=24 type.uint+0
	rel 28+8 t=1 "".Len+0
	rel 36+8 t=1 "".Len+29
	rel 56+4 t=29 go.info.uint+0
	rel 60+4 t=29 +0
	rel 71+4 t=29 go.info.int+0
aux for "".Len64 SDWARFLOC size=51
	0x0000 ff ff ff ff ff ff ff ff 00 00 00 00 00 00 00 00  ................
	0x0010 00 00 00 00 00 00 00 00 1d 00 00 00 00 00 00 00  ................
	0x0020 01 00 9c 00 00 00 00 00 00 00 00 00 00 00 00 00  ................
	0x0030 00 00 00                                         ...
	rel 8+8 t=1 "".Len64+0
aux for "".Len64 SDWARFLINES size=13
	0x0000 04 02 03 c9 00 14 06 41 02 18 00 01 01           .......A.....
aux for "".Len64 SDWARFINFO size=79
	0x0000 03 63 6f 6d 6d 61 6e 64 2d 6c 69 6e 65 2d 61 72  .command-line-ar
	0x0010 67 75 6d 65 6e 74 73 2e 4c 65 6e 36 34 00 00 00  guments.Len64...
	0x0020 00 00 00 00 00 00 00 00 00 00 00 00 00 00 01 9c  ................
	0x0030 02 00 00 00 01 10 6e 00 00 49 00 00 00 00 00 00  ......n..I......
	0x0040 00 00 0f 7e 72 31 00 01 49 00 00 00 00 00 00     ...~r1..I......
	rel 0+0 t=24 type.int+0
	rel 0+0 t=24 type.uint64+0
	rel 30+8 t=1 "".Len64+0
	rel 38+8 t=1 "".Len64+29
	rel 58+4 t=29 go.info.uint64+0
	rel 62+4 t=29 +0
	rel 73+4 t=29 go.info.int+0
aux for "".Len32 SDWARFLOC size=51
	0x0000 ff ff ff ff ff ff ff ff 00 00 00 00 00 00 00 00  ................
	0x0010 00 00 00 00 00 00 00 00 16 00 00 00 00 00 00 00  ................
	0x0020 01 00 9c 00 00 00 00 00 00 00 00 00 00 00 00 00  ................
	0x0030 00 00 00                                         ...
	rel 8+8 t=1 "".Len32+0
aux for "".Len32 SDWARFLINES size=13
	0x0000 04 02 03 d2 00 14 06 37 02 12 00 01 01           .......7.....
aux for "".Len32 SDWARFINFO size=79
	0x0000 03 63 6f 6d 6d 61 6e 64 2d 6c 69 6e 65 2d 61 72  .command-line-ar
	0x0010 67 75 6d 65 6e 74 73 2e 4c 65 6e 33 32 00 00 00  guments.Len32...
	0x0020 00 00 00 00 00 00 00 00 00 00 00 00 00 00 01 9c  ................
	0x0030 02 00 00 00 01 10 6e 00 00 52 00 00 00 00 00 00  ......n..R......
	0x0040 00 00 0f 7e 72 31 00 01 52 00 00 00 00 00 00     ...~r1..R......
	rel 0+0 t=24 type.int+0
	rel 0+0 t=24 type.uint32+0
	rel 30+8 t=1 "".Len32+0
	rel 38+8 t=1 "".Len32+22
	rel 58+4 t=29 go.info.uint32+0
	rel 62+4 t=29 +0
	rel 73+4 t=29 go.info.int+0
aux for "".Len16 SDWARFLOC size=51
	0x0000 ff ff ff ff ff ff ff ff 00 00 00 00 00 00 00 00  ................
	0x0010 00 00 00 00 00 00 00 00 14 00 00 00 00 00 00 00  ................
	0x0020 01 00 9c 00 00 00 00 00 00 00 00 00 00 00 00 00  ................
	0x0030 00 00 00                                         ...
	rel 8+8 t=1 "".Len16+0
aux for "".Len16 SDWARFLINES size=13
	0x0000 04 02 03 db 00 14 06 41 02 0f 00 01 01           .......A.....
aux for "".Len16 SDWARFINFO size=79
	0x0000 03 63 6f 6d 6d 61 6e 64 2d 6c 69 6e 65 2d 61 72  .command-line-ar
	0x0010 67 75 6d 65 6e 74 73 2e 4c 65 6e 31 36 00 00 00  guments.Len16...
	0x0020 00 00 00 00 00 00 00 00 00 00 00 00 00 00 01 9c  ................
	0x0030 02 00 00 00 01 10 6e 00 00 5b 00 00 00 00 00 00  ......n..[......
	0x0040 00 00 0f 7e 72 31 00 01 5b 00 00 00 00 00 00     ...~r1..[......
	rel 0+0 t=24 type.int+0
	rel 0+0 t=24 type.uint16+0
	rel 30+8 t=1 "".Len16+0
	rel 38+8 t=1 "".Len16+20
	rel 58+4 t=29 go.info.uint16+0
	rel 62+4 t=29 +0
	rel 73+4 t=29 go.info.int+0
aux for "".Len8 SDWARFLOC size=51
	0x0000 ff ff ff ff ff ff ff ff 00 00 00 00 00 00 00 00  ................
	0x0010 00 00 00 00 00 00 00 00 14 00 00 00 00 00 00 00  ................
	0x0020 01 00 9c 00 00 00 00 00 00 00 00 00 00 00 00 00  ................
	0x0030 00 00 00                                         ...
	rel 8+8 t=1 "".Len8+0
aux for "".Len8 SDWARFLINES size=13
	0x0000 04 02 03 e4 00 14 06 41 02 0f 00 01 01           .......A.....
aux for "".Len8 SDWARFINFO size=78
	0x0000 03 63 6f 6d 6d 61 6e 64 2d 6c 69 6e 65 2d 61 72  .command-line-ar
	0x0010 67 75 6d 65 6e 74 73 2e 4c 65 6e 38 00 00 00 00  guments.Len8....
	0x0020 00 00 00 00 00 00 00 00 00 00 00 00 00 01 9c 02  ................
	0x0030 00 00 00 01 10 6e 00 00 64 00 00 00 00 00 00 00  .....n..d.......
	0x0040 00 0f 7e 72 31 00 01 64 00 00 00 00 00 00        ..~r1..d......
	rel 0+0 t=24 type.int+0
	rel 0+0 t=24 type.uint8+0
	rel 29+8 t=1 "".Len8+0
	rel 37+8 t=1 "".Len8+20
	rel 57+4 t=29 go.info.uint8+0
	rel 61+4 t=29 +0
	rel 72+4 t=29 go.info.int+0
aux for "".OnesCount SDWARFLOC size=51
	0x0000 ff ff ff ff ff ff ff ff 00 00 00 00 00 00 00 00  ................
	0x0010 00 00 00 00 00 00 00 00 5f 00 00 00 00 00 00 00  ........_.......
	0x0020 01 00 9c 00 00 00 00 00 00 00 00 00 00 00 00 00  ................
	0x0030 00 00 00                                         ...
	rel 8+8 t=1 "".OnesCount+0
aux for "".OnesCount SDWARFLINES size=30
	0x0000 04 02 03 ec 00 14 0a a5 06 9b 06 03 02 82 06 23  ...............#
	0x0010 06 73 06 41 06 08 03 7d 51 02 07 00 01 01        .s.A...}Q.....
aux for "".OnesCount SDWARFINFO size=83
	0x0000 03 63 6f 6d 6d 61 6e 64 2d 6c 69 6e 65 2d 61 72  .command-line-ar
	0x0010 67 75 6d 65 6e 74 73 2e 4f 6e 65 73 43 6f 75 6e  guments.OnesCoun
	0x0020 74 00 00 00 00 00 00 00 00 00 00 00 00 00 00 00  t...............
	0x0030 00 00 01 9c 02 00 00 00 01 10 6e 00 00 72 00 00  ..........n..r..
	0x0040 00 00 00 00 00 00 0f 7e 72 31 00 01 72 00 00 00  .......~r1..r...
	0x0050 00 00 00                                         ...
	rel 0+0 t=24 type.int+0
	rel 0+0 t=24 type.uint+0
	rel 34+8 t=1 "".OnesCount+0
	rel 42+8 t=1 "".OnesCount+95
	rel 62+4 t=29 go.info.uint+0
	rel 66+4 t=29 +0
	rel 77+4 t=29 go.info.int+0
aux for "".OnesCount64 SDWARFLOC size=51
	0x0000 ff ff ff ff ff ff ff ff 00 00 00 00 00 00 00 00  ................
	0x0010 00 00 00 00 00 00 00 00 5f 00 00 00 00 00 00 00  ........_.......
	0x0020 01 00 9c 00 00 00 00 00 00 00 00 00 00 00 00 00  ................
	0x0030 00 00 00                                         ...
	rel 8+8 t=1 "".OnesCount64+0
aux for "".OnesCount64 SDWARFLINES size=30
	0x0000 04 02 03 f7 00 14 0a a5 06 9b 06 03 02 82 06 23  ...............#
	0x0010 06 73 06 41 06 08 03 7d 51 02 07 00 01 01        .s.A...}Q.....
aux for "".OnesCount64 SDWARFINFO size=85
	0x0000 03 63 6f 6d 6d 61 6e 64 2d 6c 69 6e 65 2d 61 72  .command-line-ar
	0x0010 67 75 6d 65 6e 74 73 2e 4f 6e 65 73 43 6f 75 6e  guments.OnesCoun
	0x0020 74 36 34 00 00 00 00 00 00 00 00 00 00 00 00 00  t64.............
	0x0030 00 00 00 00 01 9c 02 00 00 00 01 10 6e 00 00 7d  ............n..}
	0x0040 00 00 00 00 00 00 00 00 0f 7e 72 31 00 01 7d 00  .........~r1..}.
	0x0050 00 00 00 00 00                                   .....
	rel 0+0 t=24 type.int+0
	rel 0+0 t=24 type.uint64+0
	rel 36+8 t=1 "".OnesCount64+0
	rel 44+8 t=1 "".OnesCount64+95
	rel 64+4 t=29 go.info.uint64+0
	rel 68+4 t=29 +0
	rel 79+4 t=29 go.info.int+0
aux for "".OnesCount32 SDWARFLOC size=51
	0x0000 ff ff ff ff ff ff ff ff 00 00 00 00 00 00 00 00  ................
	0x0010 00 00 00 00 00 00 00 00 5b 00 00 00 00 00 00 00  ........[.......
	0x0020 01 00 9c 00 00 00 00 00 00 00 00 00 00 00 00 00  ................
	0x0030 00 00 00                                         ...
	rel 8+8 t=1 "".OnesCount32+0
aux for "".OnesCount32 SDWARFLINES size=30
	0x0000 04 02 03 82 01 14 0a a5 06 9b 06 03 02 82 06 23  ...............#
	0x0010 06 5f 06 41 06 08 03 7d 3d 02 07 00 01 01        ._.A...}=.....
aux for "".OnesCount32 SDWARFINFO size=87
	0x0000 03 63 6f 6d 6d 61 6e 64 2d 6c 69 6e 65 2d 61 72  .command-line-ar
	0x0010 67 75 6d 65 6e 74 73 2e 4f 6e 65 73 43 6f 75 6e  guments.OnesCoun
	0x0020 74 33 32 00 00 00 00 00 00 00 00 00 00 00 00 00  t32.............
	0x0030 00 00 00 00 01 9c 02 00 00 00 01 10 6e 00 00 88  ............n...
	0x0040 01 00 00 00 00 00 00 00 00 0f 7e 72 31 00 01 88  ..........~r1...
	0x0050 01 00 00 00 00 00 00                             .......
	rel 0+0 t=24 type.int+0
	rel 0+0 t=24 type.uint32+0
	rel 36+8 t=1 "".OnesCount32+0
	rel 44+8 t=1 "".OnesCount32+91
	rel 65+4 t=29 go.info.uint32+0
	rel 69+4 t=29 +0
	rel 81+4 t=29 go.info.int+0
aux for "".OnesCount16 SDWARFLOC size=51
	0x0000 ff ff ff ff ff ff ff ff 00 00 00 00 00 00 00 00  ................
	0x0010 00 00 00 00 00 00 00 00 5e 00 00 00 00 00 00 00  ........^.......
	0x0020 01 00 9c 00 00 00 00 00 00 00 00 00 00 00 00 00  ................
	0x0030 00 00 00                                         ...
	rel 8+8 t=1 "".OnesCount16+0
aux for "".OnesCount16 SDWARFLINES size=30
	0x0000 04 02 03 8d 01 14 0a a5 06 9b 06 03 02 82 06 23  ...............#
	0x0010 06 69 06 41 06 08 03 7d 51 02 07 00 01 01        .i.A...}Q.....
aux for "".OnesCount16 SDWARFINFO size=87
	0x0000 03 63 6f 6d 6d 61 6e 64 2d 6c 69 6e 65 2d 61 72  .command-line-ar
	0x0010 67 75 6d 65 6e 74 73 2e 4f 6e 65 73 43 6f 75 6e  guments.OnesCoun
	0x0020 74 31 36 00 00 00 00 00 00 00 00 00 00 00 00 00  t16.............
	0x0030 00 00 00 00 01 9c 02 00 00 00 01 10 6e 00 00 93  ............n...
	0x0040 01 00 00 00 00 00 00 00 00 0f 7e 72 31 00 01 93  ..........~r1...
	0x0050 01 00 00 00 00 00 00                             .......
	rel 0+0 t=24 type.int+0
	rel 0+0 t=24 type.uint16+0
	rel 36+8 t=1 "".OnesCount16+0
	rel 44+8 t=1 "".OnesCount16+94
	rel 65+4 t=29 go.info.uint16+0
	rel 69+4 t=29 +0
	rel 81+4 t=29 go.info.int+0
aux for "".OnesCount8 SDWARFLOC size=102
	0x0000 ff ff ff ff ff ff ff ff 00 00 00 00 00 00 00 00  ................
	0x0010 00 00 00 00 00 00 00 00 16 00 00 00 00 00 00 00  ................
	0x0020 01 00 9c 00 00 00 00 00 00 00 00 00 00 00 00 00  ................
	0x0030 00 00 00 ff ff ff ff ff ff ff ff 00 00 00 00 00  ................
	0x0040 00 00 00 00 00 00 00 00 00 00 00 16 00 00 00 00  ................
	0x0050 00 00 00 01 00 9c 00 00 00 00 00 00 00 00 00 00  ................
	0x0060 00 00 00 00 00 00                                ......
	rel 8+8 t=1 "".OnesCount8+0
	rel 59+8 t=1 "".OnesCount8+0
aux for "".OnesCount8 SDWARFLINES size=26
	0x0000 04 02 03 9c 01 14 04 03 03 5a 3d 06 55 04 02 06  .........Z=.U...
	0x0010 03 25 3c 06 41 02 01 00 01 01                    .%<.A.....
aux for "".OnesCount8 SDWARFINFO size=123
	0x0000 03 63 6f 6d 6d 61 6e 64 2d 6c 69 6e 65 2d 61 72  .command-line-ar
	0x0010 67 75 6d 65 6e 74 73 2e 4f 6e 65 73 43 6f 75 6e  guments.OnesCoun
	0x0020 74 38 00 00 00 00 00 00 00 00 00 00 00 00 00 00  t8..............
	0x0030 00 00 00 01 9c 02 00 00 00 01 10 6e 00 00 9d 01  ...........n....
	0x0040 00 00 00 00 00 00 00 00 0f 7e 72 31 00 01 9d 01  .........~r1....
	0x0050 00 00 00 00 00 06 00 00 00 00 00 00 00 00 00 00  ................
	0x0060 00 00 00 00 00 00 00 00 00 00 02 00 00 00 a2 01  ................
	0x0070 13 00 00 00 00 00 00 00 00 00 00                 ...........
	rel 0+0 t=24 type.int+0
	rel 0+0 t=24 type.uint8+0
	rel 35+8 t=1 "".OnesCount8+0
	rel 43+8 t=1 "".OnesCount8+22
	rel 64+4 t=29 go.info.uint8+0
	rel 68+4 t=29 +0
	rel 80+4 t=29 go.info.int+0
	rel 86+4 t=29 go.info.math/bits.OnesCount8$abstract+0
	rel 90+8 t=1 "".OnesCount8+5
	rel 98+8 t=1 "".OnesCount8+16
	rel 113+4 t=29 go.info.math/bits.OnesCount8$abstract+24
	rel 117+4 t=29 +51
aux for "".ReverseBytes SDWARFLOC size=102
	0x0000 ff ff ff ff ff ff ff ff 00 00 00 00 00 00 00 00  ................
	0x0010 00 00 00 00 00 00 00 00 0e 00 00 00 00 00 00 00  ................
	0x0020 01 00 9c 00 00 00 00 00 00 00 00 00 00 00 00 00  ................
	0x0030 00 00 00 ff ff ff ff ff ff ff ff 00 00 00 00 00  ................
	0x0040 00 00 00 00 00 00 00 00 00 00 00 0e 00 00 00 00  ................
	0x0050 00 00 00 01 00 9c 00 00 00 00 00 00 00 00 00 00  ................
	0x0060 00 00 00 00 00 00                                ......
	rel 8+8 t=1 "".ReverseBytes+0
	rel 59+8 t=1 "".ReverseBytes+0
aux for "".ReverseBytes SDWARFLINES size=25
	0x0000 04 02 03 a7 01 14 04 03 03 d6 00 46 04 02 03 a9  ...........F....
	0x0010 7f 29 06 41 02 01 00 01 01                       .).A.....
aux for "".ReverseBytes SDWARFINFO size=125
	0x0000 03 63 6f 6d 6d 61 6e 64 2d 6c 69 6e 65 2d 61 72  .command-line-ar
	0x0010 67 75 6d 65 6e 74 73 2e 52 65 76 65 72 73 65 42  guments.ReverseB
	0x0020 79 74 65 73 00 00 00 00 00 00 00 00 00 00 00 00  ytes............
	0x0030 00 00 00 00 00 01 9c 02 00 00 00 01 10 6e 00 00  .............n..
	0x0040 a9 01 00 00 00 00 00 00 00 00 0f 7e 72 31 00 01  ...........~r1..
	0x0050 a9 01 00 00 00 00 00 06 00 00 00 00 00 00 00 00  ................
	0x0060 00 00 00 00 00 00 00 00 00 00 00 00 02 00 00 00  ................
	0x0070 ad 01 13 00 00 00 00 00 00 00 00 00 00           .............
	rel 0+0 t=24 type.uint+0
	rel 37+8 t=1 "".ReverseBytes+0
	rel 45+8 t=1 "".ReverseBytes+14
	rel 66+4 t=29 go.info.uint+0
	rel 70+4 t=29 +0
	rel 82+4 t=29 go.info.uint+0
	rel 88+4 t=29 go.info.math/bits.ReverseBytes$abstract+0
	rel 92+8 t=1 "".ReverseBytes+5
	rel 100+8 t=1 "".ReverseBytes+8
	rel 115+4 t=29 go.info.math/bits.ReverseBytes$abstract+26
	rel 119+4 t=29 +51
aux for "".ReverseBytes64 SDWARFLOC size=51
	0x0000 ff ff ff ff ff ff ff ff 00 00 00 00 00 00 00 00  ................
	0x0010 00 00 00 00 00 00 00 00 0e 00 00 00 00 00 00 00  ................
	0x0020 01 00 9c 00 00 00 00 00 00 00 00 00 00 00 00 00  ................
	0x0030 00 00 00                                         ...
	rel 8+8 t=1 "".ReverseBytes64+0
aux for "".ReverseBytes64 SDWARFLINES size=13
	0x0000 04 02 03 ae 01 14 06 41 02 09 00 01 01           .......A.....
aux for "".ReverseBytes64 SDWARFINFO size=90
	0x0000 03 63 6f 6d 6d 61 6e 64 2d 6c 69 6e 65 2d 61 72  .command-line-ar
	0x0010 67 75 6d 65 6e 74 73 2e 52 65 76 65 72 73 65 42  guments.ReverseB
	0x0020 79 74 65 73 36 34 00 00 00 00 00 00 00 00 00 00  ytes64..........
	0x0030 00 00 00 00 00 00 00 01 9c 02 00 00 00 01 10 6e  ...............n
	0x0040 00 00 b0 01 00 00 00 00 00 00 00 00 0f 7e 72 31  .............~r1
	0x0050 00 01 b0 01 00 00 00 00 00 00                    ..........
	rel 0+0 t=24 type.uint64+0
	rel 39+8 t=1 "".ReverseBytes64+0
	rel 47+8 t=1 "".ReverseBytes64+14
	rel 68+4 t=29 go.info.uint64+0
	rel 72+4 t=29 +0
	rel 84+4 t=29 go.info.uint64+0
aux for "".ReverseBytes32 SDWARFLOC size=51
	0x0000 ff ff ff ff ff ff ff ff 00 00 00 00 00 00 00 00  ................
	0x0010 00 00 00 00 00 00 00 00 0b 00 00 00 00 00 00 00  ................
	0x0020 01 00 9c 00 00 00 00 00 00 00 00 00 00 00 00 00  ................
	0x0030 00 00 00                                         ...
	rel 8+8 t=1 "".ReverseBytes32+0
aux for "".ReverseBytes32 SDWARFLINES size=13
	0x0000 04 02 03 b5 01 14 06 37 02 07 00 01 01           .......7.....
aux for "".ReverseBytes32 SDWARFINFO size=90
	0x0000 03 63 6f 6d 6d 61 6e 64 2d 6c 69 6e 65 2d 61 72  .command-line-ar
	0x0010 67 75 6d 65 6e 74 73 2e 52 65 76 65 72 73 65 42  guments.ReverseB
	0x0020 79 74 65 73 33 32 00 00 00 00 00 00 00 00 00 00  ytes32..........
	0x0030 00 00 00 00 00 00 00 01 9c 02 00 00 00 01 10 6e  ...............n
	0x0040 00 00 b7 01 00 00 00 00 00 00 00 00 0f 7e 72 31  .............~r1
	0x0050 00 01 b7 01 00 00 00 00 00 00                    ..........
	rel 0+0 t=24 type.uint32+0
	rel 39+8 t=1 "".ReverseBytes32+0
	rel 47+8 t=1 "".ReverseBytes32+11
	rel 68+4 t=29 go.info.uint32+0
	rel 72+4 t=29 +0
	rel 84+4 t=29 go.info.uint32+0
aux for "".ReverseBytes16 SDWARFLOC size=102
	0x0000 ff ff ff ff ff ff ff ff 00 00 00 00 00 00 00 00  ................
	0x0010 00 00 00 00 00 00 00 00 0f 00 00 00 00 00 00 00  ................
	0x0020 01 00 9c 00 00 00 00 00 00 00 00 00 00 00 00 00  ................
	0x0030 00 00 00 ff ff ff ff ff ff ff ff 00 00 00 00 00  ................
	0x0040 00 00 00 00 00 00 00 00 00 00 00 0f 00 00 00 00  ................
	0x0050 00 00 00 01 00 9c 00 00 00 00 00 00 00 00 00 00  ................
	0x0060 00 00 00 00 00 00                                ......
	rel 8+8 t=1 "".ReverseBytes16+0
	rel 59+8 t=1 "".ReverseBytes16+0
aux for "".ReverseBytes16 SDWARFLINES size=25
	0x0000 04 02 03 be 01 14 04 03 03 c6 00 46 04 02 03 b9  ...........F....
	0x0010 7f 33 06 41 02 01 00 01 01                       .3.A.....
aux for "".ReverseBytes16 SDWARFINFO size=127
	0x0000 03 63 6f 6d 6d 61 6e 64 2d 6c 69 6e 65 2d 61 72  .command-line-ar
	0x0010 67 75 6d 65 6e 74 73 2e 52 65 76 65 72 73 65 42  guments.ReverseB
	0x0020 79 74 65 73 31 36 00 00 00 00 00 00 00 00 00 00  ytes16..........
	0x0030 00 00 00 00 00 00 00 01 9c 02 00 00 00 01 10 6e  ...............n
	0x0040 00 00 be 01 00 00 00 00 00 00 00 00 0f 7e 72 31  .............~r1
	0x0050 00 01 be 01 00 00 00 00 00 06 00 00 00 00 00 00  ................
	0x0060 00 00 00 00 00 00 00 00 00 00 00 00 00 00 02 00  ................
	0x0070 00 00 c4 01 13 00 00 00 00 00 00 00 00 00 00     ...............
	rel 0+0 t=24 type.uint16+0
	rel 39+8 t=1 "".ReverseBytes16+0
	rel 47+8 t=1 "".ReverseBytes16+15
	rel 68+4 t=29 go.info.uint16+0
	rel 72+4 t=29 +0
	rel 84+4 t=29 go.info.uint16+0
	rel 90+4 t=29 go.info.math/bits.ReverseBytes16$abstract+0
	rel 94+8 t=1 "".ReverseBytes16+5
	rel 102+8 t=1 "".ReverseBytes16+9
	rel 117+4 t=29 go.info.math/bits.ReverseBytes16$abstract+28
	rel 121+4 t=29 +51
aux for "".RotateLeft64 SDWARFLOC size=51
	0x0000 ff ff ff ff ff ff ff ff 00 00 00 00 00 00 00 00  ................
	0x0010 00 00 00 00 00 00 00 00 0f 00 00 00 00 00 00 00  ................
	0x0020 01 00 9c 00 00 00 00 00 00 00 00 00 00 00 00 00  ................
	0x0030 00 00 00                                         ...
	rel 8+8 t=1 "".RotateLeft64+0
aux for "".RotateLeft64 SDWARFLINES size=13
	0x0000 04 02 03 cc 01 14 06 41 02 0a 00 01 01           .......A.....
aux for "".RotateLeft64 SDWARFINFO size=88
	0x0000 03 63 6f 6d 6d 61 6e 64 2d 6c 69 6e 65 2d 61 72  .command-line-ar
	0x0010 67 75 6d 65 6e 74 73 2e 52 6f 74 61 74 65 4c 65  guments.RotateLe
	0x0020 66 74 36 34 00 00 00 00 00 00 00 00 00 00 00 00  ft64............
	0x0030 00 00 00 00 00 01 9c 02 00 00 00 01 10 6e 00 00  .............n..
	0x0040 cb 01 00 00 00 00 00 00 00 00 0f 7e 72 31 00 01  ...........~r1..
	0x0050 cb 01 00 00 00 00 00 00                          ........
	rel 0+0 t=24 type.uint64+0
	rel 37+8 t=1 "".RotateLeft64+0
	rel 45+8 t=1 "".RotateLeft64+15
	rel 66+4 t=29 go.info.uint64+0
	rel 70+4 t=29 +0
	rel 82+4 t=29 go.info.uint64+0
aux for "".RotateLeft32 SDWARFLOC size=51
	0x0000 ff ff ff ff ff ff ff ff 00 00 00 00 00 00 00 00  ................
	0x0010 00 00 00 00 00 00 00 00 0c 00 00 00 00 00 00 00  ................
	0x0020 01 00 9c 00 00 00 00 00 00 00 00 00 00 00 00 00  ................
	0x0030 00 00 00                                         ...
	rel 8+8 t=1 "".RotateLeft32+0
aux for "".RotateLeft32 SDWARFLINES size=13
	0x0000 04 02 03 d7 01 14 06 37 02 08 00 01 01           .......7.....
aux for "".RotateLeft32 SDWARFINFO size=88
	0x0000 03 63 6f 6d 6d 61 6e 64 2d 6c 69 6e 65 2d 61 72  .command-line-ar
	0x0010 67 75 6d 65 6e 74 73 2e 52 6f 74 61 74 65 4c 65  guments.RotateLe
	0x0020 66 74 33 32 00 00 00 00 00 00 00 00 00 00 00 00  ft32............
	0x0030 00 00 00 00 00 01 9c 02 00 00 00 01 10 6e 00 00  .............n..
	0x0040 d5 01 00 00 00 00 00 00 00 00 0f 7e 72 31 00 01  ...........~r1..
	0x0050 d5 01 00 00 00 00 00 00                          ........
	rel 0+0 t=24 type.uint32+0
	rel 37+8 t=1 "".RotateLeft32+0
	rel 45+8 t=1 "".RotateLeft32+12
	rel 66+4 t=29 go.info.uint32+0
	rel 70+4 t=29 +0
	rel 82+4 t=29 go.info.uint32+0
aux for "".RotateLeft16 SDWARFLOC size=51
	0x0000 ff ff ff ff ff ff ff ff 00 00 00 00 00 00 00 00  ................
	0x0010 00 00 00 00 00 00 00 00 0f 00 00 00 00 00 00 00  ................
	0x0020 01 00 9c 00 00 00 00 00 00 00 00 00 00 00 00 00  ................
	0x0030 00 00 00                                         ...
	rel 8+8 t=1 "".RotateLeft16+0
aux for "".RotateLeft16 SDWARFLINES size=13
	0x0000 04 02 03 dc 01 14 06 41 02 0a 00 01 01           .......A.....
aux for "".RotateLeft16 SDWARFINFO size=88
	0x0000 03 63 6f 6d 6d 61 6e 64 2d 6c 69 6e 65 2d 61 72  .command-line-ar
	0x0010 67 75 6d 65 6e 74 73 2e 52 6f 74 61 74 65 4c 65  guments.RotateLe
	0x0020 66 74 31 36 00 00 00 00 00 00 00 00 00 00 00 00  ft16............
	0x0030 00 00 00 00 00 01 9c 02 00 00 00 01 10 6e 00 00  .............n..
	0x0040 e0 01 00 00 00 00 00 00 00 00 0f 7e 72 31 00 01  ...........~r1..
	0x0050 e0 01 00 00 00 00 00 00                          ........
	rel 0+0 t=24 type.uint16+0
	rel 37+8 t=1 "".RotateLeft16+0
	rel 45+8 t=1 "".RotateLeft16+15
	rel 66+4 t=29 go.info.uint16+0
	rel 70+4 t=29 +0
	rel 82+4 t=29 go.info.uint16+0
aux for "".RotateLeft8 SDWARFLOC size=51
	0x0000 ff ff ff ff ff ff ff ff 00 00 00 00 00 00 00 00  ................
	0x0010 00 00 00 00 00 00 00 00 0d 00 00 00 00 00 00 00  ................
	0x0020 01 00 9c 00 00 00 00 00 00 00 00 00 00 00 00 00  ................
	0x0030 00 00 00                                         ...
	rel 8+8 t=1 "".RotateLeft8+0
aux for "".RotateLeft8 SDWARFLINES size=13
	0x0000 04 02 03 e1 01 14 06 41 02 08 00 01 01           .......A.....
aux for "".RotateLeft8 SDWARFINFO size=87
	0x0000 03 63 6f 6d 6d 61 6e 64 2d 6c 69 6e 65 2d 61 72  .command-line-ar
	0x0010 67 75 6d 65 6e 74 73 2e 52 6f 74 61 74 65 4c 65  guments.RotateLe
	0x0020 66 74 38 00 00 00 00 00 00 00 00 00 00 00 00 00  ft8.............
	0x0030 00 00 00 00 01 9c 02 00 00 00 01 10 6e 00 00 e5  ............n...
	0x0040 01 00 00 00 00 00 00 00 00 0f 7e 72 31 00 01 e5  ..........~r1...
	0x0050 01 00 00 00 00 00 00                             .......
	rel 0+0 t=24 type.uint8+0
	rel 36+8 t=1 "".RotateLeft8+0
	rel 44+8 t=1 "".RotateLeft8+13
	rel 65+4 t=29 go.info.uint8+0
	rel 69+4 t=29 +0
	rel 81+4 t=29 go.info.uint8+0
aux for "".RotateLeftVariable SDWARFLOC size=103
	0x0000 ff ff ff ff ff ff ff ff 00 00 00 00 00 00 00 00  ................
	0x0010 00 00 00 00 00 00 00 00 13 00 00 00 00 00 00 00  ................
	0x0020 01 00 9c 00 00 00 00 00 00 00 00 00 00 00 00 00  ................
	0x0030 00 00 00 ff ff ff ff ff ff ff ff 00 00 00 00 00  ................
	0x0040 00 00 00 00 00 00 00 00 00 00 00 13 00 00 00 00  ................
	0x0050 00 00 00 02 00 91 08 00 00 00 00 00 00 00 00 00  ................
	0x0060 00 00 00 00 00 00 00                             .......
	rel 8+8 t=1 "".RotateLeftVariable+0
	rel 59+8 t=1 "".RotateLeftVariable+0
aux for "".RotateLeftVariable SDWARFLINES size=13
	0x0000 04 02 03 eb 01 14 06 41 02 0e 00 01 01           .......A.....
aux for "".RotateLeftVariable SDWARFINFO size=108
	0x0000 03 63 6f 6d 6d 61 6e 64 2d 6c 69 6e 65 2d 61 72  .command-line-ar
	0x0010 67 75 6d 65 6e 74 73 2e 52 6f 74 61 74 65 4c 65  guments.RotateLe
	0x0020 66 74 56 61 72 69 61 62 6c 65 00 00 00 00 00 00  ftVariable......
	0x0030 00 00 00 00 00 00 00 00 00 00 00 01 9c 02 00 00  ................
	0x0040 00 01 10 6e 00 00 ea 01 00 00 00 00 00 00 00 00  ...n............
	0x0050 10 6d 00 00 ea 01 00 00 00 00 00 00 00 00 0f 7e  .m.............~
	0x0060 72 32 00 01 ea 01 00 00 00 00 00 00              r2..........
	rel 0+0 t=24 type.int+0
	rel 0+0 t=24 type.uint+0
	rel 43+8 t=1 "".RotateLeftVariable+0
	rel 51+8 t=1 "".RotateLeftVariable+19
	rel 72+4 t=29 go.info.uint+0
	rel 76+4 t=29 +0
	rel 86+4 t=29 go.info.int+0
	rel 90+4 t=29 +51
	rel 102+4 t=29 go.info.uint+0
aux for "".RotateLeftVariable64 SDWARFLOC size=103
	0x0000 ff ff ff ff ff ff ff ff 00 00 00 00 00 00 00 00  ................
	0x0010 00 00 00 00 00 00 00 00 13 00 00 00 00 00 00 00  ................
	0x0020 01 00 9c 00 00 00 00 00 00 00 00 00 00 00 00 00  ................
	0x0030 00 00 00 ff ff ff ff ff ff ff ff 00 00 00 00 00  ................
	0x0040 00 00 00 00 00 00 00 00 00 00 00 13 00 00 00 00  ................
	0x0050 00 00 00 02 00 91 08 00 00 00 00 00 00 00 00 00  ................
	0x0060 00 00 00 00 00 00 00                             .......
	rel 8+8 t=1 "".RotateLeftVariable64+0
	rel 59+8 t=1 "".RotateLeftVariable64+0
aux for "".RotateLeftVariable64 SDWARFLINES size=13
	0x0000 04 02 03 f5 01 14 06 41 02 0e 00 01 01           .......A.....
aux for "".RotateLeftVariable64 SDWARFINFO size=110
	0x0000 03 63 6f 6d 6d 61 6e 64 2d 6c 69 6e 65 2d 61 72  .command-line-ar
	0x0010 67 75 6d 65 6e 74 73 2e 52 6f 74 61 74 65 4c 65  guments.RotateLe
	0x0020 66 74 56 61 72 69 61 62 6c 65 36 34 00 00 00 00  ftVariable64....
	0x0030 00 00 00 00 00 00 00 00 00 00 00 00 00 01 9c 02  ................
	0x0040 00 00 00 01 10 6e 00 00 f4 01 00 00 00 00 00 00  .....n..........
	0x0050 00 00 10 6d 00 00 f4 01 00 00 00 00 00 00 00 00  ...m............
	0x0060 0f 7e 72 32 00 01 f4 01 00 00 00 00 00 00        .~r2..........
	rel 0+0 t=24 type.int+0
	rel 0+0 t=24 type.uint64+0
	rel 45+8 t=1 "".RotateLeftVariable64+0
	rel 53+8 t=1 "".RotateLeftVariable64+19
	rel 74+4 t=29 go.info.uint64+0
	rel 78+4 t=29 +0
	rel 88+4 t=29 go.info.int+0
	rel 92+4 t=29 +51
	rel 104+4 t=29 go.info.uint64+0
aux for "".RotateLeftVariable32 SDWARFLOC size=103
	0x0000 ff ff ff ff ff ff ff ff 00 00 00 00 00 00 00 00  ................
	0x0010 00 00 00 00 00 00 00 00 10 00 00 00 00 00 00 00  ................
	0x0020 01 00 9c 00 00 00 00 00 00 00 00 00 00 00 00 00  ................
	0x0030 00 00 00 ff ff ff ff ff ff ff ff 00 00 00 00 00  ................
	0x0040 00 00 00 00 00 00 00 00 00 00 00 10 00 00 00 00  ................
	0x0050 00 00 00 02 00 91 08 00 00 00 00 00 00 00 00 00  ................
	0x0060 00 00 00 00 00 00 00                             .......
	rel 8+8 t=1 "".RotateLeftVariable32+0
	rel 59+8 t=1 "".RotateLeftVariable32+0
aux for "".RotateLeftVariable32 SDWARFLINES size=13
	0x0000 04 02 03 80 02 14 06 41 02 0b 00 01 01           .......A.....
aux for "".RotateLeftVariable32 SDWARFINFO size=110
	0x0000 03 63 6f 6d 6d 61 6e 64 2d 6c 69 6e 65 2d 61 72  .command-line-ar
	0x0010 67 75 6d 65 6e 74 73 2e 52 6f 74 61 74 65 4c 65  guments.RotateLe
	0x0020 66 74 56 61 72 69 61 62 6c 65 33 32 00 00 00 00  ftVariable32....
	0x0030 00 00 00 00 00 00 00 00 00 00 00 00 00 01 9c 02  ................
	0x0040 00 00 00 01 10 6e 00 00 fe 01 00 00 00 00 00 00  .....n..........
	0x0050 00 00 10 6d 00 00 fe 01 00 00 00 00 00 00 00 00  ...m............
	0x0060 0f 7e 72 32 00 01 fe 01 00 00 00 00 00 00        .~r2..........
	rel 0+0 t=24 type.int+0
	rel 0+0 t=24 type.uint32+0
	rel 45+8 t=1 "".RotateLeftVariable32+0
	rel 53+8 t=1 "".RotateLeftVariable32+16
	rel 74+4 t=29 go.info.uint32+0
	rel 78+4 t=29 +0
	rel 88+4 t=29 go.info.int+0
	rel 92+4 t=29 +51
	rel 104+4 t=29 go.info.uint32+0
aux for "".TrailingZeros SDWARFRANGE size=64
	0x0000 ff ff ff ff ff ff ff ff 00 00 00 00 00 00 00 00  ................
	0x0010 00 00 00 00 00 00 00 00 09 00 00 00 00 00 00 00  ................
	0x0020 09 00 00 00 00 00 00 00 12 00 00 00 00 00 00 00  ................
	0x0030 00 00 00 00 00 00 00 00 00 00 00 00 00 00 00 00  ................
	rel 8+8 t=1 "".TrailingZeros+0
aux for "".TrailingZeros SDWARFLOC size=102
	0x0000 ff ff ff ff ff ff ff ff 00 00 00 00 00 00 00 00  ................
	0x0010 00 00 00 00 00 00 00 00 18 00 00 00 00 00 00 00  ................
	0x0020 01 00 9c 00 00 00 00 00 00 00 00 00 00 00 00 00  ................
	0x0030 00 00 00 ff ff ff ff ff ff ff ff 00 00 00 00 00  ................
	0x0040 00 00 00 00 00 00 00 00 00 00 00 18 00 00 00 00  ................
	0x0050 00 00 00 01 00 9c 00 00 00 00 00 00 00 00 00 00  ................
	0x0060 00 00 00 00 00 00                                ......
	rel 8+8 t=1 "".TrailingZeros+0
	rel 59+8 t=1 "".TrailingZeros+0
aux for "".TrailingZeros SDWARFLINES size=21
	0x0000 04 03 03 33 14 06 41 04 02 06 03 d9 01 96 06 41  ...3..A........A
	0x0010 02 01 00 01 01                                   .....
aux for "".TrailingZeros SDWARFINFO size=114
	0x0000 03 63 6f 6d 6d 61 6e 64 2d 6c 69 6e 65 2d 61 72  .command-line-ar
	0x0010 67 75 6d 65 6e 74 73 2e 54 72 61 69 6c 69 6e 67  guments.Trailing
	0x0020 5a 65 72 6f 73 00 00 00 00 00 00 00 00 00 00 00  Zeros...........
	0x0030 00 00 00 00 00 00 01 9c 02 00 00 00 01 10 6e 00  ..............n.
	0x0040 00 8d 02 00 00 00 00 00 00 00 00 0f 7e 72 31 00  ............~r1.
	0x0050 01 8d 02 00 00 00 00 00 07 00 00 00 00 00 00 00  ................
	0x0060 00 02 00 00 00 97 02 13 00 00 00 00 00 00 00 00  ................
	0x0070 00 00                                            ..
	rel 0+0 t=24 type.int+0
	rel 0+0 t=24 type.uint+0
	rel 38+8 t=1 "".TrailingZeros+0
	rel 46+8 t=1 "".TrailingZeros+24
	rel 67+4 t=29 go.info.uint+0
	rel 71+4 t=29 +0
	rel 83+4 t=29 go.info.int+0
	rel 89+4 t=29 go.info.math/bits.TrailingZeros$abstract+0
	rel 93+4 t=29 +0
	rel 104+4 t=29 go.info.math/bits.TrailingZeros$abstract+27
	rel 108+4 t=29 +51
aux for "".TrailingZeros64 SDWARFLOC size=51
	0x0000 ff ff ff ff ff ff ff ff 00 00 00 00 00 00 00 00  ................
	0x0010 00 00 00 00 00 00 00 00 18 00 00 00 00 00 00 00  ................
	0x0020 01 00 9c 00 00 00 00 00 00 00 00 00 00 00 00 00  ................
	0x0030 00 00 00                                         ...
	rel 8+8 t=1 "".TrailingZeros64+0
aux for "".TrailingZeros64 SDWARFLINES size=13
	0x0000 04 02 03 9d 02 14 06 41 02 13 00 01 01           .......A.....
aux for "".TrailingZeros64 SDWARFINFO size=91
	0x0000 03 63 6f 6d 6d 61 6e 64 2d 6c 69 6e 65 2d 61 72  .command-line-ar
	0x0010 67 75 6d 65 6e 74 73 2e 54 72 61 69 6c 69 6e 67  guments.Trailing
	0x0020 5a 65 72 6f 73 36 34 00 00 00 00 00 00 00 00 00  Zeros64.........
	0x0030 00 00 00 00 00 00 00 00 01 9c 02 00 00 00 01 10  ................
	0x0040 6e 00 00 9a 02 00 00 00 00 00 00 00 00 0f 7e 72  n.............~r
	0x0050 31 00 01 9a 02 00 00 00 00 00 00                 1..........
	rel 0+0 t=24 type.int+0
	rel 0+0 t=24 type.uint64+0
	rel 40+8 t=1 "".TrailingZeros64+0
	rel 48+8 t=1 "".TrailingZeros64+24
	rel 69+4 t=29 go.info.uint64+0
	rel 73+4 t=29 +0
	rel 85+4 t=29 go.info.int+0
aux for "".TrailingZeros32 SDWARFLOC size=51
	0x0000 ff ff ff ff ff ff ff ff 00 00 00 00 00 00 00 00  ................
	0x0010 00 00 00 00 00 00 00 00 13 00 00 00 00 00 00 00  ................
	0x0020 01 00 9c 00 00 00 00 00 00 00 00 00 00 00 00 00  ................
	0x0030 00 00 00                                         ...
	rel 8+8 t=1 "".TrailingZeros32+0
aux for "".TrailingZeros32 SDWARFLINES size=13
	0x0000 04 02 03 aa 02 14 06 37 02 0f 00 01 01           .......7.....
aux for "".TrailingZeros32 SDWARFINFO size=91
	0x0000 03 63 6f 6d 6d 61 6e 64 2d 6c 69 6e 65 2d 61 72  .command-line-ar
	0x0010 67 75 6d 65 6e 74 73 2e 54 72 61 69 6c 69 6e 67  guments.Trailing
	0x0020 5a 65 72 6f 73 33 32 00 00 00 00 00 00 00 00 00  Zeros32.........
	0x0030 00 00 00 00 00 00 00 00 01 9c 02 00 00 00 01 10  ................
	0x0040 6e 00 00 a6 02 00 00 00 00 00 00 00 00 0f 7e 72  n.............~r
	0x0050 31 00 01 a6 02 00 00 00 00 00 00                 1..........
	rel 0+0 t=24 type.int+0
	rel 0+0 t=24 type.uint32+0
	rel 40+8 t=1 "".TrailingZeros32+0
	rel 48+8 t=1 "".TrailingZeros32+19
	rel 69+4 t=29 go.info.uint32+0
	rel 73+4 t=29 +0
	rel 85+4 t=29 go.info.int+0
aux for "".TrailingZeros16 SDWARFLOC size=51
	0x0000 ff ff ff ff ff ff ff ff 00 00 00 00 00 00 00 00  ................
	0x0010 00 00 00 00 00 00 00 00 12 00 00 00 00 00 00 00  ................
	0x0020 01 00 9c 00 00 00 00 00 00 00 00 00 00 00 00 00  ................
	0x0030 00 00 00                                         ...
	rel 8+8 t=1 "".TrailingZeros16+0
aux for "".TrailingZeros16 SDWARFLINES size=13
	0x0000 04 02 03 b8 02 14 06 41 02 0d 00 01 01           .......A.....
aux for "".TrailingZeros16 SDWARFINFO size=91
	0x0000 03 63 6f 6d 6d 61 6e 64 2d 6c 69 6e 65 2d 61 72  .command-line-ar
	0x0010 67 75 6d 65 6e 74 73 2e 54 72 61 69 6c 69 6e 67  guments.Trailing
	0x0020 5a 65 72 6f 73 31 36 00 00 00 00 00 00 00 00 00  Zeros16.........
	0x0030 00 00 00 00 00 00 00 00 01 9c 02 00 00 00 01 10  ................
	0x0040 6e 00 00 b3 02 00 00 00 00 00 00 00 00 0f 7e 72  n.............~r
	0x0050 31 00 01 b3 02 00 00 00 00 00 00                 1..........
	rel 0+0 t=24 type.int+0
	rel 0+0 t=24 type.uint16+0
	rel 40+8 t=1 "".TrailingZeros16+0
	rel 48+8 t=1 "".TrailingZeros16+18
	rel 69+4 t=29 go.info.uint16+0
	rel 73+4 t=29 +0
	rel 85+4 t=29 go.info.int+0
aux for "".TrailingZeros8 SDWARFLOC size=51
	0x0000 ff ff ff ff ff ff ff ff 00 00 00 00 00 00 00 00  ................
	0x0010 00 00 00 00 00 00 00 00 12 00 00 00 00 00 00 00  ................
	0x0020 01 00 9c 00 00 00 00 00 00 00 00 00 00 00 00 00  ................
	0x0030 00 00 00                                         ...
	rel 8+8 t=1 "".TrailingZeros8+0
aux for "".TrailingZeros8 SDWARFLINES size=13
	0x0000 04 02 03 c1 02 14 06 41 02 0d 00 01 01           .......A.....
aux for "".TrailingZeros8 SDWARFINFO size=90
	0x0000 03 63 6f 6d 6d 61 6e 64 2d 6c 69 6e 65 2d 61 72  .command-line-ar
	0x0010 67 75 6d 65 6e 74 73 2e 54 72 61 69 6c 69 6e 67  guments.Trailing
	0x0020 5a 65 72 6f 73 38 00 00 00 00 00 00 00 00 00 00  Zeros8..........
	0x0030 00 00 00 00 00 00 00 01 9c 02 00 00 00 01 10 6e  ...............n
	0x0040 00 00 c1 02 00 00 00 00 00 00 00 00 0f 7e 72 31  .............~r1
	0x0050 00 01 c1 02 00 00 00 00 00 00                    ..........
	rel 0+0 t=24 type.int+0
	rel 0+0 t=24 type.uint8+0
	rel 39+8 t=1 "".TrailingZeros8+0
	rel 47+8 t=1 "".TrailingZeros8+18
	rel 68+4 t=29 go.info.uint8+0
	rel 72+4 t=29 +0
	rel 84+4 t=29 go.info.int+0
aux for "".IterateBits SDWARFLOC size=153
	0x0000 ff ff ff ff ff ff ff ff 00 00 00 00 00 00 00 00  ................
	0x0010 10 00 00 00 00 00 00 00 22 00 00 00 00 00 00 00  ........".......
	0x0020 01 00 52 00 00 00 00 00 00 00 00 00 00 00 00 00  ..R.............
	0x0030 00 00 00 ff ff ff ff ff ff ff ff 00 00 00 00 00  ................
	0x0040 00 00 00 00 00 00 00 00 00 00 00 22 00 00 00 00  ..........."....
	0x0050 00 00 00 01 00 9c 00 00 00 00 00 00 00 00 00 00  ................
	0x0060 00 00 00 00 00 00 ff ff ff ff ff ff ff ff 00 00  ................
	0x0070 00 00 00 00 00 00 17 00 00 00 00 00 00 00 22 00  ..............".
	0x0080 00 00 00 00 00 00 01 00 50 00 00 00 00 00 00 00  ........P.......
	0x0090 00 00 00 00 00 00 00 00 00                       .........
	rel 8+8 t=1 "".IterateBits+0
	rel 59+8 t=1 "".IterateBits+0
	rel 110+8 t=1 "".IterateBits+0
aux for "".IterateBits SDWARFLINES size=37
	0x0000 04 02 03 c8 02 14 06 41 04 03 06 03 ef 7d 33 04  .......A.....}3.
	0x0010 02 03 92 02 3c 2e 06 37 06 2a 06 2d 06 28 06 41  ....<..7.*.-.(.A
	0x0020 02 01 00 01 01                                   .....
aux for "".IterateBits SDWARFINFO size=137
	0x0000 03 63 6f 6d 6d 61 6e 64 2d 6c 69 6e 65 2d 61 72  .command-line-ar
	0x0010 67 75 6d 65 6e 74 73 2e 49 74 65 72 61 74 65 42  guments.IterateB
	0x0020 69 74 73 00 00 00 00 00 00 00 00 00 00 00 00 00  its.............
	0x0030 00 00 00 00 01 9c 02 00 00 00 01 0b 69 00 cd 02  ............i...
	0x0040 00 00 00 00 00 00 00 00 10 6e 00 00 cc 02 00 00  .........n......
	0x0050 00 00 00 00 00 00 0f 7e 72 31 00 01 cc 02 00 00  .......~r1......
	0x0060 00 00 00 06 00 00 00 00 00 00 00 00 00 00 00 00  ................
	0x0070 00 00 00 00 00 00 00 00 02 00 00 00 d0 02 13 00  ................
	0x0080 00 00 00 00 00 00 00 00 00                       .........
	rel 0+0 t=24 type.int+0
	rel 0+0 t=24 type.uint+0
	rel 36+8 t=1 "".IterateBits+0
	rel 44+8 t=1 "".IterateBits+34
	rel 64+4 t=29 go.info.int+0
	rel 68+4 t=29 +0
	rel 78+4 t=29 go.info.uint+0
	rel 82+4 t=29 +51
	rel 94+4 t=29 go.info.int+0
	rel 100+4 t=29 go.info.math/bits.TrailingZeros$abstract+0
	rel 104+8 t=1 "".IterateBits+9
	rel 112+8 t=1 "".IterateBits+13
	rel 127+4 t=29 go.info.math/bits.TrailingZeros$abstract+27
	rel 131+4 t=29 +102
aux for "".IterateBits64 SDWARFLOC size=102
	0x0000 ff ff ff ff ff ff ff ff 00 00 00 00 00 00 00 00  ................
	0x0010 10 00 00 00 00 00 00 00 22 00 00 00 00 00 00 00  ........".......
	0x0020 01 00 52 00 00 00 00 00 00 00 00 00 00 00 00 00  ..R.............
	0x0030 00 00 00 ff ff ff ff ff ff ff ff 00 00 00 00 00  ................
	0x0040 00 00 00 00 00 00 00 00 00 00 00 22 00 00 00 00  ..........."....
	0x0050 00 00 00 01 00 9c 00 00 00 00 00 00 00 00 00 00  ................
	0x0060 00 00 00 00 00 00                                ......
	rel 8+8 t=1 "".IterateBits64+0
	rel 59+8 t=1 "".IterateBits64+0
aux for "".IterateBits64 SDWARFLINES size=29
	0x0000 04 02 03 d2 02 14 06 41 06 39 06 37 06 2e 06 37  .......A.9.7...7
	0x0010 06 2a 06 2d 06 28 06 41 02 01 00 01 01           .*.-.(.A.....
aux for "".IterateBits64 SDWARFINFO size=102
	0x0000 03 63 6f 6d 6d 61 6e 64 2d 6c 69 6e 65 2d 61 72  .command-line-ar
	0x0010 67 75 6d 65 6e 74 73 2e 49 74 65 72 61 74 65 42  guments.IterateB
	0x0020 69 74 73 36 34 00 00 00 00 00 00 00 00 00 00 00  its64...........
	0x0030 00 00 00 00 00 00 01 9c 02 00 00 00 01 0b 69 00  ..............i.
	0x0040 d7 02 00 00 00 00 00 00 00 00 10 6e 00 00 d6 02  ...........n....
	0x0050 00 00 00 00 00 00 00 00 0f 7e 72 31 00 01 d6 02  .........~r1....
	0x0060 00 00 00 00 00 00                                ......
	rel 0+0 t=24 type.int+0
	rel 0+0 t=24 type.uint64+0
	rel 38+8 t=1 "".IterateBits64+0
	rel 46+8 t=1 "".IterateBits64+34
	rel 66+4 t=29 go.info.int+0
	rel 70+4 t=29 +0
	rel 80+4 t=29 go.info.uint64+0
	rel 84+4 t=29 +51
	rel 96+4 t=29 go.info.int+0
aux for "".IterateBits32 SDWARFLOC size=102
	0x0000 ff ff ff ff ff ff ff ff 00 00 00 00 00 00 00 00  ................
	0x0010 0e 00 00 00 00 00 00 00 1d 00 00 00 00 00 00 00  ................
	0x0020 01 00 52 00 00 00 00 00 00 00 00 00 00 00 00 00  ..R.............
	0x0030 00 00 00 ff ff ff ff ff ff ff ff 00 00 00 00 00  ................
	0x0040 00 00 00 00 00 00 00 00 00 00 00 1d 00 00 00 00  ................
	0x0050 00 00 00 01 00 9c 00 00 00 00 00 00 00 00 00 00  ................
	0x0060 00 00 00 00 00 00                                ......
	rel 8+8 t=1 "".IterateBits32+0
	rel 59+8 t=1 "".IterateBits32+0
aux for "".IterateBits32 SDWARFLINES size=29
	0x0000 04 02 03 dc 02 14 06 37 06 39 06 2d 06 2e 06 2d  .......7.9.-...-
	0x0010 06 20 06 23 06 28 06 41 02 01 00 01 01           . .#.(.A.....
aux for "".IterateBits32 SDWARFINFO size=102
	0x0000 03 63 6f 6d 6d 61 6e 64 2d 6c 69 6e 65 2d 61 72  .command-line-ar
	0x0010 67 75 6d 65 6e 74 73 2e 49 74 65 72 61 74 65 42  guments.IterateB
	0x0020 69 74 73 33 32 00 00 00 00 00 00 00 00 00 00 00  its32...........
	0x0030 00 00 00 00 00 00 01 9c 02 00 00 00 01 0b 69 00  ..............i.
	0x0040 e1 02 00 00 00 00 00 00 00 00 10 6e 00 00 e0 02  ...........n....
	0x0050 00 00 00 00 00 00 00 00 0f 7e 72 31 00 01 e0 02  .........~r1....
	0x0060 00 00 00 00 00 00                                ......
	rel 0+0 t=24 type.int+0
	rel 0+0 t=24 type.uint32+0
	rel 38+8 t=1 "".IterateBits32+0
	rel 46+8 t=1 "".IterateBits32+29
	rel 66+4 t=29 go.info.int+0
	rel 70+4 t=29 +0
	rel 80+4 t=29 go.info.uint32+0
	rel 84+4 t=29 +51
	rel 96+4 t=29 go.info.int+0
aux for "".IterateBits16 SDWARFLOC size=102
	0x0000 ff ff ff ff ff ff ff ff 00 00 00 00 00 00 00 00  ................
	0x0010 0f 00 00 00 00 00 00 00 1f 00 00 00 00 00 00 00  ................
	0x0020 01 00 52 00 00 00 00 00 00 00 00 00 00 00 00 00  ..R.............
	0x0030 00 00 00 ff ff ff ff ff ff ff ff 00 00 00 00 00  ................
	0x0040 00 00 00 00 00 00 00 00 00 00 00 1f 00 00 00 00  ................
	0x0050 00 00 00 01 00 9c 00 00 00 00 00 00 00 00 00 00  ................
	0x0060 00 00 00 00 00 00                                ......
	rel 8+8 t=1 "".IterateBits16+0
	rel 59+8 t=1 "".IterateBits16+0
aux for "".IterateBits16 SDWARFLINES size=31
	0x0000 04 02 03 e6 02 14 06 41 06 3a 06 2d 06 2e 06 2d  .......A.:.-...-
	0x0010 06 1f 06 2d 06 03 01 28 06 41 02 01 00 01 01     ...-...(.A.....
aux for "".IterateBits16 SDWARFINFO size=102
	0x0000 03 63 6f 6d 6d 61 6e 64 2d 6c 69 6e 65 2d 61 72  .command-line-ar
	0x0010 67 75 6d 65 6e 74 73 2e 49 74 65 72 61 74 65 42  guments.IterateB
	0x0020 69 74 73 31 36 00 00 00 00 00 00 00 00 00 00 00  its16...........
	0x0030 00 00 00 00 00 00 01 9c 02 00 00 00 01 0b 69 00  ..............i.
	0x0040 eb 02 00 00 00 00 00 00 00 00 10 6e 00 00 ea 02  ...........n....
	0x0050 00 00 00 00 00 00 00 00 0f 7e 72 31 00 01 ea 02  .........~r1....
	0x0060 00 00 00 00 00 00                                ......
	rel 0+0 t=24 type.int+0
	rel 0+0 t=24 type.uint16+0
	rel 38+8 t=1 "".IterateBits16+0
	rel 46+8 t=1 "".IterateBits16+31
	rel 66+4 t=29 go.info.int+0
	rel 70+4 t=29 +0
	rel 80+4 t=29 go.info.uint16+0
	rel 84+4 t=29 +51
	rel 96+4 t=29 go.info.int+0
aux for "".IterateBits8 SDWARFLOC size=102
	0x0000 ff ff ff ff ff ff ff ff 00 00 00 00 00 00 00 00  ................
	0x0010 0f 00 00 00 00 00 00 00 1e 00 00 00 00 00 00 00  ................
	0x0020 01 00 52 00 00 00 00 00 00 00 00 00 00 00 00 00  ..R.............
	0x0030 00 00 00 ff ff ff ff ff ff ff ff 00 00 00 00 00  ................
	0x0040 00 00 00 00 00 00 00 00 00 00 00 1e 00 00 00 00  ................
	0x0050 00 00 00 01 00 9c 00 00 00 00 00 00 00 00 00 00  ................
	0x0060 00 00 00 00 00 00                                ......
	rel 8+8 t=1 "".IterateBits8+0
	rel 59+8 t=1 "".IterateBits8+0
aux for "".IterateBits8 SDWARFLINES size=31
	0x0000 04 02 03 f1 02 14 06 41 06 3a 06 2d 06 2e 06 2d  .......A.:.-...-
	0x0010 06 1f 06 23 06 03 01 28 06 41 02 01 00 01 01     ...#...(.A.....
aux for "".IterateBits8 SDWARFINFO size=101
	0x0000 03 63 6f 6d 6d 61 6e 64 2d 6c 69 6e 65 2d 61 72  .command-line-ar
	0x0010 67 75 6d 65 6e 74 73 2e 49 74 65 72 61 74 65 42  guments.IterateB
	0x0020 69 74 73 38 00 00 00 00 00 00 00 00 00 00 00 00  its8............
	0x0030 00 00 00 00 00 01 9c 02 00 00 00 01 0b 69 00 f6  .............i..
	0x0040 02 00 00 00 00 00 00 00 00 10 6e 00 00 f5 02 00  ..........n.....
	0x0050 00 00 00 00 00 00 00 0f 7e 72 31 00 01 f5 02 00  ........~r1.....
	0x0060 00 00 00 00 00                                   .....
	rel 0+0 t=24 type.int+0
	rel 0+0 t=24 type.uint8+0
	rel 37+8 t=1 "".IterateBits8+0
	rel 45+8 t=1 "".IterateBits8+30
	rel 65+4 t=29 go.info.int+0
	rel 69+4 t=29 +0
	rel 79+4 t=29 go.info.uint8+0
	rel 83+4 t=29 +51
	rel 95+4 t=29 go.info.int+0
aux for "".Add SDWARFLOC size=259
	0x0000 ff ff ff ff ff ff ff ff 00 00 00 00 00 00 00 00  ................
	0x0010 00 00 00 00 00 00 00 00 25 00 00 00 00 00 00 00  ........%.......
	0x0020 01 00 9c 00 00 00 00 00 00 00 00 00 00 00 00 00  ................
	0x0030 00 00 00 ff ff ff ff ff ff ff ff 00 00 00 00 00  ................
	0x0040 00 00 00 00 00 00 00 00 00 00 00 25 00 00 00 00  ...........%....
	0x0050 00 00 00 02 00 91 08 00 00 00 00 00 00 00 00 00  ................
	0x0060 00 00 00 00 00 00 00 ff ff ff ff ff ff ff ff 00  ................
	0x0070 00 00 00 00 00 00 00 00 00 00 00 00 00 00 00 25  ...............%
	0x0080 00 00 00 00 00 00 00 02 00 91 10 00 00 00 00 00  ................
	0x0090 00 00 00 00 00 00 00 00 00 00 00 ff ff ff ff ff  ................
	0x00a0 ff ff ff 00 00 00 00 00 00 00 00 19 00 00 00 00  ................
	0x00b0 00 00 00 25 00 00 00 00 00 00 00 02 00 91 18 00  ...%............
	0x00c0 00 00 00 00 00 00 00 00 00 00 00 00 00 00 00 ff  ................
	0x00d0 ff ff ff ff ff ff ff 00 00 00 00 00 00 00 00 1c  ................
	0x00e0 00 00 00 00 00 00 00 25 00 00 00 00 00 00 00 02  .......%........
	0x00f0 00 91 20 00 00 00 00 00 00 00 00 00 00 00 00 00  .. .............
	0x0100 00 00 00                                         ...
	rel 8+8 t=1 "".Add+0
	rel 59+8 t=1 "".Add+0
	rel 111+8 t=1 "".Add+0
	rel 163+8 t=1 "".Add+0
	rel 215+8 t=1 "".Add+0
aux for "".Add SDWARFLINES size=13
	0x0000 04 02 03 82 03 14 06 41 02 20 00 01 01           .......A. ...
aux for "".Add SDWARFINFO size=124
	0x0000 03 63 6f 6d 6d 61 6e 64 2d 6c 69 6e 65 2d 61 72  .command-line-ar
	0x0010 67 75 6d 65 6e 74 73 2e 41 64 64 00 00 00 00 00  guments.Add.....
	0x0020 00 00 00 00 00 00 00 00 00 00 00 00 01 9c 02 00  ................
	0x0030 00 00 01 10 78 00 00 84 03 00 00 00 00 00 00 00  ....x...........
	0x0040 00 10 79 00 00 84 03 00 00 00 00 00 00 00 00 10  ..y.............
	0x0050 63 69 00 00 84 03 00 00 00 00 00 00 00 00 10 72  ci.............r
	0x0060 00 01 84 03 00 00 00 00 00 00 00 00 10 63 6f 00  .............co.
	0x0070 01 84 03 00 00 00 00 00 00 00 00 00              ............
	rel 0+0 t=24 type.uint+0
	rel 28+8 t=1 "".Add+0
	rel 36+8 t=1 "".Add+37
	rel 57+4 t=29 go.info.uint+0
	rel 61+4 t=29 +0
	rel 71+4 t=29 go.info.uint+0
	rel 75+4 t=29 +51
	rel 86+4 t=29 go.info.uint+0
	rel 90+4 t=29 +103
	rel 100+4 t=29 go.info.uint+0
	rel 104+4 t=29 +155
	rel 115+4 t=29 go.info.uint+0
	rel 119+4 t=29 +207
aux for "".AddC SDWARFLOC size=207
	0x0000 ff ff ff ff ff ff ff ff 00 00 00 00 00 00 00 00  ................
	0x0010 00 00 00 00 00 00 00 00 21 00 00 00 00 00 00 00  ........!.......
	0x0020 01 00 9c 00 00 00 00 00 00 00 00 00 00 00 00 00  ................
	0x0030 00 00 00 ff ff ff ff ff ff ff ff 00 00 00 00 00  ................
	0x0040 00 00 00 00 00 00 00 00 00 00 00 21 00 00 00 00  ...........!....
	0x0050 00 00 00 02 00 91 08 00 00 00 00 00 00 00 00 00  ................
	0x0060 00 00 00 00 00 00 00 ff ff ff ff ff ff ff ff 00  ................
	0x0070 00 00 00 00 00 00 00 15 00 00 00 00 00 00 00 21  ...............!
	0x0080 00 00 00 00 00 00 00 02 00 91 10 00 00 00 00 00  ................
	0x0090 00 00 00 00 00 00 00 00 00 00 00 ff ff ff ff ff  ................
	0x00a0 ff ff ff 00 00 00 00 00 00 00 00 18 00 00 00 00  ................
	0x00b0 00 00 00 21 00 00 00 00 00 00 00 02 00 91 18 00  ...!............
	0x00c0 00 00 00 00 00 00 00 00 00 00 00 00 00 00 00     ...............
	rel 8+8 t=1 "".AddC+0
	rel 59+8 t=1 "".AddC+0
	rel 111+8 t=1 "".AddC+0
	rel 163+8 t=1 "".AddC+0
aux for "".AddC SDWARFLINES size=13
	0x0000 04 02 03 89 03 14 06 41 02 1c 00 01 01           .......A.....
aux for "".AddC SDWARFINFO size=111
	0x0000 03 63 6f 6d 6d 61 6e 64 2d 6c 69 6e 65 2d 61 72  .command-line-ar
	0x0010 67 75 6d 65 6e 74 73 2e 41 64 64 43 00 00 00 00  guments.AddC....
	0x0020 00 00 00 00 00 00 00 00 00 00 00 00 00 01 9c 02  ................
	0x0030 00 00 00 01 10 78 00 00 8b 03 00 00 00 00 00 00  .....x..........
	0x0040 00 00 10 63 69 00 00 8b 03 00 00 00 00 00 00 00  ...ci...........
	0x0050 00 10 72 00 01 8b 03 00 00 00 00 00 00 00 00 10  ..r.............
	0x0060 63 6f 00 01 8b 03 00 00 00 00 00 00 00 00 00     co.............
	rel 0+0 t=24 type.uint+0
	rel 29+8 t=1 "".AddC+0
	rel 37+8 t=1 "".AddC+33
	rel 58+4 t=29 go.info.uint+0
	rel 62+4 t=29 +0
	rel 73+4 t=29 go.info.uint+0
	rel 77+4 t=29 +51
	rel 87+4 t=29 go.info.uint+0
	rel 91+4 t=29 +103
	rel 102+4 t=29 go.info.uint+0
	rel 106+4 t=29 +155
aux for "".AddZ SDWARFLOC size=207
	0x0000 ff ff ff ff ff ff ff ff 00 00 00 00 00 00 00 00  ................
	0x0010 00 00 00 00 00 00 00 00 1e 00 00 00 00 00 00 00  ................
	0x0020 01 00 9c 00 00 00 00 00 00 00 00 00 00 00 00 00  ................
	0x0030 00 00 00 ff ff ff ff ff ff ff ff 00 00 00 00 00  ................
	0x0040 00 00 00 00 00 00 00 00 00 00 00 1e 00 00 00 00  ................
	0x0050 00 00 00 02 00 91 08 00 00 00 00 00 00 00 00 00  ................
	0x0060 00 00 00 00 00 00 00 ff ff ff ff ff ff ff ff 00  ................
	0x0070 00 00 00 00 00 00 00 12 00 00 00 00 00 00 00 1e  ................
	0x0080 00 00 00 00 00 00 00 02 00 91 10 00 00 00 00 00  ................
	0x0090 00 00 00 00 00 00 00 00 00 00 00 ff ff ff ff ff  ................
	0x00a0 ff ff ff 00 00 00 00 00 00 00 00 15 00 00 00 00  ................
	0x00b0 00 00 00 1e 00 00 00 00 00 00 00 02 00 91 18 00  ................
	0x00c0 00 00 00 00 00 00 00 00 00 00 00 00 00 00 00     ...............
	rel 8+8 t=1 "".AddZ+0
	rel 59+8 t=1 "".AddZ+0
	rel 111+8 t=1 "".AddZ+0
	rel 163+8 t=1 "".AddZ+0
aux for "".AddZ SDWARFLINES size=13
	0x0000 04 02 03 90 03 14 06 41 02 19 00 01 01           .......A.....
aux for "".AddZ SDWARFINFO size=110
	0x0000 03 63 6f 6d 6d 61 6e 64 2d 6c 69 6e 65 2d 61 72  .command-line-ar
	0x0010 67 75 6d 65 6e 74 73 2e 41 64 64 5a 00 00 00 00  guments.AddZ....
	0x0020 00 00 00 00 00 00 00 00 00 00 00 00 00 01 9c 02  ................
	0x0030 00 00 00 01 10 78 00 00 92 03 00 00 00 00 00 00  .....x..........
	0x0040 00 00 10 79 00 00 92 03 00 00 00 00 00 00 00 00  ...y............
	0x0050 10 72 00 01 92 03 00 00 00 00 00 00 00 00 10 63  .r.............c
	0x0060 6f 00 01 92 03 00 00 00 00 00 00 00 00 00        o.............
	rel 0+0 t=24 type.uint+0
	rel 29+8 t=1 "".AddZ+0
	rel 37+8 t=1 "".AddZ+30
	rel 58+4 t=29 go.info.uint+0
	rel 62+4 t=29 +0
	rel 72+4 t=29 go.info.uint+0
	rel 76+4 t=29 +51
	rel 86+4 t=29 go.info.uint+0
	rel 90+4 t=29 +103
	rel 101+4 t=29 go.info.uint+0
	rel 105+4 t=29 +155
aux for "".AddR SDWARFLOC size=206
	0x0000 ff ff ff ff ff ff ff ff 00 00 00 00 00 00 00 00  ................
	0x0010 19 00 00 00 00 00 00 00 1a 00 00 00 00 00 00 00  ................
	0x0020 01 00 50 00 00 00 00 00 00 00 00 00 00 00 00 00  ..P.............
	0x0030 00 00 00 ff ff ff ff ff ff ff ff 00 00 00 00 00  ................
	0x0040 00 00 00 00 00 00 00 00 00 00 00 1a 00 00 00 00  ................
	0x0050 00 00 00 01 00 9c 00 00 00 00 00 00 00 00 00 00  ................
	0x0060 00 00 00 00 00 00 ff ff ff ff ff ff ff ff 00 00  ................
	0x0070 00 00 00 00 00 00 00 00 00 00 00 00 00 00 1a 00  ................
	0x0080 00 00 00 00 00 00 02 00 91 08 00 00 00 00 00 00  ................
	0x0090 00 00 00 00 00 00 00 00 00 00 ff ff ff ff ff ff  ................
	0x00a0 ff ff 00 00 00 00 00 00 00 00 00 00 00 00 00 00  ................
	0x00b0 00 00 1a 00 00 00 00 00 00 00 02 00 91 10 00 00  ................
	0x00c0 00 00 00 00 00 00 00 00 00 00 00 00 00 00        ..............
	rel 8+8 t=1 "".AddR+0
	rel 59+8 t=1 "".AddR+0
	rel 110+8 t=1 "".AddR+0
	rel 162+8 t=1 "".AddR+0
aux for "".AddR SDWARFLINES size=17
	0x0000 04 02 03 97 03 14 06 41 06 a6 06 41 02 01 00 01  .......A...A....
	0x0010 01                                               .
aux for "".AddR SDWARFINFO size=122
	0x0000 03 63 6f 6d 6d 61 6e 64 2d 6c 69 6e 65 2d 61 72  .command-line-ar
	0x0010 67 75 6d 65 6e 74 73 2e 41 64 64 52 00 00 00 00  guments.AddR....
	0x0020 00 00 00 00 00 00 00 00 00 00 00 00 00 01 9c 02  ................
	0x0030 00 00 00 01 0b 72 00 9d 03 00 00 00 00 00 00 00  .....r..........
	0x0040 00 10 78 00 00 99 03 00 00 00 00 00 00 00 00 10  ..x.............
	0x0050 79 00 00 99 03 00 00 00 00 00 00 00 00 10 63 69  y.............ci
	0x0060 00 00 99 03 00 00 00 00 00 00 00 00 0f 7e 72 33  .............~r3
	0x0070 00 01 99 03 00 00 00 00 00 00                    ..........
	rel 0+0 t=24 type.uint+0
	rel 29+8 t=1 "".AddR+0
	rel 37+8 t=1 "".AddR+26
	rel 57+4 t=29 go.info.uint+0
	rel 61+4 t=29 +0
	rel 71+4 t=29 go.info.uint+0
	rel 75+4 t=29 +51
	rel 85+4 t=29 go.info.uint+0
	rel 89+4 t=29 +102
	rel 100+4 t=29 go.info.uint+0
	rel 104+4 t=29 +154
	rel 116+4 t=29 go.info.uint+0
aux for "".AddM SDWARFLOC size=155
	0x0000 ff ff ff ff ff ff ff ff 00 00 00 00 00 00 00 00  ................
	0x0010 00 00 00 00 00 00 00 00 3a 00 00 00 00 00 00 00  ........:.......
	0x0020 01 00 9c 00 00 00 00 00 00 00 00 00 00 00 00 00  ................
	0x0030 00 00 00 ff ff ff ff ff ff ff ff 00 00 00 00 00  ................
	0x0040 00 00 00 00 00 00 00 00 00 00 00 3a 00 00 00 00  ...........:....
	0x0050 00 00 00 02 00 91 08 00 00 00 00 00 00 00 00 00  ................
	0x0060 00 00 00 00 00 00 00 ff ff ff ff ff ff ff ff 00  ................
	0x0070 00 00 00 00 00 00 00 00 00 00 00 00 00 00 00 3a  ...............:
	0x0080 00 00 00 00 00 00 00 02 00 91 10 00 00 00 00 00  ................
	0x0090 00 00 00 00 00 00 00 00 00 00 00                 ...........
	rel 8+8 t=1 "".AddM+0
	rel 59+8 t=1 "".AddM+0
	rel 111+8 t=1 "".AddM+0
aux for "".AddM SDWARFLINES size=23
	0x0000 04 02 03 9d 03 14 06 41 06 ef 06 37 06 7e 06 37  .......A...7.~.7
	0x0010 06 7e 02 01 00 01 01                             .~.....
aux for "".AddM SDWARFINFO size=95
	0x0000 03 63 6f 6d 6d 61 6e 64 2d 6c 69 6e 65 2d 61 72  .command-line-ar
	0x0010 67 75 6d 65 6e 74 73 2e 41 64 64 4d 00 00 00 00  guments.AddM....
	0x0020 00 00 00 00 00 00 00 00 00 00 00 00 00 01 9c 02  ................
	0x0030 00 00 00 01 10 70 00 00 a1 03 00 00 00 00 00 00  .....p..........
	0x0040 00 00 10 71 00 00 a1 03 00 00 00 00 00 00 00 00  ...q............
	0x0050 10 72 00 00 a1 03 00 00 00 00 00 00 00 00 00     .r.............
	rel 0+0 t=24 type.*[3]uint+0
	rel 29+8 t=1 "".AddM+0
	rel 37+8 t=1 "".AddM+58
	rel 58+4 t=29 go.info.*[3]uint+0
	rel 62+4 t=29 +0
	rel 72+4 t=29 go.info.*[3]uint+0
	rel 76+4 t=29 +51
	rel 86+4 t=29 go.info.*[3]uint+0
	rel 90+4 t=29 +103
aux for "".Add64 SDWARFLOC size=259
	0x0000 ff ff ff ff ff ff ff ff 00 00 00 00 00 00 00 00  ................
	0x0010 00 00 00 00 00 00 00 00 25 00 00 00 00 00 00 00  ........%.......
	0x0020 01 00 9c 00 00 00 00 00 00 00 00 00 00 00 00 00  ................
	0x0030 00 00 00 ff ff ff ff ff ff ff ff 00 00 00 00 00  ................
	0x0040 00 00 00 00 00 00 00 00 00 00 00 25 00 00 00 00  ...........%....
	0x0050 00 00 00 02 00 91 08 00 00 00 00 00 00 00 00 00  ................
	0x0060 00 00 00 00 00 00 00 ff ff ff ff ff ff ff ff 00  ................
	0x0070 00 00 00 00 00 00 00 00 00 00 00 00 00 00 00 25  ...............%
	0x0080 00 00 00 00 00 00 00 02 00 91 10 00 00 00 00 00  ................
	0x0090 00 00 00 00 00 00 00 00 00 00 00 ff ff ff ff ff  ................
	0x00a0 ff ff ff 00 00 00 00 00 00 00 00 19 00 00 00 00  ................
	0x00b0 00 00 00 25 00 00 00 00 00 00 00 02 00 91 18 00  ...%............
	0x00c0 00 00 00 00 00 00 00 00 00 00 00 00 00 00 00 ff  ................
	0x00d0 ff ff ff ff ff ff ff 00 00 00 00 00 00 00 00 1c  ................
	0x00e0 00 00 00 00 00 00 00 25 00 00 00 00 00 00 00 02  .......%........
	0x00f0 00 91 20 00 00 00 00 00 00 00 00 00 00 00 00 00  .. .............
	0x0100 00 00 00                                         ...
	rel 8+8 t=1 "".Add64+0
	rel 59+8 t=1 "".Add64+0
	rel 111+8 t=1 "".Add64+0
	rel 163+8 t=1 "".Add64+0
	rel 215+8 t=1 "".Add64+0
aux for "".Add64 SDWARFLINES size=13
	0x0000 04 02 03 ab 03 14 06 41 02 20 00 01 01           .......A. ...
aux for "".Add64 SDWARFINFO size=126
	0x0000 03 63 6f 6d 6d 61 6e 64 2d 6c 69 6e 65 2d 61 72  .command-line-ar
	0x0010 67 75 6d 65 6e 74 73 2e 41 64 64 36 34 00 00 00  guments.Add64...
	0x0020 00 00 00 00 00 00 00 00 00 00 00 00 00 00 01 9c  ................
	0x0030 02 00 00 00 01 10 78 00 00 ab 03 00 00 00 00 00  ......x.........
	0x0040 00 00 00 10 79 00 00 ab 03 00 00 00 00 00 00 00  ....y...........
	0x0050 00 10 63 69 00 00 ab 03 00 00 00 00 00 00 00 00  ..ci............
	0x0060 10 72 00 01 ab 03 00 00 00 00 00 00 00 00 10 63  .r.............c
	0x0070 6f 00 01 ab 03 00 00 00 00 00 00 00 00 00        o.............
	rel 0+0 t=24 type.uint64+0
	rel 30+8 t=1 "".Add64+0
	rel 38+8 t=1 "".Add64+37
	rel 59+4 t=29 go.info.uint64+0
	rel 63+4 t=29 +0
	rel 73+4 t=29 go.info.uint64+0
	rel 77+4 t=29 +51
	rel 88+4 t=29 go.info.uint64+0
	rel 92+4 t=29 +103
	rel 102+4 t=29 go.info.uint64+0
	rel 106+4 t=29 +155
	rel 117+4 t=29 go.info.uint64+0
	rel 121+4 t=29 +207
aux for "".Add64C SDWARFLOC size=207
	0x0000 ff ff ff ff ff ff ff ff 00 00 00 00 00 00 00 00  ................
	0x0010 00 00 00 00 00 00 00 00 21 00 00 00 00 00 00 00  ........!.......
	0x0020 01 00 9c 00 00 00 00 00 00 00 00 00 00 00 00 00  ................
	0x0030 00 00 00 ff ff ff ff ff ff ff ff 00 00 00 00 00  ................
	0x0040 00 00 00 00 00 00 00 00 00 00 00 21 00 00 00 00  ...........!....
	0x0050 00 00 00 02 00 91 08 00 00 00 00 00 00 00 00 00  ................
	0x0060 00 00 00 00 00 00 00 ff ff ff ff ff ff ff ff 00  ................
	0x0070 00 00 00 00 00 00 00 15 00 00 00 00 00 00 00 21  ...............!
	0x0080 00 00 00 00 00 00 00 02 00 91 10 00 00 00 00 00  ................
	0x0090 00 00 00 00 00 00 00 00 00 00 00 ff ff ff ff ff  ................
	0x00a0 ff ff ff 00 00 00 00 00 00 00 00 18 00 00 00 00  ................
	0x00b0 00 00 00 21 00 00 00 00 00 00 00 02 00 91 18 00  ...!............
	0x00c0 00 00 00 00 00 00 00 00 00 00 00 00 00 00 00     ...............
	rel 8+8 t=1 "".Add64C+0
	rel 59+8 t=1 "".Add64C+0
	rel 111+8 t=1 "".Add64C+0
	rel 163+8 t=1 "".Add64C+0
aux for "".Add64C SDWARFLINES size=13
	0x0000 04 02 03 b4 03 14 06 41 02 1c 00 01 01           .......A.....
aux for "".Add64C SDWARFINFO size=113
	0x0000 03 63 6f 6d 6d 61 6e 64 2d 6c 69 6e 65 2d 61 72  .command-line-ar
	0x0010 67 75 6d 65 6e 74 73 2e 41 64 64 36 34 43 00 00  guments.Add64C..
	0x0020 00 00 00 00 00 00 00 00 00 00 00 00 00 00 00 01  ................
	0x0030 9c 02 00 00 00 01 10 78 00 00 b4 03 00 00 00 00  .......x........
	0x0040 00 00 00 00 10 63 69 00 00 b4 03 00 00 00 00 00  .....ci.........
	0x0050 00 00 00 10 72 00 01 b4 03 00 00 00 00 00 00 00  ....r...........
	0x0060 00 10 63 6f 00 01 b4 03 00 00 00 00 00 00 00 00  ..co............
	0x0070 00                                               .
	rel 0+0 t=24 type.uint64+0
	rel 31+8 t=1 "".Add64C+0
	rel 39+8 t=1 "".Add64C+33
	rel 60+4 t=29 go.info.uint64+0
	rel 64+4 t=29 +0
	rel 75+4 t=29 go.info.uint64+0
	rel 79+4 t=29 +51
	rel 89+4 t=29 go.info.uint64+0
	rel 93+4 t=29 +103
	rel 104+4 t=29 go.info.uint64+0
	rel 108+4 t=29 +155
aux for "".Add64Z SDWARFLOC size=207
	0x0000 ff ff ff ff ff ff ff ff 00 00 00 00 00 00 00 00  ................
	0x0010 00 00 00 00 00 00 00 00 1e 00 00 00 00 00 00 00  ................
	0x0020 01 00 9c 00 00 00 00 00 00 00 00 00 00 00 00 00  ................
	0x0030 00 00 00 ff ff ff ff ff ff ff ff 00 00 00 00 00  ................
	0x0040 00 00 00 00 00 00 00 00 00 00 00 1e 00 00 00 00  ................
	0x0050 00 00 00 02 00 91 08 00 00 00 00 00 00 00 00 00  ................
	0x0060 00 00 00 00 00 00 00 ff ff ff ff ff ff ff ff 00  ................
	0x0070 00 00 00 00 00 00 00 12 00 00 00 00 00 00 00 1e  ................
	0x0080 00 00 00 00 00 00 00 02 00 91 10 00 00 00 00 00  ................
	0x0090 00 00 00 00 00 00 00 00 00 00 00 ff ff ff ff ff  ................
	0x00a0 ff ff ff 00 00 00 00 00 00 00 00 15 00 00 00 00  ................
	0x00b0 00 00 00 1e 00 00 00 00 00 00 00 02 00 91 18 00  ................
	0x00c0 00 00 00 00 00 00 00 00 00 00 00 00 00 00 00     ...............
	rel 8+8 t=1 "".Add64Z+0
	rel 59+8 t=1 "".Add64Z+0
	rel 111+8 t=1 "".Add64Z+0
	rel 163+8 t=1 "".Add64Z+0
aux for "".Add64Z SDWARFLINES size=13
	0x0000 04 02 03 bd 03 14 06 41 02 19 00 01 01           .......A.....
aux for "".Add64Z SDWARFINFO size=112
	0x0000 03 63 6f 6d 6d 61 6e 64 2d 6c 69 6e 65 2d 61 72  .command-line-ar
	0x0010 67 75 6d 65 6e 74 73 2e 41 64 64 36 34 5a 00 00  guments.Add64Z..
	0x0020 00 00 00 00 00 00 00 00 00 00 00 00 00 00 00 01  ................
	0x0030 9c 02 00 00 00 01 10 78 00 00 bd 03 00 00 00 00  .......x........
	0x0040 00 00 00 00 10 79 00 00 bd 03 00 00 00 00 00 00  .....y..........
	0x0050 00 00 10 72 00 01 bd 03 00 00 00 00 00 00 00 00  ...r............
	0x0060 10 63 6f 00 01 bd 03 00 00 00 00 00 00 00 00 00  .co.............
	rel 0+0 t=24 type.uint64+0
	rel 31+8 t=1 "".Add64Z+0
	rel 39+8 t=1 "".Add64Z+30
	rel 60+4 t=29 go.info.uint64+0
	rel 64+4 t=29 +0
	rel 74+4 t=29 go.info.uint64+0
	rel 78+4 t=29 +51
	rel 88+4 t=29 go.info.uint64+0
	rel 92+4 t=29 +103
	rel 103+4 t=29 go.info.uint64+0
	rel 107+4 t=29 +155
aux for "".Add64R SDWARFLOC size=206
	0x0000 ff ff ff ff ff ff ff ff 00 00 00 00 00 00 00 00  ................
	0x0010 19 00 00 00 00 00 00 00 1a 00 00 00 00 00 00 00  ................
	0x0020 01 00 50 00 00 00 00 00 00 00 00 00 00 00 00 00  ..P.............
	0x0030 00 00 00 ff ff ff ff ff ff ff ff 00 00 00 00 00  ................
	0x0040 00 00 00 00 00 00 00 00 00 00 00 1a 00 00 00 00  ................
	0x0050 00 00 00 01 00 9c 00 00 00 00 00 00 00 00 00 00  ................
	0x0060 00 00 00 00 00 00 ff ff ff ff ff ff ff ff 00 00  ................
	0x0070 00 00 00 00 00 00 00 00 00 00 00 00 00 00 1a 00  ................
	0x0080 00 00 00 00 00 00 02 00 91 08 00 00 00 00 00 00  ................
	0x0090 00 00 00 00 00 00 00 00 00 00 ff ff ff ff ff ff  ................
	0x00a0 ff ff 00 00 00 00 00 00 00 00 00 00 00 00 00 00  ................
	0x00b0 00 00 1a 00 00 00 00 00 00 00 02 00 91 10 00 00  ................
	0x00c0 00 00 00 00 00 00 00 00 00 00 00 00 00 00        ..............
	rel 8+8 t=1 "".Add64R+0
	rel 59+8 t=1 "".Add64R+0
	rel 110+8 t=1 "".Add64R+0
	rel 162+8 t=1 "".Add64R+0
aux for "".Add64R SDWARFLINES size=17
	0x0000 04 02 03 c6 03 14 06 41 06 a6 06 41 02 01 00 01  .......A...A....
	0x0010 01                                               .
aux for "".Add64R SDWARFINFO size=124
	0x0000 03 63 6f 6d 6d 61 6e 64 2d 6c 69 6e 65 2d 61 72  .command-line-ar
	0x0010 67 75 6d 65 6e 74 73 2e 41 64 64 36 34 52 00 00  guments.Add64R..
	0x0020 00 00 00 00 00 00 00 00 00 00 00 00 00 00 00 01  ................
	0x0030 9c 02 00 00 00 01 0b 72 00 cc 03 00 00 00 00 00  .......r........
	0x0040 00 00 00 10 78 00 00 c6 03 00 00 00 00 00 00 00  ....x...........
	0x0050 00 10 79 00 00 c6 03 00 00 00 00 00 00 00 00 10  ..y.............
	0x0060 63 69 00 00 c6 03 00 00 00 00 00 00 00 00 0f 7e  ci.............~
	0x0070 72 33 00 01 c6 03 00 00 00 00 00 00              r3..........
	rel 0+0 t=24 type.uint64+0
	rel 31+8 t=1 "".Add64R+0
	rel 39+8 t=1 "".Add64R+26
	rel 59+4 t=29 go.info.uint64+0
	rel 63+4 t=29 +0
	rel 73+4 t=29 go.info.uint64+0
	rel 77+4 t=29 +51
	rel 87+4 t=29 go.info.uint64+0
	rel 91+4 t=29 +102
	rel 102+4 t=29 go.info.uint64+0
	rel 106+4 t=29 +154
	rel 118+4 t=29 go.info.uint64+0
aux for "".Add64M SDWARFLOC size=155
	0x0000 ff ff ff ff ff ff ff ff 00 00 00 00 00 00 00 00  ................
	0x0010 00 00 00 00 00 00 00 00 3a 00 00 00 00 00 00 00  ........:.......
	0x0020 01 00 9c 00 00 00 00 00 00 00 00 00 00 00 00 00  ................
	0x0030 00 00 00 ff ff ff ff ff ff ff ff 00 00 00 00 00  ................
	0x0040 00 00 00 00 00 00 00 00 00 00 00 3a 00 00 00 00  ...........:....
	0x0050 00 00 00 02 00 91 08 00 00 00 00 00 00 00 00 00  ................
	0x0060 00 00 00 00 00 00 00 ff ff ff ff ff ff ff ff 00  ................
	0x0070 00 00 00 00 00 00 00 00 00 00 00 00 00 00 00 3a  ...............:
	0x0080 00 00 00 00 00 00 00 02 00 91 10 00 00 00 00 00  ................
	0x0090 00 00 00 00 00 00 00 00 00 00 00                 ...........
	rel 8+8 t=1 "".Add64M+0
	rel 59+8 t=1 "".Add64M+0
	rel 111+8 t=1 "".Add64M+0
aux for "".Add64M SDWARFLINES size=25
	0x0000 04 02 03 cb 03 14 06 41 06 03 01 f0 06 37 06 7e  .......A.....7.~
	0x0010 06 37 06 7e 02 01 00 01 01                       .7.~.....
aux for "".Add64M SDWARFINFO size=97
	0x0000 03 63 6f 6d 6d 61 6e 64 2d 6c 69 6e 65 2d 61 72  .command-line-ar
	0x0010 67 75 6d 65 6e 74 73 2e 41 64 64 36 34 4d 00 00  guments.Add64M..
	0x0020 00 00 00 00 00 00 00 00 00 00 00 00 00 00 00 01  ................
	0x0030 9c 02 00 00 00 01 10 70 00 00 cf 03 00 00 00 00  .......p........
	0x0040 00 00 00 00 10 71 00 00 cf 03 00 00 00 00 00 00  .....q..........
	0x0050 00 00 10 72 00 00 cf 03 00 00 00 00 00 00 00 00  ...r............
	0x0060 00                                               .
	rel 0+0 t=24 type.*[3]uint64+0
	rel 31+8 t=1 "".Add64M+0
	rel 39+8 t=1 "".Add64M+58
	rel 60+4 t=29 go.info.*[3]uint64+0
	rel 64+4 t=29 +0
	rel 74+4 t=29 go.info.*[3]uint64+0
	rel 78+4 t=29 +51
	rel 88+4 t=29 go.info.*[3]uint64+0
	rel 92+4 t=29 +103
aux for "".Add64PanicOnOverflowEQ SDWARFLOC size=205
	0x0000 ff ff ff ff ff ff ff ff 00 00 00 00 00 00 00 00  ................
	0x0010 2d 00 00 00 00 00 00 00 4c 00 00 00 00 00 00 00  -.......L.......
	0x0020 01 00 50 00 00 00 00 00 00 00 00 00 00 00 00 00  ..P.............
	0x0030 00 00 00 ff ff ff ff ff ff ff ff 00 00 00 00 00  ................
	0x0040 00 00 00 30 00 00 00 00 00 00 00 65 00 00 00 00  ...0.......e....
	0x0050 00 00 00 01 00 52 00 00 00 00 00 00 00 00 00 00  .....R..........
	0x0060 00 00 00 00 00 00 ff ff ff ff ff ff ff ff 00 00  ................
	0x0070 00 00 00 00 00 00 00 00 00 00 00 00 00 00 6d 00  ..............m.
	0x0080 00 00 00 00 00 00 01 00 9c 00 00 00 00 00 00 00  ................
	0x0090 00 00 00 00 00 00 00 00 00 ff ff ff ff ff ff ff  ................
	0x00a0 ff 00 00 00 00 00 00 00 00 00 00 00 00 00 00 00  ................
	0x00b0 00 6d 00 00 00 00 00 00 00 02 00 91 08 00 00 00  .m..............
	0x00c0 00 00 00 00 00 00 00 00 00 00 00 00 00           .............
	rel 8+8 t=1 "".Add64PanicOnOverflowEQ+0
	rel 59+8 t=1 "".Add64PanicOnOverflowEQ+0
	rel 110+8 t=1 "".Add64PanicOnOverflowEQ+0
	rel 161+8 t=1 "".Add64PanicOnOverflowEQ+0
aux for "".Add64PanicOnOverflowEQ SDWARFLINES size=31
	0x0000 04 02 03 d5 03 14 0a a5 9c 06 41 06 9d 06 37 06  ..........A...7.
	0x0010 26 06 41 06 71 06 55 06 d7 47 02 07 00 01 01     &.A.q.U..G.....
aux for "".Add64PanicOnOverflowEQ SDWARFINFO size=138
	0x0000 03 63 6f 6d 6d 61 6e 64 2d 6c 69 6e 65 2d 61 72  .command-line-ar
	0x0010 67 75 6d 65 6e 74 73 2e 41 64 64 36 34 50 61 6e  guments.Add64Pan
	0x0020 69 63 4f 6e 4f 76 65 72 66 6c 6f 77 45 51 00 00  icOnOverflowEQ..
	0x0030 00 00 00 00 00 00 00 00 00 00 00 00 00 00 00 01  ................
	0x0040 9c 02 00 00 00 01 0b 72 00 dc 03 00 00 00 00 00  .......r........
	0x0050 00 00 00 0b 63 00 dc 03 00 00 00 00 00 00 00 00  ....c...........
	0x0060 10 61 00 00 db 03 00 00 00 00 00 00 00 00 10 62  .a.............b
	0x0070 00 00 db 03 00 00 00 00 00 00 00 00 0f 7e 72 32  .............~r2
	0x0080 00 01 db 03 00 00 00 00 00 00                    ..........
	rel 0+0 t=24 type.uint64+0
	rel 47+8 t=1 "".Add64PanicOnOverflowEQ+0
	rel 55+8 t=1 "".Add64PanicOnOverflowEQ+109
	rel 75+4 t=29 go.info.uint64+0
	rel 79+4 t=29 +0
	rel 88+4 t=29 go.info.uint64+0
	rel 92+4 t=29 +51
	rel 102+4 t=29 go.info.uint64+0
	rel 106+4 t=29 +102
	rel 116+4 t=29 go.info.uint64+0
	rel 120+4 t=29 +153
	rel 132+4 t=29 go.info.uint64+0
aux for "".Add64PanicOnOverflowNE SDWARFLOC size=205
	0x0000 ff ff ff ff ff ff ff ff 00 00 00 00 00 00 00 00  ................
	0x0010 2d 00 00 00 00 00 00 00 4b 00 00 00 00 00 00 00  -.......K.......
	0x0020 01 00 50 00 00 00 00 00 00 00 00 00 00 00 00 00  ..P.............
	0x0030 00 00 00 ff ff ff ff ff ff ff ff 00 00 00 00 00  ................
	0x0040 00 00 00 30 00 00 00 00 00 00 00 65 00 00 00 00  ...0.......e....
	0x0050 00 00 00 01 00 52 00 00 00 00 00 00 00 00 00 00  .....R..........
	0x0060 00 00 00 00 00 00 ff ff ff ff ff ff ff ff 00 00  ................
	0x0070 00 00 00 00 00 00 00 00 00 00 00 00 00 00 6d 00  ..............m.
	0x0080 00 00 00 00 00 00 01 00 9c 00 00 00 00 00 00 00  ................
	0x0090 00 00 00 00 00 00 00 00 00 ff ff ff ff ff ff ff  ................
	0x00a0 ff 00 00 00 00 00 00 00 00 00 00 00 00 00 00 00  ................
	0x00b0 00 6d 00 00 00 00 00 00 00 02 00 91 08 00 00 00  .m..............
	0x00c0 00 00 00 00 00 00 00 00 00 00 00 00 00           .............
	rel 8+8 t=1 "".Add64PanicOnOverflowNE+0
	rel 59+8 t=1 "".Add64PanicOnOverflowNE+0
	rel 110+8 t=1 "".Add64PanicOnOverflowNE+0
	rel 161+8 t=1 "".Add64PanicOnOverflowNE+0
aux for "".Add64PanicOnOverflowNE SDWARFLINES size=31
	0x0000 04 02 03 de 03 14 0a a5 9c 06 41 06 9d 06 2d 06  ..........A...-.
	0x0010 26 06 41 06 71 06 55 06 e1 47 02 07 00 01 01     &.A.q.U..G.....
aux for "".Add64PanicOnOverflowNE SDWARFINFO size=138
	0x0000 03 63 6f 6d 6d 61 6e 64 2d 6c 69 6e 65 2d 61 72  .command-line-ar
	0x0010 67 75 6d 65 6e 74 73 2e 41 64 64 36 34 50 61 6e  guments.Add64Pan
	0x0020 69 63 4f 6e 4f 76 65 72 66 6c 6f 77 4e 45 00 00  icOnOverflowNE..
	0x0030 00 00 00 00 00 00 00 00 00 00 00 00 00 00 00 01  ................
	0x0040 9c 02 00 00 00 01 0b 72 00 e5 03 00 00 00 00 00  .......r........
	0x0050 00 00 00 0b 63 00 e5 03 00 00 00 00 00 00 00 00  ....c...........
	0x0060 10 61 00 00 e4 03 00 00 00 00 00 00 00 00 10 62  .a.............b
	0x0070 00 00 e4 03 00 00 00 00 00 00 00 00 0f 7e 72 32  .............~r2
	0x0080 00 01 e4 03 00 00 00 00 00 00                    ..........
	rel 0+0 t=24 type.uint64+0
	rel 47+8 t=1 "".Add64PanicOnOverflowNE+0
	rel 55+8 t=1 "".Add64PanicOnOverflowNE+109
	rel 75+4 t=29 go.info.uint64+0
	rel 79+4 t=29 +0
	rel 88+4 t=29 go.info.uint64+0
	rel 92+4 t=29 +51
	rel 102+4 t=29 go.info.uint64+0
	rel 106+4 t=29 +102
	rel 116+4 t=29 go.info.uint64+0
	rel 120+4 t=29 +153
	rel 132+4 t=29 go.info.uint64+0
aux for "".Add64PanicOnOverflowGT SDWARFLOC size=205
	0x0000 ff ff ff ff ff ff ff ff 00 00 00 00 00 00 00 00  ................
	0x0010 2d 00 00 00 00 00 00 00 4b 00 00 00 00 00 00 00  -.......K.......
	0x0020 01 00 50 00 00 00 00 00 00 00 00 00 00 00 00 00  ..P.............
	0x0030 00 00 00 ff ff ff ff ff ff ff ff 00 00 00 00 00  ................
	0x0040 00 00 00 30 00 00 00 00 00 00 00 65 00 00 00 00  ...0.......e....
	0x0050 00 00 00 01 00 52 00 00 00 00 00 00 00 00 00 00  .....R..........
	0x0060 00 00 00 00 00 00 ff ff ff ff ff ff ff ff 00 00  ................
	0x0070 00 00 00 00 00 00 00 00 00 00 00 00 00 00 6d 00  ..............m.
	0x0080 00 00 00 00 00 00 01 00 9c 00 00 00 00 00 00 00  ................
	0x0090 00 00 00 00 00 00 00 00 00 ff ff ff ff ff ff ff  ................
	0x00a0 ff 00 00 00 00 00 00 00 00 00 00 00 00 00 00 00  ................
	0x00b0 00 6d 00 00 00 00 00 00 00 02 00 91 08 00 00 00  .m..............
	0x00c0 00 00 00 00 00 00 00 00 00 00 00 00 00           .............
	rel 8+8 t=1 "".Add64PanicOnOverflowGT+0
	rel 59+8 t=1 "".Add64PanicOnOverflowGT+0
	rel 110+8 t=1 "".Add64PanicOnOverflowGT+0
	rel 161+8 t=1 "".Add64PanicOnOverflowGT+0
aux for "".Add64PanicOnOverflowGT SDWARFLINES size=31
	0x0000 04 02 03 e7 03 14 0a a5 9c 06 41 06 9d 06 2d 06  ..........A...-.
	0x0010 26 06 41 06 71 06 55 06 e1 47 02 07 00 01 01     &.A.q.U..G.....
aux for "".Add64PanicOnOverflowGT SDWARFINFO size=138
	0x0000 03 63 6f 6d 6d 61 6e 64 2d 6c 69 6e 65 2d 61 72  .command-line-ar
	0x0010 67 75 6d 65 6e 74 73 2e 41 64 64 36 34 50 61 6e  guments.Add64Pan
	0x0020 69 63 4f 6e 4f 76 65 72 66 6c 6f 77 47 54 00 00  icOnOverflowGT..
	0x0030 00 00 00 00 00 00 00 00 00 00 00 00 00 00 00 01  ................
	0x0040 9c 02 00 00 00 01 0b 72 00 ee 03 00 00 00 00 00  .......r........
	0x0050 00 00 00 0b 63 00 ee 03 00 00 00 00 00 00 00 00  ....c...........
	0x0060 10 61 00 00 ed 03 00 00 00 00 00 00 00 00 10 62  .a.............b
	0x0070 00 00 ed 03 00 00 00 00 00 00 00 00 0f 7e 72 32  .............~r2
	0x0080 00 01 ed 03 00 00 00 00 00 00                    ..........
	rel 0+0 t=24 type.uint64+0
	rel 47+8 t=1 "".Add64PanicOnOverflowGT+0
	rel 55+8 t=1 "".Add64PanicOnOverflowGT+109
	rel 75+4 t=29 go.info.uint64+0
	rel 79+4 t=29 +0
	rel 88+4 t=29 go.info.uint64+0
	rel 92+4 t=29 +51
	rel 102+4 t=29 go.info.uint64+0
	rel 106+4 t=29 +102
	rel 116+4 t=29 go.info.uint64+0
	rel 120+4 t=29 +153
	rel 132+4 t=29 go.info.uint64+0
aux for "".Add64MPanicOnOverflowEQ SDWARFLOC size=51
	0x0000 ff ff ff ff ff ff ff ff 00 00 00 00 00 00 00 00  ................
	0x0010 45 00 00 00 00 00 00 00 66 00 00 00 00 00 00 00  E.......f.......
	0x0020 01 00 50 00 00 00 00 00 00 00 00 00 00 00 00 00  ..P.............
	0x0030 00 00 00                                         ...
	rel 8+8 t=1 "".Add64MPanicOnOverflowEQ+0
aux for "".Add64MPanicOnOverflowEQ SDWARFLINES size=43
	0x0000 04 02 03 f0 03 14 0a a5 06 b9 06 44 06 41 06 60  ...........D.A.`
	0x0010 06 41 06 9d 06 37 06 26 06 41 06 a3 06 55 06 af  .A...7.&.A...U..
	0x0020 06 03 7d 47 06 37 02 0a 00 01 01                 ..}G.7.....
aux for "".Add64MPanicOnOverflowEQ SDWARFINFO size=123
	0x0000 03 63 6f 6d 6d 61 6e 64 2d 6c 69 6e 65 2d 61 72  .command-line-ar
	0x0010 67 75 6d 65 6e 74 73 2e 41 64 64 36 34 4d 50 61  guments.Add64MPa
	0x0020 6e 69 63 4f 6e 4f 76 65 72 66 6c 6f 77 45 51 00  nicOnOverflowEQ.
	0x0030 00 00 00 00 00 00 00 00 00 00 00 00 00 00 00 00  ................
	0x0040 01 9c 02 00 00 00 01 0b 63 00 f8 03 00 00 00 00  ........c.......
	0x0050 00 00 00 00 0f 61 00 00 f6 03 00 00 00 00 01 9c  .....a..........
	0x0060 0f 62 00 00 f6 03 00 00 00 00 02 91 10 0f 7e 72  .b............~r
	0x0070 32 00 01 f6 03 00 00 00 00 00 00                 2..........
	rel 0+0 t=24 type.[2]uint64+0
	rel 48+8 t=1 "".Add64MPanicOnOverflowEQ+0
	rel 56+8 t=1 "".Add64MPanicOnOverflowEQ+138
	rel 76+4 t=29 go.info.uint64+0
	rel 80+4 t=29 +0
	rel 90+4 t=29 go.info.[2]uint64+0
	rel 102+4 t=29 go.info.[2]uint64+0
	rel 117+4 t=29 go.info.[2]uint64+0
aux for "".Add64MPanicOnOverflowNE SDWARFLOC size=51
	0x0000 ff ff ff ff ff ff ff ff 00 00 00 00 00 00 00 00  ................
	0x0010 45 00 00 00 00 00 00 00 65 00 00 00 00 00 00 00  E.......e.......
	0x0020 01 00 50 00 00 00 00 00 00 00 00 00 00 00 00 00  ..P.............
	0x0030 00 00 00                                         ...
	rel 8+8 t=1 "".Add64MPanicOnOverflowNE+0
aux for "".Add64MPanicOnOverflowNE SDWARFLINES size=43
	0x0000 04 02 03 fc 03 14 0a a5 06 b9 06 44 06 41 06 60  ...........D.A.`
	0x0010 06 41 06 9d 06 2d 06 26 06 41 06 a3 06 55 06 af  .A...-.&.A...U..
	0x0020 06 03 7d 47 06 41 02 0a 00 01 01                 ..}G.A.....
aux for "".Add64MPanicOnOverflowNE SDWARFINFO size=123
	0x0000 03 63 6f 6d 6d 61 6e 64 2d 6c 69 6e 65 2d 61 72  .command-line-ar
	0x0010 67 75 6d 65 6e 74 73 2e 41 64 64 36 34 4d 50 61  guments.Add64MPa
	0x0020 6e 69 63 4f 6e 4f 76 65 72 66 6c 6f 77 4e 45 00  nicOnOverflowNE.
	0x0030 00 00 00 00 00 00 00 00 00 00 00 00 00 00 00 00  ................
	0x0040 01 9c 02 00 00 00 01 0b 63 00 84 04 00 00 00 00  ........c.......
	0x0050 00 00 00 00 0f 61 00 00 82 04 00 00 00 00 01 9c  .....a..........
	0x0060 0f 62 00 00 82 04 00 00 00 00 02 91 10 0f 7e 72  .b............~r
	0x0070 32 00 01 82 04 00 00 00 00 00 00                 2..........
	rel 0+0 t=24 type.[2]uint64+0
	rel 48+8 t=1 "".Add64MPanicOnOverflowNE+0
	rel 56+8 t=1 "".Add64MPanicOnOverflowNE+138
	rel 76+4 t=29 go.info.uint64+0
	rel 80+4 t=29 +0
	rel 90+4 t=29 go.info.[2]uint64+0
	rel 102+4 t=29 go.info.[2]uint64+0
	rel 117+4 t=29 go.info.[2]uint64+0
aux for "".Add64MPanicOnOverflowGT SDWARFLOC size=51
	0x0000 ff ff ff ff ff ff ff ff 00 00 00 00 00 00 00 00  ................
	0x0010 45 00 00 00 00 00 00 00 65 00 00 00 00 00 00 00  E.......e.......
	0x0020 01 00 50 00 00 00 00 00 00 00 00 00 00 00 00 00  ..P.............
	0x0030 00 00 00                                         ...
	rel 8+8 t=1 "".Add64MPanicOnOverflowGT+0
aux for "".Add64MPanicOnOverflowGT SDWARFLINES size=43
	0x0000 04 02 03 88 04 14 0a a5 06 b9 06 44 06 41 06 60  ...........D.A.`
	0x0010 06 41 06 9d 06 2d 06 26 06 41 06 a3 06 55 06 af  .A...-.&.A...U..
	0x0020 06 03 7d 47 06 41 02 0a 00 01 01                 ..}G.A.....
aux for "".Add64MPanicOnOverflowGT SDWARFINFO size=123
	0x0000 03 63 6f 6d 6d 61 6e 64 2d 6c 69 6e 65 2d 61 72  .command-line-ar
	0x0010 67 75 6d 65 6e 74 73 2e 41 64 64 36 34 4d 50 61  guments.Add64MPa
	0x0020 6e 69 63 4f 6e 4f 76 65 72 66 6c 6f 77 47 54 00  nicOnOverflowGT.
	0x0030 00 00 00 00 00 00 00 00 00 00 00 00 00 00 00 00  ................
	0x0040 01 9c 02 00 00 00 01 0b 63 00 90 04 00 00 00 00  ........c.......
	0x0050 00 00 00 00 0f 61 00 00 8e 04 00 00 00 00 01 9c  .....a..........
	0x0060 0f 62 00 00 8e 04 00 00 00 00 02 91 10 0f 7e 72  .b............~r
	0x0070 32 00 01 8e 04 00 00 00 00 00 00                 2..........
	rel 0+0 t=24 type.[2]uint64+0
	rel 48+8 t=1 "".Add64MPanicOnOverflowGT+0
	rel 56+8 t=1 "".Add64MPanicOnOverflowGT+138
	rel 76+4 t=29 go.info.uint64+0
	rel 80+4 t=29 +0
	rel 90+4 t=29 go.info.[2]uint64+0
	rel 102+4 t=29 go.info.[2]uint64+0
	rel 117+4 t=29 go.info.[2]uint64+0
aux for "".Sub SDWARFLOC size=259
	0x0000 ff ff ff ff ff ff ff ff 00 00 00 00 00 00 00 00  ................
	0x0010 00 00 00 00 00 00 00 00 25 00 00 00 00 00 00 00  ........%.......
	0x0020 01 00 9c 00 00 00 00 00 00 00 00 00 00 00 00 00  ................
	0x0030 00 00 00 ff ff ff ff ff ff ff ff 00 00 00 00 00  ................
	0x0040 00 00 00 00 00 00 00 00 00 00 00 25 00 00 00 00  ...........%....
	0x0050 00 00 00 02 00 91 08 00 00 00 00 00 00 00 00 00  ................
	0x0060 00 00 00 00 00 00 00 ff ff ff ff ff ff ff ff 00  ................
	0x0070 00 00 00 00 00 00 00 00 00 00 00 00 00 00 00 25  ...............%
	0x0080 00 00 00 00 00 00 00 02 00 91 10 00 00 00 00 00  ................
	0x0090 00 00 00 00 00 00 00 00 00 00 00 ff ff ff ff ff  ................
	0x00a0 ff ff ff 00 00 00 00 00 00 00 00 19 00 00 00 00  ................
	0x00b0 00 00 00 25 00 00 00 00 00 00 00 02 00 91 18 00  ...%............
	0x00c0 00 00 00 00 00 00 00 00 00 00 00 00 00 00 00 ff  ................
	0x00d0 ff ff ff ff ff ff ff 00 00 00 00 00 00 00 00 1c  ................
	0x00e0 00 00 00 00 00 00 00 25 00 00 00 00 00 00 00 02  .......%........
	0x00f0 00 91 20 00 00 00 00 00 00 00 00 00 00 00 00 00  .. .............
	0x0100 00 00 00                                         ...
	rel 8+8 t=1 "".Sub+0
	rel 59+8 t=1 "".Sub+0
	rel 111+8 t=1 "".Sub+0
	rel 163+8 t=1 "".Sub+0
	rel 215+8 t=1 "".Sub+0
aux for "".Sub SDWARFLINES size=13
	0x0000 04 02 03 9c 04 14 06 41 02 20 00 01 01           .......A. ...
aux for "".Sub SDWARFINFO size=124
	0x0000 03 63 6f 6d 6d 61 6e 64 2d 6c 69 6e 65 2d 61 72  .command-line-ar
	0x0010 67 75 6d 65 6e 74 73 2e 53 75 62 00 00 00 00 00  guments.Sub.....
	0x0020 00 00 00 00 00 00 00 00 00 00 00 00 01 9c 02 00  ................
	0x0030 00 00 01 10 78 00 00 9e 04 00 00 00 00 00 00 00  ....x...........
	0x0040 00 10 79 00 00 9e 04 00 00 00 00 00 00 00 00 10  ..y.............
	0x0050 63 69 00 00 9e 04 00 00 00 00 00 00 00 00 10 72  ci.............r
	0x0060 00 01 9e 04 00 00 00 00 00 00 00 00 10 63 6f 00  .............co.
	0x0070 01 9e 04 00 00 00 00 00 00 00 00 00              ............
	rel 0+0 t=24 type.uint+0
	rel 28+8 t=1 "".Sub+0
	rel 36+8 t=1 "".Sub+37
	rel 57+4 t=29 go.info.uint+0
	rel 61+4 t=29 +0
	rel 71+4 t=29 go.info.uint+0
	rel 75+4 t=29 +51
	rel 86+4 t=29 go.info.uint+0
	rel 90+4 t=29 +103
	rel 100+4 t=29 go.info.uint+0
	rel 104+4 t=29 +155
	rel 115+4 t=29 go.info.uint+0
	rel 119+4 t=29 +207
aux for "".SubC SDWARFLOC size=207
	0x0000 ff ff ff ff ff ff ff ff 00 00 00 00 00 00 00 00  ................
	0x0010 00 00 00 00 00 00 00 00 21 00 00 00 00 00 00 00  ........!.......
	0x0020 01 00 9c 00 00 00 00 00 00 00 00 00 00 00 00 00  ................
	0x0030 00 00 00 ff ff ff ff ff ff ff ff 00 00 00 00 00  ................
	0x0040 00 00 00 00 00 00 00 00 00 00 00 21 00 00 00 00  ...........!....
	0x0050 00 00 00 02 00 91 08 00 00 00 00 00 00 00 00 00  ................
	0x0060 00 00 00 00 00 00 00 ff ff ff ff ff ff ff ff 00  ................
	0x0070 00 00 00 00 00 00 00 15 00 00 00 00 00 00 00 21  ...............!
	0x0080 00 00 00 00 00 00 00 02 00 91 10 00 00 00 00 00  ................
	0x0090 00 00 00 00 00 00 00 00 00 00 00 ff ff ff ff ff  ................
	0x00a0 ff ff ff 00 00 00 00 00 00 00 00 18 00 00 00 00  ................
	0x00b0 00 00 00 21 00 00 00 00 00 00 00 02 00 91 18 00  ...!............
	0x00c0 00 00 00 00 00 00 00 00 00 00 00 00 00 00 00     ...............
	rel 8+8 t=1 "".SubC+0
	rel 59+8 t=1 "".SubC+0
	rel 111+8 t=1 "".SubC+0
	rel 163+8 t=1 "".SubC+0
aux for "".SubC SDWARFLINES size=13
	0x0000 04 02 03 a3 04 14 06 41 02 1c 00 01 01           .......A.....
aux for "".SubC SDWARFINFO size=111
	0x0000 03 63 6f 6d 6d 61 6e 64 2d 6c 69 6e 65 2d 61 72  .command-line-ar
	0x0010 67 75 6d 65 6e 74 73 2e 53 75 62 43 00 00 00 00  guments.SubC....
	0x0020 00 00 00 00 00 00 00 00 00 00 00 00 00 01 9c 02  ................
	0x0030 00 00 00 01 10 78 00 00 a5 04 00 00 00 00 00 00  .....x..........
	0x0040 00 00 10 63 69 00 00 a5 04 00 00 00 00 00 00 00  ...ci...........
	0x0050 00 10 72 00 01 a5 04 00 00 00 00 00 00 00 00 10  ..r.............
	0x0060 63 6f 00 01 a5 04 00 00 00 00 00 00 00 00 00     co.............
	rel 0+0 t=24 type.uint+0
	rel 29+8 t=1 "".SubC+0
	rel 37+8 t=1 "".SubC+33
	rel 58+4 t=29 go.info.uint+0
	rel 62+4 t=29 +0
	rel 73+4 t=29 go.info.uint+0
	rel 77+4 t=29 +51
	rel 87+4 t=29 go.info.uint+0
	rel 91+4 t=29 +103
	rel 102+4 t=29 go.info.uint+0
	rel 106+4 t=29 +155
aux for "".SubZ SDWARFLOC size=207
	0x0000 ff ff ff ff ff ff ff ff 00 00 00 00 00 00 00 00  ................
	0x0010 00 00 00 00 00 00 00 00 1e 00 00 00 00 00 00 00  ................
	0x0020 01 00 9c 00 00 00 00 00 00 00 00 00 00 00 00 00  ................
	0x0030 00 00 00 ff ff ff ff ff ff ff ff 00 00 00 00 00  ................
	0x0040 00 00 00 00 00 00 00 00 00 00 00 1e 00 00 00 00  ................
	0x0050 00 00 00 02 00 91 08 00 00 00 00 00 00 00 00 00  ................
	0x0060 00 00 00 00 00 00 00 ff ff ff ff ff ff ff ff 00  ................
	0x0070 00 00 00 00 00 00 00 12 00 00 00 00 00 00 00 1e  ................
	0x0080 00 00 00 00 00 00 00 02 00 91 10 00 00 00 00 00  ................
	0x0090 00 00 00 00 00 00 00 00 00 00 00 ff ff ff ff ff  ................
	0x00a0 ff ff ff 00 00 00 00 00 00 00 00 15 00 00 00 00  ................
	0x00b0 00 00 00 1e 00 00 00 00 00 00 00 02 00 91 18 00  ................
	0x00c0 00 00 00 00 00 00 00 00 00 00 00 00 00 00 00     ...............
	rel 8+8 t=1 "".SubZ+0
	rel 59+8 t=1 "".SubZ+0
	rel 111+8 t=1 "".SubZ+0
	rel 163+8 t=1 "".SubZ+0
aux for "".SubZ SDWARFLINES size=13
	0x0000 04 02 03 aa 04 14 06 41 02 19 00 01 01           .......A.....
aux for "".SubZ SDWARFINFO size=110
	0x0000 03 63 6f 6d 6d 61 6e 64 2d 6c 69 6e 65 2d 61 72  .command-line-ar
	0x0010 67 75 6d 65 6e 74 73 2e 53 75 62 5a 00 00 00 00  guments.SubZ....
	0x0020 00 00 00 00 00 00 00 00 00 00 00 00 00 01 9c 02  ................
	0x0030 00 00 00 01 10 78 00 00 ac 04 00 00 00 00 00 00  .....x..........
	0x0040 00 00 10 79 00 00 ac 04 00 00 00 00 00 00 00 00  ...y............
	0x0050 10 72 00 01 ac 04 00 00 00 00 00 00 00 00 10 63  .r.............c
	0x0060 6f 00 01 ac 04 00 00 00 00 00 00 00 00 00        o.............
	rel 0+0 t=24 type.uint+0
	rel 29+8 t=1 "".SubZ+0
	rel 37+8 t=1 "".SubZ+30
	rel 58+4 t=29 go.info.uint+0
	rel 62+4 t=29 +0
	rel 72+4 t=29 go.info.uint+0
	rel 76+4 t=29 +51
	rel 86+4 t=29 go.info.uint+0
	rel 90+4 t=29 +103
	rel 101+4 t=29 go.info.uint+0
	rel 105+4 t=29 +155
aux for "".SubR SDWARFLOC size=206
	0x0000 ff ff ff ff ff ff ff ff 00 00 00 00 00 00 00 00  ................
	0x0010 19 00 00 00 00 00 00 00 1a 00 00 00 00 00 00 00  ................
	0x0020 01 00 50 00 00 00 00 00 00 00 00 00 00 00 00 00  ..P.............
	0x0030 00 00 00 ff ff ff ff ff ff ff ff 00 00 00 00 00  ................
	0x0040 00 00 00 00 00 00 00 00 00 00 00 1a 00 00 00 00  ................
	0x0050 00 00 00 01 00 9c 00 00 00 00 00 00 00 00 00 00  ................
	0x0060 00 00 00 00 00 00 ff ff ff ff ff ff ff ff 00 00  ................
	0x0070 00 00 00 00 00 00 00 00 00 00 00 00 00 00 1a 00  ................
	0x0080 00 00 00 00 00 00 02 00 91 08 00 00 00 00 00 00  ................
	0x0090 00 00 00 00 00 00 00 00 00 00 ff ff ff ff ff ff  ................
	0x00a0 ff ff 00 00 00 00 00 00 00 00 00 00 00 00 00 00  ................
	0x00b0 00 00 1a 00 00 00 00 00 00 00 02 00 91 10 00 00  ................
	0x00c0 00 00 00 00 00 00 00 00 00 00 00 00 00 00        ..............
	rel 8+8 t=1 "".SubR+0
	rel 59+8 t=1 "".SubR+0
	rel 110+8 t=1 "".SubR+0
	rel 162+8 t=1 "".SubR+0
aux for "".SubR SDWARFLINES size=17
	0x0000 04 02 03 b1 04 14 06 41 06 a6 06 41 02 01 00 01  .......A...A....
	0x0010 01                                               .
aux for "".SubR SDWARFINFO size=122
	0x0000 03 63 6f 6d 6d 61 6e 64 2d 6c 69 6e 65 2d 61 72  .command-line-ar
	0x0010 67 75 6d 65 6e 74 73 2e 53 75 62 52 00 00 00 00  guments.SubR....
	0x0020 00 00 00 00 00 00 00 00 00 00 00 00 00 01 9c 02  ................
	0x0030 00 00 00 01 0b 72 00 b7 04 00 00 00 00 00 00 00  .....r..........
	0x0040 00 10 78 00 00 b3 04 00 00 00 00 00 00 00 00 10  ..x.............
	0x0050 79 00 00 b3 04 00 00 00 00 00 00 00 00 10 63 69  y.............ci
	0x0060 00 00 b3 04 00 00 00 00 00 00 00 00 0f 7e 72 33  .............~r3
	0x0070 00 01 b3 04 00 00 00 00 00 00                    ..........
	rel 0+0 t=24 type.uint+0
	rel 29+8 t=1 "".SubR+0
	rel 37+8 t=1 "".SubR+26
	rel 57+4 t=29 go.info.uint+0
	rel 61+4 t=29 +0
	rel 71+4 t=29 go.info.uint+0
	rel 75+4 t=29 +51
	rel 85+4 t=29 go.info.uint+0
	rel 89+4 t=29 +102
	rel 100+4 t=29 go.info.uint+0
	rel 104+4 t=29 +154
	rel 116+4 t=29 go.info.uint+0
aux for "".SubM SDWARFLOC size=155
	0x0000 ff ff ff ff ff ff ff ff 00 00 00 00 00 00 00 00  ................
	0x0010 00 00 00 00 00 00 00 00 3a 00 00 00 00 00 00 00  ........:.......
	0x0020 01 00 9c 00 00 00 00 00 00 00 00 00 00 00 00 00  ................
	0x0030 00 00 00 ff ff ff ff ff ff ff ff 00 00 00 00 00  ................
	0x0040 00 00 00 00 00 00 00 00 00 00 00 3a 00 00 00 00  ...........:....
	0x0050 00 00 00 02 00 91 08 00 00 00 00 00 00 00 00 00  ................
	0x0060 00 00 00 00 00 00 00 ff ff ff ff ff ff ff ff 00  ................
	0x0070 00 00 00 00 00 00 00 00 00 00 00 00 00 00 00 3a  ...............:
	0x0080 00 00 00 00 00 00 00 02 00 91 10 00 00 00 00 00  ................
	0x0090 00 00 00 00 00 00 00 00 00 00 00                 ...........
	rel 8+8 t=1 "".SubM+0
	rel 59+8 t=1 "".SubM+0
	rel 111+8 t=1 "".SubM+0
aux for "".SubM SDWARFLINES size=23
	0x0000 04 02 03 b6 04 14 06 41 06 ef 06 37 06 7e 06 37  .......A...7.~.7
	0x0010 06 7e 02 01 00 01 01                             .~.....
aux for "".SubM SDWARFINFO size=95
	0x0000 03 63 6f 6d 6d 61 6e 64 2d 6c 69 6e 65 2d 61 72  .command-line-ar
	0x0010 67 75 6d 65 6e 74 73 2e 53 75 62 4d 00 00 00 00  guments.SubM....
	0x0020 00 00 00 00 00 00 00 00 00 00 00 00 00 01 9c 02  ................
	0x0030 00 00 00 01 10 70 00 00 ba 04 00 00 00 00 00 00  .....p..........
	0x0040 00 00 10 71 00 00 ba 04 00 00 00 00 00 00 00 00  ...q............
	0x0050 10 72 00 00 ba 04 00 00 00 00 00 00 00 00 00     .r.............
	rel 0+0 t=24 type.*[3]uint+0
	rel 29+8 t=1 "".SubM+0
	rel 37+8 t=1 "".SubM+58
	rel 58+4 t=29 go.info.*[3]uint+0
	rel 62+4 t=29 +0
	rel 72+4 t=29 go.info.*[3]uint+0
	rel 76+4 t=29 +51
	rel 86+4 t=29 go.info.*[3]uint+0
	rel 90+4 t=29 +103
aux for "".Sub64 SDWARFLOC size=259
	0x0000 ff ff ff ff ff ff ff ff 00 00 00 00 00 00 00 00  ................
	0x0010 00 00 00 00 00 00 00 00 25 00 00 00 00 00 00 00  ........%.......
	0x0020 01 00 9c 00 00 00 00 00 00 00 00 00 00 00 00 00  ................
	0x0030 00 00 00 ff ff ff ff ff ff ff ff 00 00 00 00 00  ................
	0x0040 00 00 00 00 00 00 00 00 00 00 00 25 00 00 00 00  ...........%....
	0x0050 00 00 00 02 00 91 08 00 00 00 00 00 00 00 00 00  ................
	0x0060 00 00 00 00 00 00 00 ff ff ff ff ff ff ff ff 00  ................
	0x0070 00 00 00 00 00 00 00 00 00 00 00 00 00 00 00 25  ...............%
	0x0080 00 00 00 00 00 00 00 02 00 91 10 00 00 00 00 00  ................
	0x0090 00 00 00 00 00 00 00 00 00 00 00 ff ff ff ff ff  ................
	0x00a0 ff ff ff 00 00 00 00 00 00 00 00 19 00 00 00 00  ................
	0x00b0 00 00 00 25 00 00 00 00 00 00 00 02 00 91 18 00  ...%............
	0x00c0 00 00 00 00 00 00 00 00 00 00 00 00 00 00 00 ff  ................
	0x00d0 ff ff ff ff ff ff ff 00 00 00 00 00 00 00 00 1c  ................
	0x00e0 00 00 00 00 00 00 00 25 00 00 00 00 00 00 00 02  .......%........
	0x00f0 00 91 20 00 00 00 00 00 00 00 00 00 00 00 00 00  .. .............
	0x0100 00 00 00                                         ...
	rel 8+8 t=1 "".Sub64+0
	rel 59+8 t=1 "".Sub64+0
	rel 111+8 t=1 "".Sub64+0
	rel 163+8 t=1 "".Sub64+0
	rel 215+8 t=1 "".Sub64+0
aux for "".Sub64 SDWARFLINES size=13
	0x0000 04 02 03 c2 04 14 06 41 02 20 00 01 01           .......A. ...
aux for "".Sub64 SDWARFINFO size=126
	0x0000 03 63 6f 6d 6d 61 6e 64 2d 6c 69 6e 65 2d 61 72  .command-line-ar
	0x0010 67 75 6d 65 6e 74 73 2e 53 75 62 36 34 00 00 00  guments.Sub64...
	0x0020 00 00 00 00 00 00 00 00 00 00 00 00 00 00 01 9c  ................
	0x0030 02 00 00 00 01 10 78 00 00 c4 04 00 00 00 00 00  ......x.........
	0x0040 00 00 00 10 79 00 00 c4 04 00 00 00 00 00 00 00  ....y...........
	0x0050 00 10 63 69 00 00 c4 04 00 00 00 00 00 00 00 00  ..ci............
	0x0060 10 72 00 01 c4 04 00 00 00 00 00 00 00 00 10 63  .r.............c
	0x0070 6f 00 01 c4 04 00 00 00 00 00 00 00 00 00        o.............
	rel 0+0 t=24 type.uint64+0
	rel 30+8 t=1 "".Sub64+0
	rel 38+8 t=1 "".Sub64+37
	rel 59+4 t=29 go.info.uint64+0
	rel 63+4 t=29 +0
	rel 73+4 t=29 go.info.uint64+0
	rel 77+4 t=29 +51
	rel 88+4 t=29 go.info.uint64+0
	rel 92+4 t=29 +103
	rel 102+4 t=29 go.info.uint64+0
	rel 106+4 t=29 +155
	rel 117+4 t=29 go.info.uint64+0
	rel 121+4 t=29 +207
aux for "".Sub64C SDWARFLOC size=207
	0x0000 ff ff ff ff ff ff ff ff 00 00 00 00 00 00 00 00  ................
	0x0010 00 00 00 00 00 00 00 00 21 00 00 00 00 00 00 00  ........!.......
	0x0020 01 00 9c 00 00 00 00 00 00 00 00 00 00 00 00 00  ................
	0x0030 00 00 00 ff ff ff ff ff ff ff ff 00 00 00 00 00  ................
	0x0040 00 00 00 00 00 00 00 00 00 00 00 21 00 00 00 00  ...........!....
	0x0050 00 00 00 02 00 91 08 00 00 00 00 00 00 00 00 00  ................
	0x0060 00 00 00 00 00 00 00 ff ff ff ff ff ff ff ff 00  ................
	0x0070 00 00 00 00 00 00 00 15 00 00 00 00 00 00 00 21  ...............!
	0x0080 00 00 00 00 00 00 00 02 00 91 10 00 00 00 00 00  ................
	0x0090 00 00 00 00 00 00 00 00 00 00 00 ff ff ff ff ff  ................
	0x00a0 ff ff ff 00 00 00 00 00 00 00 00 18 00 00 00 00  ................
	0x00b0 00 00 00 21 00 00 00 00 00 00 00 02 00 91 18 00  ...!............
	0x00c0 00 00 00 00 00 00 00 00 00 00 00 00 00 00 00     ...............
	rel 8+8 t=1 "".Sub64C+0
	rel 59+8 t=1 "".Sub64C+0
	rel 111+8 t=1 "".Sub64C+0
	rel 163+8 t=1 "".Sub64C+0
aux for "".Sub64C SDWARFLINES size=13
	0x0000 04 02 03 c9 04 14 06 41 02 1c 00 01 01           .......A.....
aux for "".Sub64C SDWARFINFO size=113
	0x0000 03 63 6f 6d 6d 61 6e 64 2d 6c 69 6e 65 2d 61 72  .command-line-ar
	0x0010 67 75 6d 65 6e 74 73 2e 53 75 62 36 34 43 00 00  guments.Sub64C..
	0x0020 00 00 00 00 00 00 00 00 00 00 00 00 00 00 00 01  ................
	0x0030 9c 02 00 00 00 01 10 78 00 00 cb 04 00 00 00 00  .......x........
	0x0040 00 00 00 00 10 63 69 00 00 cb 04 00 00 00 00 00  .....ci.........
	0x0050 00 00 00 10 72 00 01 cb 04 00 00 00 00 00 00 00  ....r...........
	0x0060 00 10 63 6f 00 01 cb 04 00 00 00 00 00 00 00 00  ..co............
	0x0070 00                                               .
	rel 0+0 t=24 type.uint64+0
	rel 31+8 t=1 "".Sub64C+0
	rel 39+8 t=1 "".Sub64C+33
	rel 60+4 t=29 go.info.uint64+0
	rel 64+4 t=29 +0
	rel 75+4 t=29 go.info.uint64+0
	rel 79+4 t=29 +51
	rel 89+4 t=29 go.info.uint64+0
	rel 93+4 t=29 +103
	rel 104+4 t=29 go.info.uint64+0
	rel 108+4 t=29 +155
aux for "".Sub64Z SDWARFLOC size=207
	0x0000 ff ff ff ff ff ff ff ff 00 00 00 00 00 00 00 00  ................
	0x0010 00 00 00 00 00 00 00 00 1e 00 00 00 00 00 00 00  ................
	0x0020 01 00 9c 00 00 00 00 00 00 00 00 00 00 00 00 00  ................
	0x0030 00 00 00 ff ff ff ff ff ff ff ff 00 00 00 00 00  ................
	0x0040 00 00 00 00 00 00 00 00 00 00 00 1e 00 00 00 00  ................
	0x0050 00 00 00 02 00 91 08 00 00 00 00 00 00 00 00 00  ................
	0x0060 00 00 00 00 00 00 00 ff ff ff ff ff ff ff ff 00  ................
	0x0070 00 00 00 00 00 00 00 12 00 00 00 00 00 00 00 1e  ................
	0x0080 00 00 00 00 00 00 00 02 00 91 10 00 00 00 00 00  ................
	0x0090 00 00 00 00 00 00 00 00 00 00 00 ff ff ff ff ff  ................
	0x00a0 ff ff ff 00 00 00 00 00 00 00 00 15 00 00 00 00  ................
	0x00b0 00 00 00 1e 00 00 00 00 00 00 00 02 00 91 18 00  ................
	0x00c0 00 00 00 00 00 00 00 00 00 00 00 00 00 00 00     ...............
	rel 8+8 t=1 "".Sub64Z+0
	rel 59+8 t=1 "".Sub64Z+0
	rel 111+8 t=1 "".Sub64Z+0
	rel 163+8 t=1 "".Sub64Z+0
aux for "".Sub64Z SDWARFLINES size=13
	0x0000 04 02 03 d0 04 14 06 41 02 19 00 01 01           .......A.....
aux for "".Sub64Z SDWARFINFO size=112
	0x0000 03 63 6f 6d 6d 61 6e 64 2d 6c 69 6e 65 2d 61 72  .command-line-ar
	0x0010 67 75 6d 65 6e 74 73 2e 53 75 62 36 34 5a 00 00  guments.Sub64Z..
	0x0020 00 00 00 00 00 00 00 00 00 00 00 00 00 00 00 01  ................
	0x0030 9c 02 00 00 00 01 10 78 00 00 d2 04 00 00 00 00  .......x........
	0x0040 00 00 00 00 10 79 00 00 d2 04 00 00 00 00 00 00  .....y..........
	0x0050 00 00 10 72 00 01 d2 04 00 00 00 00 00 00 00 00  ...r............
	0x0060 10 63 6f 00 01 d2 04 00 00 00 00 00 00 00 00 00  .co.............
	rel 0+0 t=24 type.uint64+0
	rel 31+8 t=1 "".Sub64Z+0
	rel 39+8 t=1 "".Sub64Z+30
	rel 60+4 t=29 go.info.uint64+0
	rel 64+4 t=29 +0
	rel 74+4 t=29 go.info.uint64+0
	rel 78+4 t=29 +51
	rel 88+4 t=29 go.info.uint64+0
	rel 92+4 t=29 +103
	rel 103+4 t=29 go.info.uint64+0
	rel 107+4 t=29 +155
aux for "".Sub64R SDWARFLOC size=206
	0x0000 ff ff ff ff ff ff ff ff 00 00 00 00 00 00 00 00  ................
	0x0010 19 00 00 00 00 00 00 00 1a 00 00 00 00 00 00 00  ................
	0x0020 01 00 50 00 00 00 00 00 00 00 00 00 00 00 00 00  ..P.............
	0x0030 00 00 00 ff ff ff ff ff ff ff ff 00 00 00 00 00  ................
	0x0040 00 00 00 00 00 00 00 00 00 00 00 1a 00 00 00 00  ................
	0x0050 00 00 00 01 00 9c 00 00 00 00 00 00 00 00 00 00  ................
	0x0060 00 00 00 00 00 00 ff ff ff ff ff ff ff ff 00 00  ................
	0x0070 00 00 00 00 00 00 00 00 00 00 00 00 00 00 1a 00  ................
	0x0080 00 00 00 00 00 00 02 00 91 08 00 00 00 00 00 00  ................
	0x0090 00 00 00 00 00 00 00 00 00 00 ff ff ff ff ff ff  ................
	0x00a0 ff ff 00 00 00 00 00 00 00 00 00 00 00 00 00 00  ................
	0x00b0 00 00 1a 00 00 00 00 00 00 00 02 00 91 10 00 00  ................
	0x00c0 00 00 00 00 00 00 00 00 00 00 00 00 00 00        ..............
	rel 8+8 t=1 "".Sub64R+0
	rel 59+8 t=1 "".Sub64R+0
	rel 110+8 t=1 "".Sub64R+0
	rel 162+8 t=1 "".Sub64R+0
aux for "".Sub64R SDWARFLINES size=17
	0x0000 04 02 03 d7 04 14 06 41 06 a6 06 41 02 01 00 01  .......A...A....
	0x0010 01                                               .
aux for "".Sub64R SDWARFINFO size=124
	0x0000 03 63 6f 6d 6d 61 6e 64 2d 6c 69 6e 65 2d 61 72  .command-line-ar
	0x0010 67 75 6d 65 6e 74 73 2e 53 75 62 36 34 52 00 00  guments.Sub64R..
	0x0020 00 00 00 00 00 00 00 00 00 00 00 00 00 00 00 01  ................
	0x0030 9c 02 00 00 00 01 0b 72 00 dd 04 00 00 00 00 00  .......r........
	0x0040 00 00 00 10 78 00 00 d9 04 00 00 00 00 00 00 00  ....x...........
	0x0050 00 10 79 00 00 d9 04 00 00 00 00 00 00 00 00 10  ..y.............
	0x0060 63 69 00 00 d9 04 00 00 00 00 00 00 00 00 0f 7e  ci.............~
	0x0070 72 33 00 01 d9 04 00 00 00 00 00 00              r3..........
	rel 0+0 t=24 type.uint64+0
	rel 31+8 t=1 "".Sub64R+0
	rel 39+8 t=1 "".Sub64R+26
	rel 59+4 t=29 go.info.uint64+0
	rel 63+4 t=29 +0
	rel 73+4 t=29 go.info.uint64+0
	rel 77+4 t=29 +51
	rel 87+4 t=29 go.info.uint64+0
	rel 91+4 t=29 +102
	rel 102+4 t=29 go.info.uint64+0
	rel 106+4 t=29 +154
	rel 118+4 t=29 go.info.uint64+0
aux for "".Sub64M SDWARFLOC size=155
	0x0000 ff ff ff ff ff ff ff ff 00 00 00 00 00 00 00 00  ................
	0x0010 00 00 00 00 00 00 00 00 3a 00 00 00 00 00 00 00  ........:.......
	0x0020 01 00 9c 00 00 00 00 00 00 00 00 00 00 00 00 00  ................
	0x0030 00 00 00 ff ff ff ff ff ff ff ff 00 00 00 00 00  ................
	0x0040 00 00 00 00 00 00 00 00 00 00 00 3a 00 00 00 00  ...........:....
	0x0050 00 00 00 02 00 91 08 00 00 00 00 00 00 00 00 00  ................
	0x0060 00 00 00 00 00 00 00 ff ff ff ff ff ff ff ff 00  ................
	0x0070 00 00 00 00 00 00 00 00 00 00 00 00 00 00 00 3a  ...............:
	0x0080 00 00 00 00 00 00 00 02 00 91 10 00 00 00 00 00  ................
	0x0090 00 00 00 00 00 00 00 00 00 00 00                 ...........
	rel 8+8 t=1 "".Sub64M+0
	rel 59+8 t=1 "".Sub64M+0
	rel 111+8 t=1 "".Sub64M+0
aux for "".Sub64M SDWARFLINES size=23
	0x0000 04 02 03 dc 04 14 06 41 06 ef 06 37 06 7e 06 37  .......A...7.~.7
	0x0010 06 7e 02 01 00 01 01                             .~.....
aux for "".Sub64M SDWARFINFO size=97
	0x0000 03 63 6f 6d 6d 61 6e 64 2d 6c 69 6e 65 2d 61 72  .command-line-ar
	0x0010 67 75 6d 65 6e 74 73 2e 53 75 62 36 34 4d 00 00  guments.Sub64M..
	0x0020 00 00 00 00 00 00 00 00 00 00 00 00 00 00 00 01  ................
	0x0030 9c 02 00 00 00 01 10 70 00 00 e0 04 00 00 00 00  .......p........
	0x0040 00 00 00 00 10 71 00 00 e0 04 00 00 00 00 00 00  .....q..........
	0x0050 00 00 10 72 00 00 e0 04 00 00 00 00 00 00 00 00  ...r............
	0x0060 00                                               .
	rel 0+0 t=24 type.*[3]uint64+0
	rel 31+8 t=1 "".Sub64M+0
	rel 39+8 t=1 "".Sub64M+58
	rel 60+4 t=29 go.info.*[3]uint64+0
	rel 64+4 t=29 +0
	rel 74+4 t=29 go.info.*[3]uint64+0
	rel 78+4 t=29 +51
	rel 88+4 t=29 go.info.*[3]uint64+0
	rel 92+4 t=29 +103
aux for "".Sub64PanicOnOverflowEQ SDWARFLOC size=154
	0x0000 ff ff ff ff ff ff ff ff 00 00 00 00 00 00 00 00  ................
	0x0010 2d 00 00 00 00 00 00 00 4c 00 00 00 00 00 00 00  -.......L.......
	0x0020 01 00 50 00 00 00 00 00 00 00 00 00 00 00 00 00  ..P.............
	0x0030 00 00 00 ff ff ff ff ff ff ff ff 00 00 00 00 00  ................
	0x0040 00 00 00 00 00 00 00 00 00 00 00 6d 00 00 00 00  ...........m....
	0x0050 00 00 00 01 00 9c 00 00 00 00 00 00 00 00 00 00  ................
	0x0060 00 00 00 00 00 00 ff ff ff ff ff ff ff ff 00 00  ................
	0x0070 00 00 00 00 00 00 00 00 00 00 00 00 00 00 6d 00  ..............m.
	0x0080 00 00 00 00 00 00 02 00 91 08 00 00 00 00 00 00  ................
	0x0090 00 00 00 00 00 00 00 00 00 00                    ..........
	rel 8+8 t=1 "".Sub64PanicOnOverflowEQ+0
	rel 59+8 t=1 "".Sub64PanicOnOverflowEQ+0
	rel 110+8 t=1 "".Sub64PanicOnOverflowEQ+0
aux for "".Sub64PanicOnOverflowEQ SDWARFLINES size=31
	0x0000 04 02 03 e4 04 14 0a a5 9c 06 41 06 9d 06 37 06  ..........A...7.
	0x0010 26 06 41 06 71 06 55 06 d7 47 02 07 00 01 01     &.A.q.U..G.....
aux for "".Sub64PanicOnOverflowEQ SDWARFINFO size=125
	0x0000 03 63 6f 6d 6d 61 6e 64 2d 6c 69 6e 65 2d 61 72  .command-line-ar
	0x0010 67 75 6d 65 6e 74 73 2e 53 75 62 36 34 50 61 6e  guments.Sub64Pan
	0x0020 69 63 4f 6e 4f 76 65 72 66 6c 6f 77 45 51 00 00  icOnOverflowEQ..
	0x0030 00 00 00 00 00 00 00 00 00 00 00 00 00 00 00 01  ................
	0x0040 9c 02 00 00 00 01 0b 72 00 eb 04 00 00 00 00 00  .......r........
	0x0050 00 00 00 10 61 00 00 ea 04 00 00 00 00 00 00 00  ....a...........
	0x0060 00 10 62 00 00 ea 04 00 00 00 00 00 00 00 00 0f  ..b.............
	0x0070 7e 72 32 00 01 ea 04 00 00 00 00 00 00           ~r2..........
	rel 0+0 t=24 type.uint64+0
	rel 47+8 t=1 "".Sub64PanicOnOverflowEQ+0
	rel 55+8 t=1 "".Sub64PanicOnOverflowEQ+109
	rel 75+4 t=29 go.info.uint64+0
	rel 79+4 t=29 +0
	rel 89+4 t=29 go.info.uint64+0
	rel 93+4 t=29 +51
	rel 103+4 t=29 go.info.uint64+0
	rel 107+4 t=29 +102
	rel 119+4 t=29 go.info.uint64+0
aux for "".Sub64PanicOnOverflowNE SDWARFLOC size=154
	0x0000 ff ff ff ff ff ff ff ff 00 00 00 00 00 00 00 00  ................
	0x0010 2d 00 00 00 00 00 00 00 4b 00 00 00 00 00 00 00  -.......K.......
	0x0020 01 00 50 00 00 00 00 00 00 00 00 00 00 00 00 00  ..P.............
	0x0030 00 00 00 ff ff ff ff ff ff ff ff 00 00 00 00 00  ................
	0x0040 00 00 00 00 00 00 00 00 00 00 00 6d 00 00 00 00  ...........m....
	0x0050 00 00 00 01 00 9c 00 00 00 00 00 00 00 00 00 00  ................
	0x0060 00 00 00 00 00 00 ff ff ff ff ff ff ff ff 00 00  ................
	0x0070 00 00 00 00 00 00 00 00 00 00 00 00 00 00 6d 00  ..............m.
	0x0080 00 00 00 00 00 00 02 00 91 08 00 00 00 00 00 00  ................
	0x0090 00 00 00 00 00 00 00 00 00 00                    ..........
	rel 8+8 t=1 "".Sub64PanicOnOverflowNE+0
	rel 59+8 t=1 "".Sub64PanicOnOverflowNE+0
	rel 110+8 t=1 "".Sub64PanicOnOverflowNE+0
aux for "".Sub64PanicOnOverflowNE SDWARFLINES size=31
	0x0000 04 02 03 ed 04 14 0a a5 9c 06 41 06 9d 06 2d 06  ..........A...-.
	0x0010 26 06 41 06 71 06 55 06 e1 47 02 07 00 01 01     &.A.q.U..G.....
aux for "".Sub64PanicOnOverflowNE SDWARFINFO size=125
	0x0000 03 63 6f 6d 6d 61 6e 64 2d 6c 69 6e 65 2d 61 72  .command-line-ar
	0x0010 67 75 6d 65 6e 74 73 2e 53 75 62 36 34 50 61 6e  guments.Sub64Pan
	0x0020 69 63 4f 6e 4f 76 65 72 66 6c 6f 77 4e 45 00 00  icOnOverflowNE..
	0x0030 00 00 00 00 00 00 00 00 00 00 00 00 00 00 00 01  ................
	0x0040 9c 02 00 00 00 01 0b 72 00 f4 04 00 00 00 00 00  .......r........
	0x0050 00 00 00 10 61 00 00 f3 04 00 00 00 00 00 00 00  ....a...........
	0x0060 00 10 62 00 00 f3 04 00 00 00 00 00 00 00 00 0f  ..b.............
	0x0070 7e 72 32 00 01 f3 04 00 00 00 00 00 00           ~r2..........
	rel 0+0 t=24 type.uint64+0
	rel 47+8 t=1 "".Sub64PanicOnOverflowNE+0
	rel 55+8 t=1 "".Sub64PanicOnOverflowNE+109
	rel 75+4 t=29 go.info.uint64+0
	rel 79+4 t=29 +0
	rel 89+4 t=29 go.info.uint64+0
	rel 93+4 t=29 +51
	rel 103+4 t=29 go.info.uint64+0
	rel 107+4 t=29 +102
	rel 119+4 t=29 go.info.uint64+0
aux for "".Sub64PanicOnOverflowGT SDWARFLOC size=154
	0x0000 ff ff ff ff ff ff ff ff 00 00 00 00 00 00 00 00  ................
	0x0010 2d 00 00 00 00 00 00 00 4b 00 00 00 00 00 00 00  -.......K.......
	0x0020 01 00 50 00 00 00 00 00 00 00 00 00 00 00 00 00  ..P.............
	0x0030 00 00 00 ff ff ff ff ff ff ff ff 00 00 00 00 00  ................
	0x0040 00 00 00 00 00 00 00 00 00 00 00 6d 00 00 00 00  ...........m....
	0x0050 00 00 00 01 00 9c 00 00 00 00 00 00 00 00 00 00  ................
	0x0060 00 00 00 00 00 00 ff ff ff ff ff ff ff ff 00 00  ................
	0x0070 00 00 00 00 00 00 00 00 00 00 00 00 00 00 6d 00  ..............m.
	0x0080 00 00 00 00 00 00 02 00 91 08 00 00 00 00 00 00  ................
	0x0090 00 00 00 00 00 00 00 00 00 00                    ..........
	rel 8+8 t=1 "".Sub64PanicOnOverflowGT+0
	rel 59+8 t=1 "".Sub64PanicOnOverflowGT+0
	rel 110+8 t=1 "".Sub64PanicOnOverflowGT+0
aux for "".Sub64PanicOnOverflowGT SDWARFLINES size=31
	0x0000 04 02 03 f6 04 14 0a a5 9c 06 41 06 9d 06 2d 06  ..........A...-.
	0x0010 26 06 41 06 71 06 55 06 e1 47 02 07 00 01 01     &.A.q.U..G.....
aux for "".Sub64PanicOnOverflowGT SDWARFINFO size=125
	0x0000 03 63 6f 6d 6d 61 6e 64 2d 6c 69 6e 65 2d 61 72  .command-line-ar
	0x0010 67 75 6d 65 6e 74 73 2e 53 75 62 36 34 50 61 6e  guments.Sub64Pan
	0x0020 69 63 4f 6e 4f 76 65 72 66 6c 6f 77 47 54 00 00  icOnOverflowGT..
	0x0030 00 00 00 00 00 00 00 00 00 00 00 00 00 00 00 01  ................
	0x0040 9c 02 00 00 00 01 0b 72 00 fd 04 00 00 00 00 00  .......r........
	0x0050 00 00 00 10 61 00 00 fc 04 00 00 00 00 00 00 00  ....a...........
	0x0060 00 10 62 00 00 fc 04 00 00 00 00 00 00 00 00 0f  ..b.............
	0x0070 7e 72 32 00 01 fc 04 00 00 00 00 00 00           ~r2..........
	rel 0+0 t=24 type.uint64+0
	rel 47+8 t=1 "".Sub64PanicOnOverflowGT+0
	rel 55+8 t=1 "".Sub64PanicOnOverflowGT+109
	rel 75+4 t=29 go.info.uint64+0
	rel 79+4 t=29 +0
	rel 89+4 t=29 go.info.uint64+0
	rel 93+4 t=29 +51
	rel 103+4 t=29 go.info.uint64+0
	rel 107+4 t=29 +102
	rel 119+4 t=29 go.info.uint64+0
aux for "".Sub64MPanicOnOverflowEQ SDWARFLOC size=51
	0x0000 ff ff ff ff ff ff ff ff 00 00 00 00 00 00 00 00  ................
	0x0010 45 00 00 00 00 00 00 00 7b 00 00 00 00 00 00 00  E.......{.......
	0x0020 01 00 51 00 00 00 00 00 00 00 00 00 00 00 00 00  ..Q.............
	0x0030 00 00 00                                         ...
	rel 8+8 t=1 "".Sub64MPanicOnOverflowEQ+0
aux for "".Sub64MPanicOnOverflowEQ SDWARFLINES size=43
	0x0000 04 02 03 ff 04 14 0a a5 06 b9 06 44 06 41 06 60  ...........D.A.`
	0x0010 06 41 06 9d 06 37 06 26 06 41 06 a3 06 55 06 af  .A...7.&.A...U..
	0x0020 06 03 7d 47 06 37 02 0a 00 01 01                 ..}G.7.....
aux for "".Sub64MPanicOnOverflowEQ SDWARFINFO size=123
	0x0000 03 63 6f 6d 6d 61 6e 64 2d 6c 69 6e 65 2d 61 72  .command-line-ar
	0x0010 67 75 6d 65 6e 74 73 2e 53 75 62 36 34 4d 50 61  guments.Sub64MPa
	0x0020 6e 69 63 4f 6e 4f 76 65 72 66 6c 6f 77 45 51 00  nicOnOverflowEQ.
	0x0030 00 00 00 00 00 00 00 00 00 00 00 00 00 00 00 00  ................
	0x0040 01 9c 02 00 00 00 01 0b 63 00 87 05 00 00 00 00  ........c.......
	0x0050 00 00 00 00 0f 61 00 00 85 05 00 00 00 00 01 9c  .....a..........
	0x0060 0f 62 00 00 85 05 00 00 00 00 02 91 10 0f 7e 72  .b............~r
	0x0070 32 00 01 85 05 00 00 00 00 00 00                 2..........
	rel 0+0 t=24 type.[2]uint64+0
	rel 48+8 t=1 "".Sub64MPanicOnOverflowEQ+0
	rel 56+8 t=1 "".Sub64MPanicOnOverflowEQ+138
	rel 76+4 t=29 go.info.uint64+0
	rel 80+4 t=29 +0
	rel 90+4 t=29 go.info.[2]uint64+0
	rel 102+4 t=29 go.info.[2]uint64+0
	rel 117+4 t=29 go.info.[2]uint64+0
aux for "".Sub64MPanicOnOverflowNE SDWARFLOC size=51
	0x0000 ff ff ff ff ff ff ff ff 00 00 00 00 00 00 00 00  ................
	0x0010 45 00 00 00 00 00 00 00 7a 00 00 00 00 00 00 00  E.......z.......
	0x0020 01 00 51 00 00 00 00 00 00 00 00 00 00 00 00 00  ..Q.............
	0x0030 00 00 00                                         ...
	rel 8+8 t=1 "".Sub64MPanicOnOverflowNE+0
aux for "".Sub64MPanicOnOverflowNE SDWARFLINES size=43
	0x0000 04 02 03 8b 05 14 0a a5 06 b9 06 44 06 41 06 60  ...........D.A.`
	0x0010 06 41 06 9d 06 2d 06 26 06 41 06 a3 06 55 06 af  .A...-.&.A...U..
	0x0020 06 03 7d 47 06 41 02 0a 00 01 01                 ..}G.A.....
aux for "".Sub64MPanicOnOverflowNE SDWARFINFO size=123
	0x0000 03 63 6f 6d 6d 61 6e 64 2d 6c 69 6e 65 2d 61 72  .command-line-ar
	0x0010 67 75 6d 65 6e 74 73 2e 53 75 62 36 34 4d 50 61  guments.Sub64MPa
	0x0020 6e 69 63 4f 6e 4f 76 65 72 66 6c 6f 77 4e 45 00  nicOnOverflowNE.
	0x0030 00 00 00 00 00 00 00 00 00 00 00 00 00 00 00 00  ................
	0x0040 01 9c 02 00 00 00 01 0b 63 00 93 05 00 00 00 00  ........c.......
	0x0050 00 00 00 00 0f 61 00 00 91 05 00 00 00 00 01 9c  .....a..........
	0x0060 0f 62 00 00 91 05 00 00 00 00 02 91 10 0f 7e 72  .b............~r
	0x0070 32 00 01 91 05 00 00 00 00 00 00                 2..........
	rel 0+0 t=24 type.[2]uint64+0
	rel 48+8 t=1 "".Sub64MPanicOnOverflowNE+0
	rel 56+8 t=1 "".Sub64MPanicOnOverflowNE+138
	rel 76+4 t=29 go.info.uint64+0
	rel 80+4 t=29 +0
	rel 90+4 t=29 go.info.[2]uint64+0
	rel 102+4 t=29 go.info.[2]uint64+0
	rel 117+4 t=29 go.info.[2]uint64+0
aux for "".Sub64MPanicOnOverflowGT SDWARFLOC size=51
	0x0000 ff ff ff ff ff ff ff ff 00 00 00 00 00 00 00 00  ................
	0x0010 45 00 00 00 00 00 00 00 7a 00 00 00 00 00 00 00  E.......z.......
	0x0020 01 00 51 00 00 00 00 00 00 00 00 00 00 00 00 00  ..Q.............
	0x0030 00 00 00                                         ...
	rel 8+8 t=1 "".Sub64MPanicOnOverflowGT+0
aux for "".Sub64MPanicOnOverflowGT SDWARFLINES size=43
	0x0000 04 02 03 97 05 14 0a a5 06 b9 06 44 06 41 06 60  ...........D.A.`
	0x0010 06 41 06 9d 06 2d 06 26 06 41 06 a3 06 55 06 af  .A...-.&.A...U..
	0x0020 06 03 7d 47 06 41 02 0a 00 01 01                 ..}G.A.....
aux for "".Sub64MPanicOnOverflowGT SDWARFINFO size=123
	0x0000 03 63 6f 6d 6d 61 6e 64 2d 6c 69 6e 65 2d 61 72  .command-line-ar
	0x0010 67 75 6d 65 6e 74 73 2e 53 75 62 36 34 4d 50 61  guments.Sub64MPa
	0x0020 6e 69 63 4f 6e 4f 76 65 72 66 6c 6f 77 47 54 00  nicOnOverflowGT.
	0x0030 00 00 00 00 00 00 00 00 00 00 00 00 00 00 00 00  ................
	0x0040 01 9c 02 00 00 00 01 0b 63 00 9f 05 00 00 00 00  ........c.......
	0x0050 00 00 00 00 0f 61 00 00 9d 05 00 00 00 00 01 9c  .....a..........
	0x0060 0f 62 00 00 9d 05 00 00 00 00 02 91 10 0f 7e 72  .b............~r
	0x0070 32 00 01 9d 05 00 00 00 00 00 00                 2..........
	rel 0+0 t=24 type.[2]uint64+0
	rel 48+8 t=1 "".Sub64MPanicOnOverflowGT+0
	rel 56+8 t=1 "".Sub64MPanicOnOverflowGT+138
	rel 76+4 t=29 go.info.uint64+0
	rel 80+4 t=29 +0
	rel 90+4 t=29 go.info.[2]uint64+0
	rel 102+4 t=29 go.info.[2]uint64+0
	rel 117+4 t=29 go.info.[2]uint64+0
aux for "".Mul SDWARFLOC size=207
	0x0000 ff ff ff ff ff ff ff ff 00 00 00 00 00 00 00 00  ................
	0x0010 00 00 00 00 00 00 00 00 18 00 00 00 00 00 00 00  ................
	0x0020 01 00 9c 00 00 00 00 00 00 00 00 00 00 00 00 00  ................
	0x0030 00 00 00 ff ff ff ff ff ff ff ff 00 00 00 00 00  ................
	0x0040 00 00 00 00 00 00 00 00 00 00 00 18 00 00 00 00  ................
	0x0050 00 00 00 02 00 91 08 00 00 00 00 00 00 00 00 00  ................
	0x0060 00 00 00 00 00 00 00 ff ff ff ff ff ff ff ff 00  ................
	0x0070 00 00 00 00 00 00 00 12 00 00 00 00 00 00 00 18  ................
	0x0080 00 00 00 00 00 00 00 02 00 91 10 00 00 00 00 00  ................
	0x0090 00 00 00 00 00 00 00 00 00 00 00 ff ff ff ff ff  ................
	0x00a0 ff ff ff 00 00 00 00 00 00 00 00 17 00 00 00 00  ................
	0x00b0 00 00 00 18 00 00 00 00 00 00 00 02 00 91 18 00  ................
	0x00c0 00 00 00 00 00 00 00 00 00 00 00 00 00 00 00     ...............
	rel 8+8 t=1 "".Mul+0
	rel 59+8 t=1 "".Mul+0
	rel 111+8 t=1 "".Mul+0
	rel 163+8 t=1 "".Mul+0
aux for "".Mul SDWARFLINES size=13
	0x0000 04 02 03 ae 05 14 06 41 02 13 00 01 01           .......A.....
aux for "".Mul SDWARFINFO size=110
	0x0000 03 63 6f 6d 6d 61 6e 64 2d 6c 69 6e 65 2d 61 72  .command-line-ar
	0x0010 67 75 6d 65 6e 74 73 2e 4d 75 6c 00 00 00 00 00  guments.Mul.....
	0x0020 00 00 00 00 00 00 00 00 00 00 00 00 01 9c 02 00  ................
	0x0030 00 00 01 10 78 00 00 ad 05 00 00 00 00 00 00 00  ....x...........
	0x0040 00 10 79 00 00 ad 05 00 00 00 00 00 00 00 00 10  ..y.............
	0x0050 68 69 00 01 ad 05 00 00 00 00 00 00 00 00 10 6c  hi.............l
	0x0060 6f 00 01 ad 05 00 00 00 00 00 00 00 00 00        o.............
	rel 0+0 t=24 type.uint+0
	rel 28+8 t=1 "".Mul+0
	rel 36+8 t=1 "".Mul+24
	rel 57+4 t=29 go.info.uint+0
	rel 61+4 t=29 +0
	rel 71+4 t=29 go.info.uint+0
	rel 75+4 t=29 +51
	rel 86+4 t=29 go.info.uint+0
	rel 90+4 t=29 +103
	rel 101+4 t=29 go.info.uint+0
	rel 105+4 t=29 +155
aux for "".Mul64 SDWARFLOC size=207
	0x0000 ff ff ff ff ff ff ff ff 00 00 00 00 00 00 00 00  ................
	0x0010 00 00 00 00 00 00 00 00 18 00 00 00 00 00 00 00  ................
	0x0020 01 00 9c 00 00 00 00 00 00 00 00 00 00 00 00 00  ................
	0x0030 00 00 00 ff ff ff ff ff ff ff ff 00 00 00 00 00  ................
	0x0040 00 00 00 00 00 00 00 00 00 00 00 18 00 00 00 00  ................
	0x0050 00 00 00 02 00 91 08 00 00 00 00 00 00 00 00 00  ................
	0x0060 00 00 00 00 00 00 00 ff ff ff ff ff ff ff ff 00  ................
	0x0070 00 00 00 00 00 00 00 12 00 00 00 00 00 00 00 18  ................
	0x0080 00 00 00 00 00 00 00 02 00 91 10 00 00 00 00 00  ................
	0x0090 00 00 00 00 00 00 00 00 00 00 00 ff ff ff ff ff  ................
	0x00a0 ff ff ff 00 00 00 00 00 00 00 00 17 00 00 00 00  ................
	0x00b0 00 00 00 18 00 00 00 00 00 00 00 02 00 91 18 00  ................
	0x00c0 00 00 00 00 00 00 00 00 00 00 00 00 00 00 00     ...............
	rel 8+8 t=1 "".Mul64+0
	rel 59+8 t=1 "".Mul64+0
	rel 111+8 t=1 "".Mul64+0
	rel 163+8 t=1 "".Mul64+0
aux for "".Mul64 SDWARFLINES size=13
	0x0000 04 02 03 b8 05 14 06 41 02 13 00 01 01           .......A.....
aux for "".Mul64 SDWARFINFO size=112
	0x0000 03 63 6f 6d 6d 61 6e 64 2d 6c 69 6e 65 2d 61 72  .command-line-ar
	0x0010 67 75 6d 65 6e 74 73 2e 4d 75 6c 36 34 00 00 00  guments.Mul64...
	0x0020 00 00 00 00 00 00 00 00 00 00 00 00 00 00 01 9c  ................
	0x0030 02 00 00 00 01 10 78 00 00 b7 05 00 00 00 00 00  ......x.........
	0x0040 00 00 00 10 79 00 00 b7 05 00 00 00 00 00 00 00  ....y...........
	0x0050 00 10 68 69 00 01 b7 05 00 00 00 00 00 00 00 00  ..hi............
	0x0060 10 6c 6f 00 01 b7 05 00 00 00 00 00 00 00 00 00  .lo.............
	rel 0+0 t=24 type.uint64+0
	rel 30+8 t=1 "".Mul64+0
	rel 38+8 t=1 "".Mul64+24
	rel 59+4 t=29 go.info.uint64+0
	rel 63+4 t=29 +0
	rel 73+4 t=29 go.info.uint64+0
	rel 77+4 t=29 +51
	rel 88+4 t=29 go.info.uint64+0
	rel 92+4 t=29 +103
	rel 103+4 t=29 go.info.uint64+0
	rel 107+4 t=29 +155
aux for "".Div SDWARFLOC size=259
	0x0000 ff ff ff ff ff ff ff ff 00 00 00 00 00 00 00 00  ................
	0x0010 00 00 00 00 00 00 00 00 5c 00 00 00 00 00 00 00  ........\.......
	0x0020 01 00 9c 00 00 00 00 00 00 00 00 00 00 00 00 00  ................
	0x0030 00 00 00 ff ff ff ff ff ff ff ff 00 00 00 00 00  ................
	0x0040 00 00 00 00 00 00 00 00 00 00 00 5c 00 00 00 00  ...........\....
	0x0050 00 00 00 02 00 91 08 00 00 00 00 00 00 00 00 00  ................
	0x0060 00 00 00 00 00 00 00 ff ff ff ff ff ff ff ff 00  ................
	0x0070 00 00 00 00 00 00 00 00 00 00 00 00 00 00 00 5c  ...............\
	0x0080 00 00 00 00 00 00 00 02 00 91 10 00 00 00 00 00  ................
	0x0090 00 00 00 00 00 00 00 00 00 00 00 ff ff ff ff ff  ................
	0x00a0 ff ff ff 00 00 00 00 00 00 00 00 3c 00 00 00 00  ...........<....
	0x00b0 00 00 00 4f 00 00 00 00 00 00 00 02 00 91 18 00  ...O............
	0x00c0 00 00 00 00 00 00 00 00 00 00 00 00 00 00 00 ff  ................
	0x00d0 ff ff ff ff ff ff ff 00 00 00 00 00 00 00 00 41  ...............A
	0x00e0 00 00 00 00 00 00 00 4f 00 00 00 00 00 00 00 02  .......O........
	0x00f0 00 91 20 00 00 00 00 00 00 00 00 00 00 00 00 00  .. .............
	0x0100 00 00 00                                         ...
	rel 8+8 t=1 "".Div+0
	rel 59+8 t=1 "".Div+0
	rel 111+8 t=1 "".Div+0
	rel 163+8 t=1 "".Div+0
	rel 215+8 t=1 "".Div+0
aux for "".Div SDWARFLINES size=24
	0x0000 04 02 03 bf 05 14 0a a5 89 06 41 06 a5 06 41 06  ..........A...A.
	0x0010 08 5f 17 02 07 00 01 01                          ._......
aux for "".Div SDWARFINFO size=124
	0x0000 03 63 6f 6d 6d 61 6e 64 2d 6c 69 6e 65 2d 61 72  .command-line-ar
	0x0010 67 75 6d 65 6e 74 73 2e 44 69 76 00 00 00 00 00  guments.Div.....
	0x0020 00 00 00 00 00 00 00 00 00 00 00 00 01 9c 02 00  ................
	0x0030 00 00 01 10 68 69 00 00 c5 05 00 00 00 00 00 00  ....hi..........
	0x0040 00 00 10 6c 6f 00 00 c5 05 00 00 00 00 00 00 00  ...lo...........
	0x0050 00 10 78 00 00 c5 05 00 00 00 00 00 00 00 00 10  ..x.............
	0x0060 71 00 01 c5 05 00 00 00 00 00 00 00 00 10 72 00  q.............r.
	0x0070 01 c5 05 00 00 00 00 00 00 00 00 00              ............
	rel 0+0 t=24 type.uint+0
	rel 28+8 t=1 "".Div+0
	rel 36+8 t=1 "".Div+92
	rel 58+4 t=29 go.info.uint+0
	rel 62+4 t=29 +0
	rel 73+4 t=29 go.info.uint+0
	rel 77+4 t=29 +51
	rel 87+4 t=29 go.info.uint+0
	rel 91+4 t=29 +103
	rel 101+4 t=29 go.info.uint+0
	rel 105+4 t=29 +155
	rel 115+4 t=29 go.info.uint+0
	rel 119+4 t=29 +207
aux for "".Div32 SDWARFRANGE size=64
	0x0000 ff ff ff ff ff ff ff ff 00 00 00 00 00 00 00 00  ................
	0x0010 21 00 00 00 00 00 00 00 42 00 00 00 00 00 00 00  !.......B.......
	0x0020 54 00 00 00 00 00 00 00 87 00 00 00 00 00 00 00  T...............
	0x0030 00 00 00 00 00 00 00 00 00 00 00 00 00 00 00 00  ................
	rel 8+8 t=1 "".Div32+0
aux for "".Div32 SDWARFLOC size=465
	0x0000 ff ff ff ff ff ff ff ff 00 00 00 00 00 00 00 00  ................
	0x0010 00 00 00 00 00 00 00 00 91 00 00 00 00 00 00 00  ................
	0x0020 01 00 9c 00 00 00 00 00 00 00 00 00 00 00 00 00  ................
	0x0030 00 00 00 ff ff ff ff ff ff ff ff 00 00 00 00 00  ................
	0x0040 00 00 00 00 00 00 00 00 00 00 00 91 00 00 00 00  ................
	0x0050 00 00 00 02 00 91 04 00 00 00 00 00 00 00 00 00  ................
	0x0060 00 00 00 00 00 00 00 ff ff ff ff ff ff ff ff 00  ................
	0x0070 00 00 00 00 00 00 00 00 00 00 00 00 00 00 00 91  ................
	0x0080 00 00 00 00 00 00 00 02 00 91 08 00 00 00 00 00  ................
	0x0090 00 00 00 00 00 00 00 00 00 00 00 ff ff ff ff ff  ................
	0x00a0 ff ff ff 00 00 00 00 00 00 00 00 46 00 00 00 00  ...........F....
	0x00b0 00 00 00 58 00 00 00 00 00 00 00 02 00 91 10 00  ...X............
	0x00c0 00 00 00 00 00 00 00 00 00 00 00 00 00 00 00 ff  ................
	0x00d0 ff ff ff ff ff ff ff 00 00 00 00 00 00 00 00 4a  ...............J
	0x00e0 00 00 00 00 00 00 00 58 00 00 00 00 00 00 00 02  .......X........
	0x00f0 00 91 14 00 00 00 00 00 00 00 00 00 00 00 00 00  ................
	0x0100 00 00 00 ff ff ff ff ff ff ff ff 00 00 00 00 00  ................
	0x0110 00 00 00 00 00 00 00 00 00 00 00 91 00 00 00 00  ................
	0x0120 00 00 00 01 00 9c 00 00 00 00 00 00 00 00 00 00  ................
	0x0130 00 00 00 00 00 00 ff ff ff ff ff ff ff ff 00 00  ................
	0x0140 00 00 00 00 00 00 00 00 00 00 00 00 00 00 91 00  ................
	0x0150 00 00 00 00 00 00 02 00 91 04 00 00 00 00 00 00  ................
	0x0160 00 00 00 00 00 00 00 00 00 00 ff ff ff ff ff ff  ................
	0x0170 ff ff 00 00 00 00 00 00 00 00 00 00 00 00 00 00  ................
	0x0180 00 00 91 00 00 00 00 00 00 00 02 00 91 08 00 00  ................
	0x0190 00 00 00 00 00 00 00 00 00 00 00 00 00 00 ff ff  ................
	0x01a0 ff ff ff ff ff ff 00 00 00 00 00 00 00 00 38 00  ..............8.
	0x01b0 00 00 00 00 00 00 46 00 00 00 00 00 00 00 01 00  ......F.........
	0x01c0 50 00 00 00 00 00 00 00 00 00 00 00 00 00 00 00  P...............
	0x01d0 00                                               .
	rel 8+8 t=1 "".Div32+0
	rel 59+8 t=1 "".Div32+0
	rel 111+8 t=1 "".Div32+0
	rel 163+8 t=1 "".Div32+0
	rel 215+8 t=1 "".Div32+0
	rel 267+8 t=1 "".Div32+0
	rel 318+8 t=1 "".Div32+0
	rel 370+8 t=1 "".Div32+0
	rel 422+8 t=1 "".Div32+0
aux for "".Div32 SDWARFLINES size=60
	0x0000 04 02 03 c4 05 14 0a a5 9d 04 03 03 ac 7e 33 06  .............~3.
	0x0010 23 06 76 06 37 06 56 06 2d 04 02 06 03 cf 01 5a  #.v.7.V.-......Z
	0x0020 06 37 04 03 03 af 7e 97 34 06 24 06 55 c6 3e 06  .7....~.4.$.U.>.
	0x0030 9b 04 02 03 d0 01 1e 02 0a 00 01 01              ............
aux for "".Div32 SDWARFINFO size=178
	0x0000 03 63 6f 6d 6d 61 6e 64 2d 6c 69 6e 65 2d 61 72  .command-line-ar
	0x0010 67 75 6d 65 6e 74 73 2e 44 69 76 33 32 00 00 00  guments.Div32...
	0x0020 00 00 00 00 00 00 00 00 00 00 00 00 00 00 01 9c  ................
	0x0030 02 00 00 00 01 10 68 69 00 00 ca 05 00 00 00 00  ......hi........
	0x0040 00 00 00 00 10 6c 6f 00 00 ca 05 00 00 00 00 00  .....lo.........
	0x0050 00 00 00 10 78 00 00 ca 05 00 00 00 00 00 00 00  ....x...........
	0x0060 00 10 71 00 01 ca 05 00 00 00 00 00 00 00 00 10  ..q.............
	0x0070 72 00 01 ca 05 00 00 00 00 00 00 00 00 07 00 00  r...............
	0x0080 00 00 00 00 00 00 02 00 00 00 cc 05 13 00 00 00  ................
	0x0090 00 00 00 00 00 13 00 00 00 00 00 00 00 00 13 00  ................
	0x00a0 00 00 00 00 00 00 00 0e 00 00 00 00 00 00 00 00  ................
	0x00b0 00 00                                            ..
	rel 0+0 t=24 type.uint32+0
	rel 30+8 t=1 "".Div32+0
	rel 38+8 t=1 "".Div32+145
	rel 60+4 t=29 go.info.uint32+0
	rel 64+4 t=29 +0
	rel 75+4 t=29 go.info.uint32+0
	rel 79+4 t=29 +51
	rel 89+4 t=29 go.info.uint32+0
	rel 93+4 t=29 +103
	rel 103+4 t=29 go.info.uint32+0
	rel 107+4 t=29 +155
	rel 117+4 t=29 go.info.uint32+0
	rel 121+4 t=29 +207
	rel 126+4 t=29 go.info.math/bits.Div32$abstract+0
	rel 130+4 t=29 +0
	rel 141+4 t=29 go.info.math/bits.Div32$abstract+19
	rel 145+4 t=29 +259
	rel 150+4 t=29 go.info.math/bits.Div32$abstract+28
	rel 154+4 t=29 +310
	rel 159+4 t=29 go.info.math/bits.Div32$abstract+37
	rel 163+4 t=29 +362
	rel 168+4 t=29 go.info.math/bits.Div32$abstract+65
	rel 172+4 t=29 +414
aux for "".Div64 SDWARFLOC size=259
	0x0000 ff ff ff ff ff ff ff ff 00 00 00 00 00 00 00 00  ................
	0x0010 00 00 00 00 00 00 00 00 5c 00 00 00 00 00 00 00  ........\.......
	0x0020 01 00 9c 00 00 00 00 00 00 00 00 00 00 00 00 00  ................
	0x0030 00 00 00 ff ff ff ff ff ff ff ff 00 00 00 00 00  ................
	0x0040 00 00 00 00 00 00 00 00 00 00 00 5c 00 00 00 00  ...........\....
	0x0050 00 00 00 02 00 91 08 00 00 00 00 00 00 00 00 00  ................
	0x0060 00 00 00 00 00 00 00 ff ff ff ff ff ff ff ff 00  ................
	0x0070 00 00 00 00 00 00 00 00 00 00 00 00 00 00 00 5c  ...............\
	0x0080 00 00 00 00 00 00 00 02 00 91 10 00 00 00 00 00  ................
	0x0090 00 00 00 00 00 00 00 00 00 00 00 ff ff ff ff ff  ................
	0x00a0 ff ff ff 00 00 00 00 00 00 00 00 3c 00 00 00 00  ...........<....
	0x00b0 00 00 00 4f 00 00 00 00 00 00 00 02 00 91 18 00  ...O............
	0x00c0 00 00 00 00 00 00 00 00 00 00 00 00 00 00 00 ff  ................
	0x00d0 ff ff ff ff ff ff ff 00 00 00 00 00 00 00 00 41  ...............A
	0x00e0 00 00 00 00 00 00 00 4f 00 00 00 00 00 00 00 02  .......O........
	0x00f0 00 91 20 00 00 00 00 00 00 00 00 00 00 00 00 00  .. .............
	0x0100 00 00 00                                         ...
	rel 8+8 t=1 "".Div64+0
	rel 59+8 t=1 "".Div64+0
	rel 111+8 t=1 "".Div64+0
	rel 163+8 t=1 "".Div64+0
	rel 215+8 t=1 "".Div64+0
aux for "".Div64 SDWARFLINES size=24
	0x0000 04 02 03 c9 05 14 0a a5 89 06 41 06 a5 06 41 06  ..........A...A.
	0x0010 08 5f 17 02 07 00 01 01                          ._......
aux for "".Div64 SDWARFINFO size=126
	0x0000 03 63 6f 6d 6d 61 6e 64 2d 6c 69 6e 65 2d 61 72  .command-line-ar
	0x0010 67 75 6d 65 6e 74 73 2e 44 69 76 36 34 00 00 00  guments.Div64...
	0x0020 00 00 00 00 00 00 00 00 00 00 00 00 00 00 01 9c  ................
	0x0030 02 00 00 00 01 10 68 69 00 00 cf 05 00 00 00 00  ......hi........
	0x0040 00 00 00 00 10 6c 6f 00 00 cf 05 00 00 00 00 00  .....lo.........
	0x0050 00 00 00 10 78 00 00 cf 05 00 00 00 00 00 00 00  ....x...........
	0x0060 00 10 71 00 01 cf 05 00 00 00 00 00 00 00 00 10  ..q.............
	0x0070 72 00 01 cf 05 00 00 00 00 00 00 00 00 00        r.............
	rel 0+0 t=24 type.uint64+0
	rel 30+8 t=1 "".Div64+0
	rel 38+8 t=1 "".Div64+92
	rel 60+4 t=29 go.info.uint64+0
	rel 64+4 t=29 +0
	rel 75+4 t=29 go.info.uint64+0
	rel 79+4 t=29 +51
	rel 89+4 t=29 go.info.uint64+0
	rel 93+4 t=29 +103
	rel 103+4 t=29 go.info.uint64+0
	rel 107+4 t=29 +155
	rel 117+4 t=29 go.info.uint64+0
	rel 121+4 t=29 +207
aux for "".Div64degenerate SDWARFLOC size=155
	0x0000 ff ff ff ff ff ff ff ff 00 00 00 00 00 00 00 00  ................
	0x0010 00 00 00 00 00 00 00 00 28 00 00 00 00 00 00 00  ........(.......
	0x0020 01 00 9c 00 00 00 00 00 00 00 00 00 00 00 00 00  ................
	0x0030 00 00 00 ff ff ff ff ff ff ff ff 00 00 00 00 00  ................
	0x0040 00 00 00 00 00 00 00 00 00 00 00 28 00 00 00 00  ...........(....
	0x0050 00 00 00 02 00 91 08 00 00 00 00 00 00 00 00 00  ................
	0x0060 00 00 00 00 00 00 00 ff ff ff ff ff ff ff ff 00  ................
	0x0070 00 00 00 00 00 00 00 1f 00 00 00 00 00 00 00 28  ...............(
	0x0080 00 00 00 00 00 00 00 02 00 91 10 00 00 00 00 00  ................
	0x0090 00 00 00 00 00 00 00 00 00 00 00                 ...........
	rel 8+8 t=1 "".Div64degenerate+0
	rel 59+8 t=1 "".Div64degenerate+0
	rel 111+8 t=1 "".Div64degenerate+0
aux for "".Div64degenerate SDWARFLINES size=13
	0x0000 04 02 03 d0 05 14 06 73 02 1e 00 01 01           .......s.....
aux for "".Div64degenerate SDWARFINFO size=106
	0x0000 03 63 6f 6d 6d 61 6e 64 2d 6c 69 6e 65 2d 61 72  .command-line-ar
	0x0010 67 75 6d 65 6e 74 73 2e 44 69 76 36 34 64 65 67  guments.Div64deg
	0x0020 65 6e 65 72 61 74 65 00 00 00 00 00 00 00 00 00  enerate.........
	0x0030 00 00 00 00 00 00 00 00 01 9c 02 00 00 00 01 10  ................
	0x0040 78 00 00 d4 05 00 00 00 00 00 00 00 00 10 71 00  x.............q.
	0x0050 01 d4 05 00 00 00 00 00 00 00 00 10 72 00 01 d4  ............r...
	0x0060 05 00 00 00 00 00 00 00 00 00                    ..........
	rel 0+0 t=24 type.uint64+0
	rel 40+8 t=1 "".Div64degenerate+0
	rel 48+8 t=1 "".Div64degenerate+40
	rel 69+4 t=29 go.info.uint64+0
	rel 73+4 t=29 +0
	rel 83+4 t=29 go.info.uint64+0
	rel 87+4 t=29 +51
	rel 97+4 t=29 go.info.uint64+0
	rel 101+4 t=29 +103
