# command-line-arguments
"".mapCompoundAssignmentInt8 STEXT size=592 args=0x0 locals=0x80
	0x0000 00000 (/usr/local/go/test/codegen/mapaccess.go:12)	TEXT	"".mapCompoundAssignmentInt8(SB), ABIInternal, $128-0
	0x0000 00000 (/usr/local/go/test/codegen/mapaccess.go:12)	MOVQ	(TLS), CX
	0x0009 00009 (/usr/local/go/test/codegen/mapaccess.go:12)	CMPQ	SP, 16(CX)
	0x000d 00013 (/usr/local/go/test/codegen/mapaccess.go:12)	PCDATA	$0, $-2
	0x000d 00013 (/usr/local/go/test/codegen/mapaccess.go:12)	JLS	582
	0x0013 00019 (/usr/local/go/test/codegen/mapaccess.go:12)	PCDATA	$0, $-1
	0x0013 00019 (/usr/local/go/test/codegen/mapaccess.go:12)	ADDQ	$-128, SP
	0x0017 00023 (/usr/local/go/test/codegen/mapaccess.go:12)	MOVQ	BP, 120(SP)
	0x001c 00028 (/usr/local/go/test/codegen/mapaccess.go:12)	LEAQ	120(SP), BP
	0x0021 00033 (/usr/local/go/test/codegen/mapaccess.go:12)	FUNCDATA	$0, gclocals·69c1753bd5f81501d95132d08af04464(SB)
	0x0021 00033 (/usr/local/go/test/codegen/mapaccess.go:12)	FUNCDATA	$1, gclocals·d9a525d1de6bc16975a5efbb873db17d(SB)
	0x0021 00033 (/usr/local/go/test/codegen/mapaccess.go:12)	FUNCDATA	$3, "".mapCompoundAssignmentInt8.stkobj(SB)
	0x0021 00033 (/usr/local/go/test/codegen/mapaccess.go:13)	XORPS	X0, X0
	0x0024 00036 (/usr/local/go/test/codegen/mapaccess.go:13)	MOVUPS	X0, ""..autotmp_3+72(SP)
	0x0029 00041 (/usr/local/go/test/codegen/mapaccess.go:13)	MOVUPS	X0, ""..autotmp_3+88(SP)
	0x002e 00046 (/usr/local/go/test/codegen/mapaccess.go:13)	MOVUPS	X0, ""..autotmp_3+104(SP)
	0x0033 00051 (/usr/local/go/test/codegen/mapaccess.go:13)	MOVUPS	X0, ""..autotmp_4+40(SP)
	0x0038 00056 (/usr/local/go/test/codegen/mapaccess.go:13)	MOVUPS	X0, ""..autotmp_4+56(SP)
	0x003d 00061 (/usr/local/go/test/codegen/mapaccess.go:13)	LEAQ	""..autotmp_4+40(SP), AX
	0x0042 00066 (/usr/local/go/test/codegen/mapaccess.go:13)	MOVQ	AX, ""..autotmp_3+88(SP)
	0x0047 00071 (/usr/local/go/test/codegen/mapaccess.go:13)	PCDATA	$1, $1
	0x0047 00071 (/usr/local/go/test/codegen/mapaccess.go:13)	CALL	runtime.fastrand(SB)
	0x004c 00076 (/usr/local/go/test/codegen/mapaccess.go:13)	MOVL	(SP), AX
	0x004f 00079 (/usr/local/go/test/codegen/mapaccess.go:13)	MOVL	AX, ""..autotmp_3+84(SP)
	0x0053 00083 (/usr/local/go/test/codegen/mapaccess.go:20)	MOVB	$0, ""..autotmp_2+39(SP)
	0x0058 00088 (/usr/local/go/test/codegen/mapaccess.go:20)	LEAQ	type.map[int8]int8(SB), AX
	0x005f 00095 (/usr/local/go/test/codegen/mapaccess.go:20)	MOVQ	AX, (SP)
	0x0063 00099 (/usr/local/go/test/codegen/mapaccess.go:20)	LEAQ	""..autotmp_3+72(SP), CX
	0x0068 00104 (/usr/local/go/test/codegen/mapaccess.go:20)	MOVQ	CX, 8(SP)
	0x006d 00109 (/usr/local/go/test/codegen/mapaccess.go:20)	LEAQ	""..autotmp_2+39(SP), DX
	0x0072 00114 (/usr/local/go/test/codegen/mapaccess.go:20)	MOVQ	DX, 16(SP)
	0x0077 00119 (/usr/local/go/test/codegen/mapaccess.go:20)	CALL	runtime.mapassign(SB)
	0x007c 00124 (/usr/local/go/test/codegen/mapaccess.go:20)	MOVQ	24(SP), AX
	0x0081 00129 (/usr/local/go/test/codegen/mapaccess.go:20)	MOVBLZX	(AX), CX
	0x0084 00132 (/usr/local/go/test/codegen/mapaccess.go:20)	ADDL	$67, CX
	0x0087 00135 (/usr/local/go/test/codegen/mapaccess.go:20)	MOVB	CL, (AX)
	0x0089 00137 (/usr/local/go/test/codegen/mapaccess.go:26)	MOVB	$0, ""..autotmp_2+39(SP)
	0x008e 00142 (/usr/local/go/test/codegen/mapaccess.go:26)	LEAQ	type.map[int8]int8(SB), AX
	0x0095 00149 (/usr/local/go/test/codegen/mapaccess.go:26)	MOVQ	AX, (SP)
	0x0099 00153 (/usr/local/go/test/codegen/mapaccess.go:26)	LEAQ	""..autotmp_3+72(SP), CX
	0x009e 00158 (/usr/local/go/test/codegen/mapaccess.go:26)	MOVQ	CX, 8(SP)
	0x00a3 00163 (/usr/local/go/test/codegen/mapaccess.go:26)	LEAQ	""..autotmp_2+39(SP), DX
	0x00a8 00168 (/usr/local/go/test/codegen/mapaccess.go:26)	MOVQ	DX, 16(SP)
	0x00ad 00173 (/usr/local/go/test/codegen/mapaccess.go:26)	CALL	runtime.mapassign(SB)
	0x00b2 00178 (/usr/local/go/test/codegen/mapaccess.go:26)	MOVQ	24(SP), AX
	0x00b7 00183 (/usr/local/go/test/codegen/mapaccess.go:26)	MOVBLZX	(AX), CX
	0x00ba 00186 (/usr/local/go/test/codegen/mapaccess.go:26)	ADDL	$-123, CX
	0x00bd 00189 (/usr/local/go/test/codegen/mapaccess.go:26)	MOVB	CL, (AX)
	0x00bf 00191 (/usr/local/go/test/codegen/mapaccess.go:32)	MOVB	$0, ""..autotmp_2+39(SP)
	0x00c4 00196 (/usr/local/go/test/codegen/mapaccess.go:32)	LEAQ	type.map[int8]int8(SB), AX
	0x00cb 00203 (/usr/local/go/test/codegen/mapaccess.go:32)	MOVQ	AX, (SP)
	0x00cf 00207 (/usr/local/go/test/codegen/mapaccess.go:32)	LEAQ	""..autotmp_3+72(SP), CX
	0x00d4 00212 (/usr/local/go/test/codegen/mapaccess.go:32)	MOVQ	CX, 8(SP)
	0x00d9 00217 (/usr/local/go/test/codegen/mapaccess.go:32)	LEAQ	""..autotmp_2+39(SP), DX
	0x00de 00222 (/usr/local/go/test/codegen/mapaccess.go:32)	MOVQ	DX, 16(SP)
	0x00e3 00227 (/usr/local/go/test/codegen/mapaccess.go:32)	CALL	runtime.mapassign(SB)
	0x00e8 00232 (/usr/local/go/test/codegen/mapaccess.go:32)	MOVQ	24(SP), AX
	0x00ed 00237 (/usr/local/go/test/codegen/mapaccess.go:32)	MOVBLZX	(AX), CX
	0x00f0 00240 (/usr/local/go/test/codegen/mapaccess.go:32)	LEAL	(CX)(CX*4), CX
	0x00f3 00243 (/usr/local/go/test/codegen/mapaccess.go:32)	LEAL	(CX)(CX*8), CX
	0x00f6 00246 (/usr/local/go/test/codegen/mapaccess.go:32)	MOVB	CL, (AX)
	0x00f8 00248 (/usr/local/go/test/codegen/mapaccess.go:38)	MOVB	$0, ""..autotmp_2+39(SP)
	0x00fd 00253 (/usr/local/go/test/codegen/mapaccess.go:38)	LEAQ	type.map[int8]int8(SB), AX
	0x0104 00260 (/usr/local/go/test/codegen/mapaccess.go:38)	MOVQ	AX, (SP)
	0x0108 00264 (/usr/local/go/test/codegen/mapaccess.go:38)	LEAQ	""..autotmp_3+72(SP), CX
	0x010d 00269 (/usr/local/go/test/codegen/mapaccess.go:38)	MOVQ	CX, 8(SP)
	0x0112 00274 (/usr/local/go/test/codegen/mapaccess.go:38)	LEAQ	""..autotmp_2+39(SP), DX
	0x0117 00279 (/usr/local/go/test/codegen/mapaccess.go:38)	MOVQ	DX, 16(SP)
	0x011c 00284 (/usr/local/go/test/codegen/mapaccess.go:38)	NOP
	0x0120 00288 (/usr/local/go/test/codegen/mapaccess.go:38)	CALL	runtime.mapassign(SB)
	0x0125 00293 (/usr/local/go/test/codegen/mapaccess.go:38)	MOVQ	24(SP), AX
	0x012a 00298 (/usr/local/go/test/codegen/mapaccess.go:38)	MOVBLZX	(AX), CX
	0x012d 00301 (/usr/local/go/test/codegen/mapaccess.go:38)	ORL	$78, CX
	0x0130 00304 (/usr/local/go/test/codegen/mapaccess.go:38)	MOVB	CL, (AX)
	0x0132 00306 (/usr/local/go/test/codegen/mapaccess.go:44)	MOVB	$0, ""..autotmp_2+39(SP)
	0x0137 00311 (/usr/local/go/test/codegen/mapaccess.go:44)	LEAQ	type.map[int8]int8(SB), AX
	0x013e 00318 (/usr/local/go/test/codegen/mapaccess.go:44)	MOVQ	AX, (SP)
	0x0142 00322 (/usr/local/go/test/codegen/mapaccess.go:44)	LEAQ	""..autotmp_3+72(SP), CX
	0x0147 00327 (/usr/local/go/test/codegen/mapaccess.go:44)	MOVQ	CX, 8(SP)
	0x014c 00332 (/usr/local/go/test/codegen/mapaccess.go:44)	LEAQ	""..autotmp_2+39(SP), DX
	0x0151 00337 (/usr/local/go/test/codegen/mapaccess.go:44)	MOVQ	DX, 16(SP)
	0x0156 00342 (/usr/local/go/test/codegen/mapaccess.go:44)	CALL	runtime.mapassign(SB)
	0x015b 00347 (/usr/local/go/test/codegen/mapaccess.go:44)	MOVQ	24(SP), AX
	0x0160 00352 (/usr/local/go/test/codegen/mapaccess.go:44)	MOVBLZX	(AX), CX
	0x0163 00355 (/usr/local/go/test/codegen/mapaccess.go:44)	XORL	$89, CX
	0x0166 00358 (/usr/local/go/test/codegen/mapaccess.go:44)	MOVB	CL, (AX)
	0x0168 00360 (/usr/local/go/test/codegen/mapaccess.go:50)	MOVB	$0, ""..autotmp_2+39(SP)
	0x016d 00365 (/usr/local/go/test/codegen/mapaccess.go:50)	LEAQ	type.map[int8]int8(SB), AX
	0x0174 00372 (/usr/local/go/test/codegen/mapaccess.go:50)	MOVQ	AX, (SP)
	0x0178 00376 (/usr/local/go/test/codegen/mapaccess.go:50)	LEAQ	""..autotmp_3+72(SP), CX
	0x017d 00381 (/usr/local/go/test/codegen/mapaccess.go:50)	MOVQ	CX, 8(SP)
	0x0182 00386 (/usr/local/go/test/codegen/mapaccess.go:50)	LEAQ	""..autotmp_2+39(SP), DX
	0x0187 00391 (/usr/local/go/test/codegen/mapaccess.go:50)	MOVQ	DX, 16(SP)
	0x018c 00396 (/usr/local/go/test/codegen/mapaccess.go:50)	CALL	runtime.mapassign(SB)
	0x0191 00401 (/usr/local/go/test/codegen/mapaccess.go:50)	MOVQ	24(SP), AX
	0x0196 00406 (/usr/local/go/test/codegen/mapaccess.go:50)	MOVB	$0, (AX)
	0x0199 00409 (/usr/local/go/test/codegen/mapaccess.go:56)	MOVB	$0, ""..autotmp_2+39(SP)
	0x019e 00414 (/usr/local/go/test/codegen/mapaccess.go:56)	LEAQ	type.map[int8]int8(SB), AX
	0x01a5 00421 (/usr/local/go/test/codegen/mapaccess.go:56)	MOVQ	AX, (SP)
	0x01a9 00425 (/usr/local/go/test/codegen/mapaccess.go:56)	LEAQ	""..autotmp_3+72(SP), CX
	0x01ae 00430 (/usr/local/go/test/codegen/mapaccess.go:56)	MOVQ	CX, 8(SP)
	0x01b3 00435 (/usr/local/go/test/codegen/mapaccess.go:56)	LEAQ	""..autotmp_2+39(SP), DX
	0x01b8 00440 (/usr/local/go/test/codegen/mapaccess.go:56)	MOVQ	DX, 16(SP)
	0x01bd 00445 (/usr/local/go/test/codegen/mapaccess.go:56)	NOP
	0x01c0 00448 (/usr/local/go/test/codegen/mapaccess.go:56)	CALL	runtime.mapassign(SB)
	0x01c5 00453 (/usr/local/go/test/codegen/mapaccess.go:56)	MOVQ	24(SP), AX
	0x01ca 00458 (/usr/local/go/test/codegen/mapaccess.go:56)	MOVBLZX	(AX), CX
	0x01cd 00461 (/usr/local/go/test/codegen/mapaccess.go:56)	SARB	$7, CL
	0x01d0 00464 (/usr/local/go/test/codegen/mapaccess.go:56)	MOVB	CL, (AX)
	0x01d2 00466 (/usr/local/go/test/codegen/mapaccess.go:62)	MOVB	$0, ""..autotmp_2+39(SP)
	0x01d7 00471 (/usr/local/go/test/codegen/mapaccess.go:62)	LEAQ	type.map[int8]int8(SB), AX
	0x01de 00478 (/usr/local/go/test/codegen/mapaccess.go:62)	MOVQ	AX, (SP)
	0x01e2 00482 (/usr/local/go/test/codegen/mapaccess.go:62)	LEAQ	""..autotmp_3+72(SP), CX
	0x01e7 00487 (/usr/local/go/test/codegen/mapaccess.go:62)	MOVQ	CX, 8(SP)
	0x01ec 00492 (/usr/local/go/test/codegen/mapaccess.go:62)	LEAQ	""..autotmp_2+39(SP), DX
	0x01f1 00497 (/usr/local/go/test/codegen/mapaccess.go:62)	MOVQ	DX, 16(SP)
	0x01f6 00502 (/usr/local/go/test/codegen/mapaccess.go:62)	CALL	runtime.mapassign(SB)
	0x01fb 00507 (/usr/local/go/test/codegen/mapaccess.go:62)	MOVQ	24(SP), AX
	0x0200 00512 (/usr/local/go/test/codegen/mapaccess.go:62)	MOVBLZX	(AX), CX
	0x0203 00515 (/usr/local/go/test/codegen/mapaccess.go:62)	INCL	CX
	0x0205 00517 (/usr/local/go/test/codegen/mapaccess.go:62)	MOVB	CL, (AX)
	0x0207 00519 (/usr/local/go/test/codegen/mapaccess.go:68)	MOVB	$0, ""..autotmp_2+39(SP)
	0x020c 00524 (/usr/local/go/test/codegen/mapaccess.go:68)	LEAQ	type.map[int8]int8(SB), AX
	0x0213 00531 (/usr/local/go/test/codegen/mapaccess.go:68)	MOVQ	AX, (SP)
	0x0217 00535 (/usr/local/go/test/codegen/mapaccess.go:68)	LEAQ	""..autotmp_3+72(SP), AX
	0x021c 00540 (/usr/local/go/test/codegen/mapaccess.go:68)	MOVQ	AX, 8(SP)
	0x0221 00545 (/usr/local/go/test/codegen/mapaccess.go:68)	LEAQ	""..autotmp_2+39(SP), AX
	0x0226 00550 (/usr/local/go/test/codegen/mapaccess.go:68)	MOVQ	AX, 16(SP)
	0x022b 00555 (/usr/local/go/test/codegen/mapaccess.go:68)	PCDATA	$1, $0
	0x022b 00555 (/usr/local/go/test/codegen/mapaccess.go:68)	CALL	runtime.mapassign(SB)
	0x0230 00560 (/usr/local/go/test/codegen/mapaccess.go:68)	MOVQ	24(SP), AX
	0x0235 00565 (/usr/local/go/test/codegen/mapaccess.go:68)	MOVBLZX	(AX), CX
	0x0238 00568 (/usr/local/go/test/codegen/mapaccess.go:68)	DECL	CX
	0x023a 00570 (/usr/local/go/test/codegen/mapaccess.go:68)	MOVB	CL, (AX)
	0x023c 00572 (/usr/local/go/test/codegen/mapaccess.go:69)	MOVQ	120(SP), BP
	0x0241 00577 (/usr/local/go/test/codegen/mapaccess.go:69)	SUBQ	$-128, SP
	0x0245 00581 (/usr/local/go/test/codegen/mapaccess.go:69)	RET
	0x0246 00582 (/usr/local/go/test/codegen/mapaccess.go:69)	NOP
	0x0246 00582 (/usr/local/go/test/codegen/mapaccess.go:12)	PCDATA	$1, $-1
	0x0246 00582 (/usr/local/go/test/codegen/mapaccess.go:12)	PCDATA	$0, $-2
	0x0246 00582 (/usr/local/go/test/codegen/mapaccess.go:12)	CALL	runtime.morestack_noctxt(SB)
	0x024b 00587 (/usr/local/go/test/codegen/mapaccess.go:12)	PCDATA	$0, $-1
	0x024b 00587 (/usr/local/go/test/codegen/mapaccess.go:12)	JMP	0
	0x0000 64 48 8b 0c 25 00 00 00 00 48 3b 61 10 0f 86 33  dH..%....H;a...3
	0x0010 02 00 00 48 83 c4 80 48 89 6c 24 78 48 8d 6c 24  ...H...H.l$xH.l$
	0x0020 78 0f 57 c0 0f 11 44 24 48 0f 11 44 24 58 0f 11  x.W...D$H..D$X..
	0x0030 44 24 68 0f 11 44 24 28 0f 11 44 24 38 48 8d 44  D$h..D$(..D$8H.D
	0x0040 24 28 48 89 44 24 58 e8 00 00 00 00 8b 04 24 89  $(H.D$X.......$.
	0x0050 44 24 54 c6 44 24 27 00 48 8d 05 00 00 00 00 48  D$T.D$'.H......H
	0x0060 89 04 24 48 8d 4c 24 48 48 89 4c 24 08 48 8d 54  ..$H.L$HH.L$.H.T
	0x0070 24 27 48 89 54 24 10 e8 00 00 00 00 48 8b 44 24  $'H.T$......H.D$
	0x0080 18 0f b6 08 83 c1 43 88 08 c6 44 24 27 00 48 8d  ......C...D$'.H.
	0x0090 05 00 00 00 00 48 89 04 24 48 8d 4c 24 48 48 89  .....H..$H.L$HH.
	0x00a0 4c 24 08 48 8d 54 24 27 48 89 54 24 10 e8 00 00  L$.H.T$'H.T$....
	0x00b0 00 00 48 8b 44 24 18 0f b6 08 83 c1 85 88 08 c6  ..H.D$..........
	0x00c0 44 24 27 00 48 8d 05 00 00 00 00 48 89 04 24 48  D$'.H......H..$H
	0x00d0 8d 4c 24 48 48 89 4c 24 08 48 8d 54 24 27 48 89  .L$HH.L$.H.T$'H.
	0x00e0 54 24 10 e8 00 00 00 00 48 8b 44 24 18 0f b6 08  T$......H.D$....
	0x00f0 8d 0c 89 8d 0c c9 88 08 c6 44 24 27 00 48 8d 05  .........D$'.H..
	0x0100 00 00 00 00 48 89 04 24 48 8d 4c 24 48 48 89 4c  ....H..$H.L$HH.L
	0x0110 24 08 48 8d 54 24 27 48 89 54 24 10 0f 1f 40 00  $.H.T$'H.T$...@.
	0x0120 e8 00 00 00 00 48 8b 44 24 18 0f b6 08 83 c9 4e  .....H.D$......N
	0x0130 88 08 c6 44 24 27 00 48 8d 05 00 00 00 00 48 89  ...D$'.H......H.
	0x0140 04 24 48 8d 4c 24 48 48 89 4c 24 08 48 8d 54 24  .$H.L$HH.L$.H.T$
	0x0150 27 48 89 54 24 10 e8 00 00 00 00 48 8b 44 24 18  'H.T$......H.D$.
	0x0160 0f b6 08 83 f1 59 88 08 c6 44 24 27 00 48 8d 05  .....Y...D$'.H..
	0x0170 00 00 00 00 48 89 04 24 48 8d 4c 24 48 48 89 4c  ....H..$H.L$HH.L
	0x0180 24 08 48 8d 54 24 27 48 89 54 24 10 e8 00 00 00  $.H.T$'H.T$.....
	0x0190 00 48 8b 44 24 18 c6 00 00 c6 44 24 27 00 48 8d  .H.D$.....D$'.H.
	0x01a0 05 00 00 00 00 48 89 04 24 48 8d 4c 24 48 48 89  .....H..$H.L$HH.
	0x01b0 4c 24 08 48 8d 54 24 27 48 89 54 24 10 0f 1f 00  L$.H.T$'H.T$....
	0x01c0 e8 00 00 00 00 48 8b 44 24 18 0f b6 08 c0 f9 07  .....H.D$.......
	0x01d0 88 08 c6 44 24 27 00 48 8d 05 00 00 00 00 48 89  ...D$'.H......H.
	0x01e0 04 24 48 8d 4c 24 48 48 89 4c 24 08 48 8d 54 24  .$H.L$HH.L$.H.T$
	0x01f0 27 48 89 54 24 10 e8 00 00 00 00 48 8b 44 24 18  'H.T$......H.D$.
	0x0200 0f b6 08 ff c1 88 08 c6 44 24 27 00 48 8d 05 00  ........D$'.H...
	0x0210 00 00 00 48 89 04 24 48 8d 44 24 48 48 89 44 24  ...H..$H.D$HH.D$
	0x0220 08 48 8d 44 24 27 48 89 44 24 10 e8 00 00 00 00  .H.D$'H.D$......
	0x0230 48 8b 44 24 18 0f b6 08 ff c9 88 08 48 8b 6c 24  H.D$........H.l$
	0x0240 78 48 83 ec 80 c3 e8 00 00 00 00 e9 b0 fd ff ff  xH..............
	rel 5+4 t=17 TLS+0
	rel 72+4 t=8 runtime.fastrand+0
	rel 91+4 t=16 type.map[int8]int8+0
	rel 120+4 t=8 runtime.mapassign+0
	rel 145+4 t=16 type.map[int8]int8+0
	rel 174+4 t=8 runtime.mapassign+0
	rel 199+4 t=16 type.map[int8]int8+0
	rel 228+4 t=8 runtime.mapassign+0
	rel 256+4 t=16 type.map[int8]int8+0
	rel 289+4 t=8 runtime.mapassign+0
	rel 314+4 t=16 type.map[int8]int8+0
	rel 343+4 t=8 runtime.mapassign+0
	rel 368+4 t=16 type.map[int8]int8+0
	rel 397+4 t=8 runtime.mapassign+0
	rel 417+4 t=16 type.map[int8]int8+0
	rel 449+4 t=8 runtime.mapassign+0
	rel 474+4 t=16 type.map[int8]int8+0
	rel 503+4 t=8 runtime.mapassign+0
	rel 527+4 t=16 type.map[int8]int8+0
	rel 556+4 t=8 runtime.mapassign+0
	rel 583+4 t=8 runtime.morestack_noctxt+0
"".mapCompoundAssignmentInt32 STEXT size=565 args=0x0 locals=0xa8
	0x0000 00000 (/usr/local/go/test/codegen/mapaccess.go:71)	TEXT	"".mapCompoundAssignmentInt32(SB), ABIInternal, $168-0
	0x0000 00000 (/usr/local/go/test/codegen/mapaccess.go:71)	MOVQ	(TLS), CX
	0x0009 00009 (/usr/local/go/test/codegen/mapaccess.go:71)	LEAQ	-40(SP), AX
	0x000e 00014 (/usr/local/go/test/codegen/mapaccess.go:71)	CMPQ	AX, 16(CX)
	0x0012 00018 (/usr/local/go/test/codegen/mapaccess.go:71)	PCDATA	$0, $-2
	0x0012 00018 (/usr/local/go/test/codegen/mapaccess.go:71)	JLS	555
	0x0018 00024 (/usr/local/go/test/codegen/mapaccess.go:71)	PCDATA	$0, $-1
	0x0018 00024 (/usr/local/go/test/codegen/mapaccess.go:71)	SUBQ	$168, SP
	0x001f 00031 (/usr/local/go/test/codegen/mapaccess.go:71)	MOVQ	BP, 160(SP)
	0x0027 00039 (/usr/local/go/test/codegen/mapaccess.go:71)	LEAQ	160(SP), BP
	0x002f 00047 (/usr/local/go/test/codegen/mapaccess.go:71)	FUNCDATA	$0, gclocals·69c1753bd5f81501d95132d08af04464(SB)
	0x002f 00047 (/usr/local/go/test/codegen/mapaccess.go:71)	FUNCDATA	$1, gclocals·d9a525d1de6bc16975a5efbb873db17d(SB)
	0x002f 00047 (/usr/local/go/test/codegen/mapaccess.go:71)	FUNCDATA	$3, "".mapCompoundAssignmentInt32.stkobj(SB)
	0x002f 00047 (/usr/local/go/test/codegen/mapaccess.go:72)	XORPS	X0, X0
	0x0032 00050 (/usr/local/go/test/codegen/mapaccess.go:72)	MOVUPS	X0, ""..autotmp_2+112(SP)
	0x0037 00055 (/usr/local/go/test/codegen/mapaccess.go:72)	MOVUPS	X0, ""..autotmp_2+128(SP)
	0x003f 00063 (/usr/local/go/test/codegen/mapaccess.go:72)	MOVUPS	X0, ""..autotmp_2+144(SP)
	0x0047 00071 (/usr/local/go/test/codegen/mapaccess.go:72)	LEAQ	""..autotmp_3+32(SP), DI
	0x004c 00076 (/usr/local/go/test/codegen/mapaccess.go:72)	LEAQ	-48(DI), DI
	0x0050 00080 (/usr/local/go/test/codegen/mapaccess.go:72)	NOP
	0x0060 00096 (/usr/local/go/test/codegen/mapaccess.go:72)	DUFFZERO	$277
	0x0073 00115 (/usr/local/go/test/codegen/mapaccess.go:72)	LEAQ	""..autotmp_3+32(SP), AX
	0x0078 00120 (/usr/local/go/test/codegen/mapaccess.go:72)	MOVQ	AX, ""..autotmp_2+128(SP)
	0x0080 00128 (/usr/local/go/test/codegen/mapaccess.go:72)	PCDATA	$1, $1
	0x0080 00128 (/usr/local/go/test/codegen/mapaccess.go:72)	CALL	runtime.fastrand(SB)
	0x0085 00133 (/usr/local/go/test/codegen/mapaccess.go:72)	MOVL	(SP), AX
	0x0088 00136 (/usr/local/go/test/codegen/mapaccess.go:72)	MOVL	AX, ""..autotmp_2+124(SP)
	0x008c 00140 (/usr/local/go/test/codegen/mapaccess.go:79)	LEAQ	type.map[int32]int32(SB), AX
	0x0093 00147 (/usr/local/go/test/codegen/mapaccess.go:79)	MOVQ	AX, (SP)
	0x0097 00151 (/usr/local/go/test/codegen/mapaccess.go:79)	LEAQ	""..autotmp_2+112(SP), CX
	0x009c 00156 (/usr/local/go/test/codegen/mapaccess.go:79)	MOVQ	CX, 8(SP)
	0x00a1 00161 (/usr/local/go/test/codegen/mapaccess.go:79)	MOVL	$0, 16(SP)
	0x00a9 00169 (/usr/local/go/test/codegen/mapaccess.go:79)	CALL	runtime.mapassign_fast32(SB)
	0x00ae 00174 (/usr/local/go/test/codegen/mapaccess.go:79)	MOVQ	24(SP), AX
	0x00b3 00179 (/usr/local/go/test/codegen/mapaccess.go:79)	ADDL	$67890, (AX)
	0x00b9 00185 (/usr/local/go/test/codegen/mapaccess.go:85)	LEAQ	type.map[int32]int32(SB), AX
	0x00c0 00192 (/usr/local/go/test/codegen/mapaccess.go:85)	MOVQ	AX, (SP)
	0x00c4 00196 (/usr/local/go/test/codegen/mapaccess.go:85)	LEAQ	""..autotmp_2+112(SP), CX
	0x00c9 00201 (/usr/local/go/test/codegen/mapaccess.go:85)	MOVQ	CX, 8(SP)
	0x00ce 00206 (/usr/local/go/test/codegen/mapaccess.go:85)	MOVL	$0, 16(SP)
	0x00d6 00214 (/usr/local/go/test/codegen/mapaccess.go:85)	CALL	runtime.mapassign_fast32(SB)
	0x00db 00219 (/usr/local/go/test/codegen/mapaccess.go:85)	MOVQ	24(SP), AX
	0x00e0 00224 (/usr/local/go/test/codegen/mapaccess.go:85)	ADDL	$-123, (AX)
	0x00e3 00227 (/usr/local/go/test/codegen/mapaccess.go:91)	LEAQ	type.map[int32]int32(SB), AX
	0x00ea 00234 (/usr/local/go/test/codegen/mapaccess.go:91)	MOVQ	AX, (SP)
	0x00ee 00238 (/usr/local/go/test/codegen/mapaccess.go:91)	LEAQ	""..autotmp_2+112(SP), CX
	0x00f3 00243 (/usr/local/go/test/codegen/mapaccess.go:91)	MOVQ	CX, 8(SP)
	0x00f8 00248 (/usr/local/go/test/codegen/mapaccess.go:91)	MOVL	$0, 16(SP)
	0x0100 00256 (/usr/local/go/test/codegen/mapaccess.go:91)	CALL	runtime.mapassign_fast32(SB)
	0x0105 00261 (/usr/local/go/test/codegen/mapaccess.go:91)	MOVQ	24(SP), AX
	0x010a 00266 (/usr/local/go/test/codegen/mapaccess.go:91)	MOVL	(AX), CX
	0x010c 00268 (/usr/local/go/test/codegen/mapaccess.go:91)	IMUL3L	$456, CX, CX
	0x0112 00274 (/usr/local/go/test/codegen/mapaccess.go:91)	MOVL	CX, (AX)
	0x0114 00276 (/usr/local/go/test/codegen/mapaccess.go:97)	LEAQ	type.map[int32]int32(SB), AX
	0x011b 00283 (/usr/local/go/test/codegen/mapaccess.go:97)	MOVQ	AX, (SP)
	0x011f 00287 (/usr/local/go/test/codegen/mapaccess.go:97)	LEAQ	""..autotmp_2+112(SP), CX
	0x0124 00292 (/usr/local/go/test/codegen/mapaccess.go:97)	MOVQ	CX, 8(SP)
	0x0129 00297 (/usr/local/go/test/codegen/mapaccess.go:97)	MOVL	$0, 16(SP)
	0x0131 00305 (/usr/local/go/test/codegen/mapaccess.go:97)	CALL	runtime.mapassign_fast32(SB)
	0x0136 00310 (/usr/local/go/test/codegen/mapaccess.go:97)	MOVQ	24(SP), AX
	0x013b 00315 (/usr/local/go/test/codegen/mapaccess.go:97)	ORL	$78, (AX)
	0x013e 00318 (/usr/local/go/test/codegen/mapaccess.go:103)	LEAQ	type.map[int32]int32(SB), AX
	0x0145 00325 (/usr/local/go/test/codegen/mapaccess.go:103)	MOVQ	AX, (SP)
	0x0149 00329 (/usr/local/go/test/codegen/mapaccess.go:103)	LEAQ	""..autotmp_2+112(SP), CX
	0x014e 00334 (/usr/local/go/test/codegen/mapaccess.go:103)	MOVQ	CX, 8(SP)
	0x0153 00339 (/usr/local/go/test/codegen/mapaccess.go:103)	MOVL	$0, 16(SP)
	0x015b 00347 (/usr/local/go/test/codegen/mapaccess.go:103)	NOP
	0x0160 00352 (/usr/local/go/test/codegen/mapaccess.go:103)	CALL	runtime.mapassign_fast32(SB)
	0x0165 00357 (/usr/local/go/test/codegen/mapaccess.go:103)	MOVQ	24(SP), AX
	0x016a 00362 (/usr/local/go/test/codegen/mapaccess.go:103)	XORL	$89, (AX)
	0x016d 00365 (/usr/local/go/test/codegen/mapaccess.go:109)	LEAQ	type.map[int32]int32(SB), AX
	0x0174 00372 (/usr/local/go/test/codegen/mapaccess.go:109)	MOVQ	AX, (SP)
	0x0178 00376 (/usr/local/go/test/codegen/mapaccess.go:109)	LEAQ	""..autotmp_2+112(SP), CX
	0x017d 00381 (/usr/local/go/test/codegen/mapaccess.go:109)	MOVQ	CX, 8(SP)
	0x0182 00386 (/usr/local/go/test/codegen/mapaccess.go:109)	MOVL	$0, 16(SP)
	0x018a 00394 (/usr/local/go/test/codegen/mapaccess.go:109)	CALL	runtime.mapassign_fast32(SB)
	0x018f 00399 (/usr/local/go/test/codegen/mapaccess.go:109)	MOVQ	24(SP), AX
	0x0194 00404 (/usr/local/go/test/codegen/mapaccess.go:109)	MOVL	(AX), CX
	0x0196 00406 (/usr/local/go/test/codegen/mapaccess.go:109)	SHLL	$9, CX
	0x0199 00409 (/usr/local/go/test/codegen/mapaccess.go:109)	MOVL	CX, (AX)
	0x019b 00411 (/usr/local/go/test/codegen/mapaccess.go:115)	LEAQ	type.map[int32]int32(SB), AX
	0x01a2 00418 (/usr/local/go/test/codegen/mapaccess.go:115)	MOVQ	AX, (SP)
	0x01a6 00422 (/usr/local/go/test/codegen/mapaccess.go:115)	LEAQ	""..autotmp_2+112(SP), CX
	0x01ab 00427 (/usr/local/go/test/codegen/mapaccess.go:115)	MOVQ	CX, 8(SP)
	0x01b0 00432 (/usr/local/go/test/codegen/mapaccess.go:115)	MOVL	$0, 16(SP)
	0x01b8 00440 (/usr/local/go/test/codegen/mapaccess.go:115)	CALL	runtime.mapassign_fast32(SB)
	0x01bd 00445 (/usr/local/go/test/codegen/mapaccess.go:115)	MOVQ	24(SP), AX
	0x01c2 00450 (/usr/local/go/test/codegen/mapaccess.go:115)	MOVL	(AX), CX
	0x01c4 00452 (/usr/local/go/test/codegen/mapaccess.go:115)	SARL	$10, CX
	0x01c7 00455 (/usr/local/go/test/codegen/mapaccess.go:115)	MOVL	CX, (AX)
	0x01c9 00457 (/usr/local/go/test/codegen/mapaccess.go:121)	LEAQ	type.map[int32]int32(SB), AX
	0x01d0 00464 (/usr/local/go/test/codegen/mapaccess.go:121)	MOVQ	AX, (SP)
	0x01d4 00468 (/usr/local/go/test/codegen/mapaccess.go:121)	LEAQ	""..autotmp_2+112(SP), CX
	0x01d9 00473 (/usr/local/go/test/codegen/mapaccess.go:121)	MOVQ	CX, 8(SP)
	0x01de 00478 (/usr/local/go/test/codegen/mapaccess.go:121)	MOVL	$0, 16(SP)
	0x01e6 00486 (/usr/local/go/test/codegen/mapaccess.go:121)	CALL	runtime.mapassign_fast32(SB)
	0x01eb 00491 (/usr/local/go/test/codegen/mapaccess.go:121)	MOVQ	24(SP), AX
	0x01f0 00496 (/usr/local/go/test/codegen/mapaccess.go:121)	INCL	(AX)
	0x01f2 00498 (/usr/local/go/test/codegen/mapaccess.go:127)	LEAQ	type.map[int32]int32(SB), AX
	0x01f9 00505 (/usr/local/go/test/codegen/mapaccess.go:127)	MOVQ	AX, (SP)
	0x01fd 00509 (/usr/local/go/test/codegen/mapaccess.go:127)	LEAQ	""..autotmp_2+112(SP), AX
	0x0202 00514 (/usr/local/go/test/codegen/mapaccess.go:127)	MOVQ	AX, 8(SP)
	0x0207 00519 (/usr/local/go/test/codegen/mapaccess.go:127)	MOVL	$0, 16(SP)
	0x020f 00527 (/usr/local/go/test/codegen/mapaccess.go:127)	PCDATA	$1, $0
	0x020f 00527 (/usr/local/go/test/codegen/mapaccess.go:127)	CALL	runtime.mapassign_fast32(SB)
	0x0214 00532 (/usr/local/go/test/codegen/mapaccess.go:127)	MOVQ	24(SP), AX
	0x0219 00537 (/usr/local/go/test/codegen/mapaccess.go:127)	DECL	(AX)
	0x021b 00539 (/usr/local/go/test/codegen/mapaccess.go:128)	MOVQ	160(SP), BP
	0x0223 00547 (/usr/local/go/test/codegen/mapaccess.go:128)	ADDQ	$168, SP
	0x022a 00554 (/usr/local/go/test/codegen/mapaccess.go:128)	RET
	0x022b 00555 (/usr/local/go/test/codegen/mapaccess.go:128)	NOP
	0x022b 00555 (/usr/local/go/test/codegen/mapaccess.go:71)	PCDATA	$1, $-1
	0x022b 00555 (/usr/local/go/test/codegen/mapaccess.go:71)	PCDATA	$0, $-2
	0x022b 00555 (/usr/local/go/test/codegen/mapaccess.go:71)	CALL	runtime.morestack_noctxt(SB)
	0x0230 00560 (/usr/local/go/test/codegen/mapaccess.go:71)	PCDATA	$0, $-1
	0x0230 00560 (/usr/local/go/test/codegen/mapaccess.go:71)	JMP	0
	0x0000 64 48 8b 0c 25 00 00 00 00 48 8d 44 24 d8 48 3b  dH..%....H.D$.H;
	0x0010 41 10 0f 86 13 02 00 00 48 81 ec a8 00 00 00 48  A.......H......H
	0x0020 89 ac 24 a0 00 00 00 48 8d ac 24 a0 00 00 00 0f  ..$....H..$.....
	0x0030 57 c0 0f 11 44 24 70 0f 11 84 24 80 00 00 00 0f  W...D$p...$.....
	0x0040 11 84 24 90 00 00 00 48 8d 7c 24 20 48 8d 7f d0  ..$....H.|$ H...
	0x0050 66 0f 1f 84 00 00 00 00 00 0f 1f 80 00 00 00 00  f...............
	0x0060 48 89 6c 24 f0 48 8d 6c 24 f0 e8 00 00 00 00 48  H.l$.H.l$......H
	0x0070 8b 6d 00 48 8d 44 24 20 48 89 84 24 80 00 00 00  .m.H.D$ H..$....
	0x0080 e8 00 00 00 00 8b 04 24 89 44 24 7c 48 8d 05 00  .......$.D$|H...
	0x0090 00 00 00 48 89 04 24 48 8d 4c 24 70 48 89 4c 24  ...H..$H.L$pH.L$
	0x00a0 08 c7 44 24 10 00 00 00 00 e8 00 00 00 00 48 8b  ..D$..........H.
	0x00b0 44 24 18 81 00 32 09 01 00 48 8d 05 00 00 00 00  D$...2...H......
	0x00c0 48 89 04 24 48 8d 4c 24 70 48 89 4c 24 08 c7 44  H..$H.L$pH.L$..D
	0x00d0 24 10 00 00 00 00 e8 00 00 00 00 48 8b 44 24 18  $..........H.D$.
	0x00e0 83 00 85 48 8d 05 00 00 00 00 48 89 04 24 48 8d  ...H......H..$H.
	0x00f0 4c 24 70 48 89 4c 24 08 c7 44 24 10 00 00 00 00  L$pH.L$..D$.....
	0x0100 e8 00 00 00 00 48 8b 44 24 18 8b 08 69 c9 c8 01  .....H.D$...i...
	0x0110 00 00 89 08 48 8d 05 00 00 00 00 48 89 04 24 48  ....H......H..$H
	0x0120 8d 4c 24 70 48 89 4c 24 08 c7 44 24 10 00 00 00  .L$pH.L$..D$....
	0x0130 00 e8 00 00 00 00 48 8b 44 24 18 83 08 4e 48 8d  ......H.D$...NH.
	0x0140 05 00 00 00 00 48 89 04 24 48 8d 4c 24 70 48 89  .....H..$H.L$pH.
	0x0150 4c 24 08 c7 44 24 10 00 00 00 00 0f 1f 44 00 00  L$..D$.......D..
	0x0160 e8 00 00 00 00 48 8b 44 24 18 83 30 59 48 8d 05  .....H.D$..0YH..
	0x0170 00 00 00 00 48 89 04 24 48 8d 4c 24 70 48 89 4c  ....H..$H.L$pH.L
	0x0180 24 08 c7 44 24 10 00 00 00 00 e8 00 00 00 00 48  $..D$..........H
	0x0190 8b 44 24 18 8b 08 c1 e1 09 89 08 48 8d 05 00 00  .D$........H....
	0x01a0 00 00 48 89 04 24 48 8d 4c 24 70 48 89 4c 24 08  ..H..$H.L$pH.L$.
	0x01b0 c7 44 24 10 00 00 00 00 e8 00 00 00 00 48 8b 44  .D$..........H.D
	0x01c0 24 18 8b 08 c1 f9 0a 89 08 48 8d 05 00 00 00 00  $........H......
	0x01d0 48 89 04 24 48 8d 4c 24 70 48 89 4c 24 08 c7 44  H..$H.L$pH.L$..D
	0x01e0 24 10 00 00 00 00 e8 00 00 00 00 48 8b 44 24 18  $..........H.D$.
	0x01f0 ff 00 48 8d 05 00 00 00 00 48 89 04 24 48 8d 44  ..H......H..$H.D
	0x0200 24 70 48 89 44 24 08 c7 44 24 10 00 00 00 00 e8  $pH.D$..D$......
	0x0210 00 00 00 00 48 8b 44 24 18 ff 08 48 8b ac 24 a0  ....H.D$...H..$.
	0x0220 00 00 00 48 81 c4 a8 00 00 00 c3 e8 00 00 00 00  ...H............
	0x0230 e9 cb fd ff ff                                   .....
	rel 5+4 t=17 TLS+0
	rel 107+4 t=8 runtime.duffzero+277
	rel 129+4 t=8 runtime.fastrand+0
	rel 143+4 t=16 type.map[int32]int32+0
	rel 170+4 t=8 runtime.mapassign_fast32+0
	rel 188+4 t=16 type.map[int32]int32+0
	rel 215+4 t=8 runtime.mapassign_fast32+0
	rel 230+4 t=16 type.map[int32]int32+0
	rel 257+4 t=8 runtime.mapassign_fast32+0
	rel 279+4 t=16 type.map[int32]int32+0
	rel 306+4 t=8 runtime.mapassign_fast32+0
	rel 321+4 t=16 type.map[int32]int32+0
	rel 353+4 t=8 runtime.mapassign_fast32+0
	rel 368+4 t=16 type.map[int32]int32+0
	rel 395+4 t=8 runtime.mapassign_fast32+0
	rel 414+4 t=16 type.map[int32]int32+0
	rel 441+4 t=8 runtime.mapassign_fast32+0
	rel 460+4 t=16 type.map[int32]int32+0
	rel 487+4 t=8 runtime.mapassign_fast32+0
	rel 501+4 t=16 type.map[int32]int32+0
	rel 528+4 t=8 runtime.mapassign_fast32+0
	rel 556+4 t=8 runtime.morestack_noctxt+0
"".mapCompoundAssignmentInt64 STEXT size=619 args=0x0 locals=0xe8
	0x0000 00000 (/usr/local/go/test/codegen/mapaccess.go:130)	TEXT	"".mapCompoundAssignmentInt64(SB), ABIInternal, $232-0
	0x0000 00000 (/usr/local/go/test/codegen/mapaccess.go:130)	MOVQ	(TLS), CX
	0x0009 00009 (/usr/local/go/test/codegen/mapaccess.go:130)	LEAQ	-104(SP), AX
	0x000e 00014 (/usr/local/go/test/codegen/mapaccess.go:130)	CMPQ	AX, 16(CX)
	0x0012 00018 (/usr/local/go/test/codegen/mapaccess.go:130)	PCDATA	$0, $-2
	0x0012 00018 (/usr/local/go/test/codegen/mapaccess.go:130)	JLS	609
	0x0018 00024 (/usr/local/go/test/codegen/mapaccess.go:130)	PCDATA	$0, $-1
	0x0018 00024 (/usr/local/go/test/codegen/mapaccess.go:130)	SUBQ	$232, SP
	0x001f 00031 (/usr/local/go/test/codegen/mapaccess.go:130)	MOVQ	BP, 224(SP)
	0x0027 00039 (/usr/local/go/test/codegen/mapaccess.go:130)	LEAQ	224(SP), BP
	0x002f 00047 (/usr/local/go/test/codegen/mapaccess.go:130)	FUNCDATA	$0, gclocals·69c1753bd5f81501d95132d08af04464(SB)
	0x002f 00047 (/usr/local/go/test/codegen/mapaccess.go:130)	FUNCDATA	$1, gclocals·d9a525d1de6bc16975a5efbb873db17d(SB)
	0x002f 00047 (/usr/local/go/test/codegen/mapaccess.go:130)	FUNCDATA	$3, "".mapCompoundAssignmentInt64.stkobj(SB)
	0x002f 00047 (/usr/local/go/test/codegen/mapaccess.go:131)	XORPS	X0, X0
	0x0032 00050 (/usr/local/go/test/codegen/mapaccess.go:131)	MOVUPS	X0, ""..autotmp_2+176(SP)
	0x003a 00058 (/usr/local/go/test/codegen/mapaccess.go:131)	MOVUPS	X0, ""..autotmp_2+192(SP)
	0x0042 00066 (/usr/local/go/test/codegen/mapaccess.go:131)	MOVUPS	X0, ""..autotmp_2+208(SP)
	0x004a 00074 (/usr/local/go/test/codegen/mapaccess.go:131)	LEAQ	""..autotmp_3+32(SP), DI
	0x004f 00079 (/usr/local/go/test/codegen/mapaccess.go:131)	LEAQ	-48(DI), DI
	0x0053 00083 (/usr/local/go/test/codegen/mapaccess.go:131)	NOP
	0x0060 00096 (/usr/local/go/test/codegen/mapaccess.go:131)	DUFFZERO	$258
	0x0073 00115 (/usr/local/go/test/codegen/mapaccess.go:131)	LEAQ	""..autotmp_3+32(SP), AX
	0x0078 00120 (/usr/local/go/test/codegen/mapaccess.go:131)	MOVQ	AX, ""..autotmp_2+192(SP)
	0x0080 00128 (/usr/local/go/test/codegen/mapaccess.go:131)	PCDATA	$1, $1
	0x0080 00128 (/usr/local/go/test/codegen/mapaccess.go:131)	CALL	runtime.fastrand(SB)
	0x0085 00133 (/usr/local/go/test/codegen/mapaccess.go:131)	MOVL	(SP), AX
	0x0088 00136 (/usr/local/go/test/codegen/mapaccess.go:131)	MOVL	AX, ""..autotmp_2+188(SP)
	0x008f 00143 (/usr/local/go/test/codegen/mapaccess.go:138)	LEAQ	type.map[int64]int64(SB), AX
	0x0096 00150 (/usr/local/go/test/codegen/mapaccess.go:138)	MOVQ	AX, (SP)
	0x009a 00154 (/usr/local/go/test/codegen/mapaccess.go:138)	LEAQ	""..autotmp_2+176(SP), CX
	0x00a2 00162 (/usr/local/go/test/codegen/mapaccess.go:138)	MOVQ	CX, 8(SP)
	0x00a7 00167 (/usr/local/go/test/codegen/mapaccess.go:138)	MOVQ	$0, 16(SP)
	0x00b0 00176 (/usr/local/go/test/codegen/mapaccess.go:138)	CALL	runtime.mapassign_fast64(SB)
	0x00b5 00181 (/usr/local/go/test/codegen/mapaccess.go:138)	MOVQ	24(SP), AX
	0x00ba 00186 (/usr/local/go/test/codegen/mapaccess.go:138)	ADDQ	$67890, (AX)
	0x00c1 00193 (/usr/local/go/test/codegen/mapaccess.go:144)	LEAQ	type.map[int64]int64(SB), AX
	0x00c8 00200 (/usr/local/go/test/codegen/mapaccess.go:144)	MOVQ	AX, (SP)
	0x00cc 00204 (/usr/local/go/test/codegen/mapaccess.go:144)	LEAQ	""..autotmp_2+176(SP), CX
	0x00d4 00212 (/usr/local/go/test/codegen/mapaccess.go:144)	MOVQ	CX, 8(SP)
	0x00d9 00217 (/usr/local/go/test/codegen/mapaccess.go:144)	MOVQ	$0, 16(SP)
	0x00e2 00226 (/usr/local/go/test/codegen/mapaccess.go:144)	CALL	runtime.mapassign_fast64(SB)
	0x00e7 00231 (/usr/local/go/test/codegen/mapaccess.go:144)	MOVQ	24(SP), AX
	0x00ec 00236 (/usr/local/go/test/codegen/mapaccess.go:144)	ADDQ	$-123, (AX)
	0x00f0 00240 (/usr/local/go/test/codegen/mapaccess.go:150)	LEAQ	type.map[int64]int64(SB), AX
	0x00f7 00247 (/usr/local/go/test/codegen/mapaccess.go:150)	MOVQ	AX, (SP)
	0x00fb 00251 (/usr/local/go/test/codegen/mapaccess.go:150)	LEAQ	""..autotmp_2+176(SP), CX
	0x0103 00259 (/usr/local/go/test/codegen/mapaccess.go:150)	MOVQ	CX, 8(SP)
	0x0108 00264 (/usr/local/go/test/codegen/mapaccess.go:150)	MOVQ	$0, 16(SP)
	0x0111 00273 (/usr/local/go/test/codegen/mapaccess.go:150)	CALL	runtime.mapassign_fast64(SB)
	0x0116 00278 (/usr/local/go/test/codegen/mapaccess.go:150)	MOVQ	24(SP), AX
	0x011b 00283 (/usr/local/go/test/codegen/mapaccess.go:150)	MOVQ	(AX), CX
	0x011e 00286 (/usr/local/go/test/codegen/mapaccess.go:150)	IMUL3Q	$456, CX, CX
	0x0125 00293 (/usr/local/go/test/codegen/mapaccess.go:150)	MOVQ	CX, (AX)
	0x0128 00296 (/usr/local/go/test/codegen/mapaccess.go:156)	LEAQ	type.map[int64]int64(SB), AX
	0x012f 00303 (/usr/local/go/test/codegen/mapaccess.go:156)	MOVQ	AX, (SP)
	0x0133 00307 (/usr/local/go/test/codegen/mapaccess.go:156)	LEAQ	""..autotmp_2+176(SP), CX
	0x013b 00315 (/usr/local/go/test/codegen/mapaccess.go:156)	MOVQ	CX, 8(SP)
	0x0140 00320 (/usr/local/go/test/codegen/mapaccess.go:156)	MOVQ	$0, 16(SP)
	0x0149 00329 (/usr/local/go/test/codegen/mapaccess.go:156)	CALL	runtime.mapassign_fast64(SB)
	0x014e 00334 (/usr/local/go/test/codegen/mapaccess.go:156)	MOVQ	24(SP), AX
	0x0153 00339 (/usr/local/go/test/codegen/mapaccess.go:156)	ORQ	$78, (AX)
	0x0157 00343 (/usr/local/go/test/codegen/mapaccess.go:162)	LEAQ	type.map[int64]int64(SB), AX
	0x015e 00350 (/usr/local/go/test/codegen/mapaccess.go:162)	MOVQ	AX, (SP)
	0x0162 00354 (/usr/local/go/test/codegen/mapaccess.go:162)	LEAQ	""..autotmp_2+176(SP), CX
	0x016a 00362 (/usr/local/go/test/codegen/mapaccess.go:162)	MOVQ	CX, 8(SP)
	0x016f 00367 (/usr/local/go/test/codegen/mapaccess.go:162)	MOVQ	$0, 16(SP)
	0x0178 00376 (/usr/local/go/test/codegen/mapaccess.go:162)	CALL	runtime.mapassign_fast64(SB)
	0x017d 00381 (/usr/local/go/test/codegen/mapaccess.go:162)	MOVQ	24(SP), AX
	0x0182 00386 (/usr/local/go/test/codegen/mapaccess.go:162)	XORQ	$89, (AX)
	0x0186 00390 (/usr/local/go/test/codegen/mapaccess.go:168)	LEAQ	type.map[int64]int64(SB), AX
	0x018d 00397 (/usr/local/go/test/codegen/mapaccess.go:168)	MOVQ	AX, (SP)
	0x0191 00401 (/usr/local/go/test/codegen/mapaccess.go:168)	LEAQ	""..autotmp_2+176(SP), CX
	0x0199 00409 (/usr/local/go/test/codegen/mapaccess.go:168)	MOVQ	CX, 8(SP)
	0x019e 00414 (/usr/local/go/test/codegen/mapaccess.go:168)	MOVQ	$0, 16(SP)
	0x01a7 00423 (/usr/local/go/test/codegen/mapaccess.go:168)	CALL	runtime.mapassign_fast64(SB)
	0x01ac 00428 (/usr/local/go/test/codegen/mapaccess.go:168)	MOVQ	24(SP), AX
	0x01b1 00433 (/usr/local/go/test/codegen/mapaccess.go:168)	MOVQ	(AX), CX
	0x01b4 00436 (/usr/local/go/test/codegen/mapaccess.go:168)	SHLQ	$9, CX
	0x01b8 00440 (/usr/local/go/test/codegen/mapaccess.go:168)	MOVQ	CX, (AX)
	0x01bb 00443 (/usr/local/go/test/codegen/mapaccess.go:174)	LEAQ	type.map[int64]int64(SB), AX
	0x01c2 00450 (/usr/local/go/test/codegen/mapaccess.go:174)	MOVQ	AX, (SP)
	0x01c6 00454 (/usr/local/go/test/codegen/mapaccess.go:174)	LEAQ	""..autotmp_2+176(SP), CX
	0x01ce 00462 (/usr/local/go/test/codegen/mapaccess.go:174)	MOVQ	CX, 8(SP)
	0x01d3 00467 (/usr/local/go/test/codegen/mapaccess.go:174)	MOVQ	$0, 16(SP)
	0x01dc 00476 (/usr/local/go/test/codegen/mapaccess.go:174)	NOP
	0x01e0 00480 (/usr/local/go/test/codegen/mapaccess.go:174)	CALL	runtime.mapassign_fast64(SB)
	0x01e5 00485 (/usr/local/go/test/codegen/mapaccess.go:174)	MOVQ	24(SP), AX
	0x01ea 00490 (/usr/local/go/test/codegen/mapaccess.go:174)	MOVQ	(AX), CX
	0x01ed 00493 (/usr/local/go/test/codegen/mapaccess.go:174)	SARQ	$10, CX
	0x01f1 00497 (/usr/local/go/test/codegen/mapaccess.go:174)	MOVQ	CX, (AX)
	0x01f4 00500 (/usr/local/go/test/codegen/mapaccess.go:180)	LEAQ	type.map[int64]int64(SB), AX
	0x01fb 00507 (/usr/local/go/test/codegen/mapaccess.go:180)	MOVQ	AX, (SP)
	0x01ff 00511 (/usr/local/go/test/codegen/mapaccess.go:180)	LEAQ	""..autotmp_2+176(SP), CX
	0x0207 00519 (/usr/local/go/test/codegen/mapaccess.go:180)	MOVQ	CX, 8(SP)
	0x020c 00524 (/usr/local/go/test/codegen/mapaccess.go:180)	MOVQ	$0, 16(SP)
	0x0215 00533 (/usr/local/go/test/codegen/mapaccess.go:180)	CALL	runtime.mapassign_fast64(SB)
	0x021a 00538 (/usr/local/go/test/codegen/mapaccess.go:180)	MOVQ	24(SP), AX
	0x021f 00543 (/usr/local/go/test/codegen/mapaccess.go:180)	INCQ	(AX)
	0x0222 00546 (/usr/local/go/test/codegen/mapaccess.go:186)	LEAQ	type.map[int64]int64(SB), AX
	0x0229 00553 (/usr/local/go/test/codegen/mapaccess.go:186)	MOVQ	AX, (SP)
	0x022d 00557 (/usr/local/go/test/codegen/mapaccess.go:186)	LEAQ	""..autotmp_2+176(SP), AX
	0x0235 00565 (/usr/local/go/test/codegen/mapaccess.go:186)	MOVQ	AX, 8(SP)
	0x023a 00570 (/usr/local/go/test/codegen/mapaccess.go:186)	MOVQ	$0, 16(SP)
	0x0243 00579 (/usr/local/go/test/codegen/mapaccess.go:186)	PCDATA	$1, $0
	0x0243 00579 (/usr/local/go/test/codegen/mapaccess.go:186)	CALL	runtime.mapassign_fast64(SB)
	0x0248 00584 (/usr/local/go/test/codegen/mapaccess.go:186)	MOVQ	24(SP), AX
	0x024d 00589 (/usr/local/go/test/codegen/mapaccess.go:186)	DECQ	(AX)
	0x0250 00592 (/usr/local/go/test/codegen/mapaccess.go:187)	MOVQ	224(SP), BP
	0x0258 00600 (/usr/local/go/test/codegen/mapaccess.go:187)	ADDQ	$232, SP
	0x025f 00607 (/usr/local/go/test/codegen/mapaccess.go:187)	NOP
	0x0260 00608 (/usr/local/go/test/codegen/mapaccess.go:187)	RET
	0x0261 00609 (/usr/local/go/test/codegen/mapaccess.go:187)	NOP
	0x0261 00609 (/usr/local/go/test/codegen/mapaccess.go:130)	PCDATA	$1, $-1
	0x0261 00609 (/usr/local/go/test/codegen/mapaccess.go:130)	PCDATA	$0, $-2
	0x0261 00609 (/usr/local/go/test/codegen/mapaccess.go:130)	CALL	runtime.morestack_noctxt(SB)
	0x0266 00614 (/usr/local/go/test/codegen/mapaccess.go:130)	PCDATA	$0, $-1
	0x0266 00614 (/usr/local/go/test/codegen/mapaccess.go:130)	JMP	0
	0x0000 64 48 8b 0c 25 00 00 00 00 48 8d 44 24 98 48 3b  dH..%....H.D$.H;
	0x0010 41 10 0f 86 49 02 00 00 48 81 ec e8 00 00 00 48  A...I...H......H
	0x0020 89 ac 24 e0 00 00 00 48 8d ac 24 e0 00 00 00 0f  ..$....H..$.....
	0x0030 57 c0 0f 11 84 24 b0 00 00 00 0f 11 84 24 c0 00  W....$.......$..
	0x0040 00 00 0f 11 84 24 d0 00 00 00 48 8d 7c 24 20 48  .....$....H.|$ H
	0x0050 8d 7f d0 66 0f 1f 84 00 00 00 00 00 0f 1f 40 00  ...f..........@.
	0x0060 48 89 6c 24 f0 48 8d 6c 24 f0 e8 00 00 00 00 48  H.l$.H.l$......H
	0x0070 8b 6d 00 48 8d 44 24 20 48 89 84 24 c0 00 00 00  .m.H.D$ H..$....
	0x0080 e8 00 00 00 00 8b 04 24 89 84 24 bc 00 00 00 48  .......$..$....H
	0x0090 8d 05 00 00 00 00 48 89 04 24 48 8d 8c 24 b0 00  ......H..$H..$..
	0x00a0 00 00 48 89 4c 24 08 48 c7 44 24 10 00 00 00 00  ..H.L$.H.D$.....
	0x00b0 e8 00 00 00 00 48 8b 44 24 18 48 81 00 32 09 01  .....H.D$.H..2..
	0x00c0 00 48 8d 05 00 00 00 00 48 89 04 24 48 8d 8c 24  .H......H..$H..$
	0x00d0 b0 00 00 00 48 89 4c 24 08 48 c7 44 24 10 00 00  ....H.L$.H.D$...
	0x00e0 00 00 e8 00 00 00 00 48 8b 44 24 18 48 83 00 85  .......H.D$.H...
	0x00f0 48 8d 05 00 00 00 00 48 89 04 24 48 8d 8c 24 b0  H......H..$H..$.
	0x0100 00 00 00 48 89 4c 24 08 48 c7 44 24 10 00 00 00  ...H.L$.H.D$....
	0x0110 00 e8 00 00 00 00 48 8b 44 24 18 48 8b 08 48 69  ......H.D$.H..Hi
	0x0120 c9 c8 01 00 00 48 89 08 48 8d 05 00 00 00 00 48  .....H..H......H
	0x0130 89 04 24 48 8d 8c 24 b0 00 00 00 48 89 4c 24 08  ..$H..$....H.L$.
	0x0140 48 c7 44 24 10 00 00 00 00 e8 00 00 00 00 48 8b  H.D$..........H.
	0x0150 44 24 18 48 83 08 4e 48 8d 05 00 00 00 00 48 89  D$.H..NH......H.
	0x0160 04 24 48 8d 8c 24 b0 00 00 00 48 89 4c 24 08 48  .$H..$....H.L$.H
	0x0170 c7 44 24 10 00 00 00 00 e8 00 00 00 00 48 8b 44  .D$..........H.D
	0x0180 24 18 48 83 30 59 48 8d 05 00 00 00 00 48 89 04  $.H.0YH......H..
	0x0190 24 48 8d 8c 24 b0 00 00 00 48 89 4c 24 08 48 c7  $H..$....H.L$.H.
	0x01a0 44 24 10 00 00 00 00 e8 00 00 00 00 48 8b 44 24  D$..........H.D$
	0x01b0 18 48 8b 08 48 c1 e1 09 48 89 08 48 8d 05 00 00  .H..H...H..H....
	0x01c0 00 00 48 89 04 24 48 8d 8c 24 b0 00 00 00 48 89  ..H..$H..$....H.
	0x01d0 4c 24 08 48 c7 44 24 10 00 00 00 00 0f 1f 40 00  L$.H.D$.......@.
	0x01e0 e8 00 00 00 00 48 8b 44 24 18 48 8b 08 48 c1 f9  .....H.D$.H..H..
	0x01f0 0a 48 89 08 48 8d 05 00 00 00 00 48 89 04 24 48  .H..H......H..$H
	0x0200 8d 8c 24 b0 00 00 00 48 89 4c 24 08 48 c7 44 24  ..$....H.L$.H.D$
	0x0210 10 00 00 00 00 e8 00 00 00 00 48 8b 44 24 18 48  ..........H.D$.H
	0x0220 ff 00 48 8d 05 00 00 00 00 48 89 04 24 48 8d 84  ..H......H..$H..
	0x0230 24 b0 00 00 00 48 89 44 24 08 48 c7 44 24 10 00  $....H.D$.H.D$..
	0x0240 00 00 00 e8 00 00 00 00 48 8b 44 24 18 48 ff 08  ........H.D$.H..
	0x0250 48 8b ac 24 e0 00 00 00 48 81 c4 e8 00 00 00 90  H..$....H.......
	0x0260 c3 e8 00 00 00 00 e9 95 fd ff ff                 ...........
	rel 5+4 t=17 TLS+0
	rel 107+4 t=8 runtime.duffzero+258
	rel 129+4 t=8 runtime.fastrand+0
	rel 146+4 t=16 type.map[int64]int64+0
	rel 177+4 t=8 runtime.mapassign_fast64+0
	rel 196+4 t=16 type.map[int64]int64+0
	rel 227+4 t=8 runtime.mapassign_fast64+0
	rel 243+4 t=16 type.map[int64]int64+0
	rel 274+4 t=8 runtime.mapassign_fast64+0
	rel 299+4 t=16 type.map[int64]int64+0
	rel 330+4 t=8 runtime.mapassign_fast64+0
	rel 346+4 t=16 type.map[int64]int64+0
	rel 377+4 t=8 runtime.mapassign_fast64+0
	rel 393+4 t=16 type.map[int64]int64+0
	rel 424+4 t=8 runtime.mapassign_fast64+0
	rel 446+4 t=16 type.map[int64]int64+0
	rel 481+4 t=8 runtime.mapassign_fast64+0
	rel 503+4 t=16 type.map[int64]int64+0
	rel 534+4 t=8 runtime.mapassign_fast64+0
	rel 549+4 t=16 type.map[int64]int64+0
	rel 580+4 t=8 runtime.mapassign_fast64+0
	rel 610+4 t=8 runtime.morestack_noctxt+0
"".mapCompoundAssignmentComplex128 STEXT size=660 args=0x0 locals=0x178
	0x0000 00000 (/usr/local/go/test/codegen/mapaccess.go:189)	TEXT	"".mapCompoundAssignmentComplex128(SB), ABIInternal, $376-0
	0x0000 00000 (/usr/local/go/test/codegen/mapaccess.go:189)	MOVQ	(TLS), CX
	0x0009 00009 (/usr/local/go/test/codegen/mapaccess.go:189)	LEAQ	-248(SP), AX
	0x0011 00017 (/usr/local/go/test/codegen/mapaccess.go:189)	CMPQ	AX, 16(CX)
	0x0015 00021 (/usr/local/go/test/codegen/mapaccess.go:189)	PCDATA	$0, $-2
	0x0015 00021 (/usr/local/go/test/codegen/mapaccess.go:189)	JLS	650
	0x001b 00027 (/usr/local/go/test/codegen/mapaccess.go:189)	PCDATA	$0, $-1
	0x001b 00027 (/usr/local/go/test/codegen/mapaccess.go:189)	SUBQ	$376, SP
	0x0022 00034 (/usr/local/go/test/codegen/mapaccess.go:189)	MOVQ	BP, 368(SP)
	0x002a 00042 (/usr/local/go/test/codegen/mapaccess.go:189)	LEAQ	368(SP), BP
	0x0032 00050 (/usr/local/go/test/codegen/mapaccess.go:189)	FUNCDATA	$0, gclocals·69c1753bd5f81501d95132d08af04464(SB)
	0x0032 00050 (/usr/local/go/test/codegen/mapaccess.go:189)	FUNCDATA	$1, gclocals·d9a525d1de6bc16975a5efbb873db17d(SB)
	0x0032 00050 (/usr/local/go/test/codegen/mapaccess.go:189)	FUNCDATA	$3, "".mapCompoundAssignmentComplex128.stkobj(SB)
	0x0032 00050 (/usr/local/go/test/codegen/mapaccess.go:190)	XORPS	X0, X0
	0x0035 00053 (/usr/local/go/test/codegen/mapaccess.go:190)	MOVUPS	X0, ""..autotmp_3+320(SP)
	0x003d 00061 (/usr/local/go/test/codegen/mapaccess.go:190)	MOVUPS	X0, ""..autotmp_3+336(SP)
	0x0045 00069 (/usr/local/go/test/codegen/mapaccess.go:190)	MOVUPS	X0, ""..autotmp_3+352(SP)
	0x004d 00077 (/usr/local/go/test/codegen/mapaccess.go:190)	LEAQ	""..autotmp_4+48(SP), DI
	0x0052 00082 (/usr/local/go/test/codegen/mapaccess.go:190)	LEAQ	-48(DI), DI
	0x0056 00086 (/usr/local/go/test/codegen/mapaccess.go:190)	NOP
	0x0060 00096 (/usr/local/go/test/codegen/mapaccess.go:190)	DUFFZERO	$220
	0x0073 00115 (/usr/local/go/test/codegen/mapaccess.go:190)	LEAQ	""..autotmp_4+48(SP), AX
	0x0078 00120 (/usr/local/go/test/codegen/mapaccess.go:190)	MOVQ	AX, ""..autotmp_3+336(SP)
	0x0080 00128 (/usr/local/go/test/codegen/mapaccess.go:190)	PCDATA	$1, $1
	0x0080 00128 (/usr/local/go/test/codegen/mapaccess.go:190)	CALL	runtime.fastrand(SB)
	0x0085 00133 (/usr/local/go/test/codegen/mapaccess.go:190)	MOVL	(SP), AX
	0x0088 00136 (/usr/local/go/test/codegen/mapaccess.go:190)	MOVL	AX, ""..autotmp_3+332(SP)
	0x008f 00143 (/usr/local/go/test/codegen/mapaccess.go:197)	XORPS	X1, X1
	0x0092 00146 (/usr/local/go/test/codegen/mapaccess.go:197)	MOVSD	X1, ""..autotmp_2+32(SP)
	0x0098 00152 (/usr/local/go/test/codegen/mapaccess.go:197)	MOVSD	X1, ""..autotmp_2+40(SP)
	0x009e 00158 (/usr/local/go/test/codegen/mapaccess.go:197)	LEAQ	type.map[complex128]complex128(SB), AX
	0x00a5 00165 (/usr/local/go/test/codegen/mapaccess.go:197)	MOVQ	AX, (SP)
	0x00a9 00169 (/usr/local/go/test/codegen/mapaccess.go:197)	LEAQ	""..autotmp_3+320(SP), CX
	0x00b1 00177 (/usr/local/go/test/codegen/mapaccess.go:197)	MOVQ	CX, 8(SP)
	0x00b6 00182 (/usr/local/go/test/codegen/mapaccess.go:197)	LEAQ	""..autotmp_2+32(SP), DX
	0x00bb 00187 (/usr/local/go/test/codegen/mapaccess.go:197)	MOVQ	DX, 16(SP)
	0x00c0 00192 (/usr/local/go/test/codegen/mapaccess.go:197)	CALL	runtime.mapassign(SB)
	0x00c5 00197 (/usr/local/go/test/codegen/mapaccess.go:197)	MOVQ	24(SP), AX
	0x00ca 00202 (/usr/local/go/test/codegen/mapaccess.go:197)	MOVSD	8(AX), X1
	0x00cf 00207 (/usr/local/go/test/codegen/mapaccess.go:197)	MOVSD	$f64.40f0932000000000(SB), X2
	0x00d7 00215 (/usr/local/go/test/codegen/mapaccess.go:197)	ADDSD	(AX), X2
	0x00db 00219 (/usr/local/go/test/codegen/mapaccess.go:197)	MOVSD	X2, (AX)
	0x00df 00223 (/usr/local/go/test/codegen/mapaccess.go:197)	XORPS	X2, X2
	0x00e2 00226 (/usr/local/go/test/codegen/mapaccess.go:197)	ADDSD	X2, X1
	0x00e6 00230 (/usr/local/go/test/codegen/mapaccess.go:197)	MOVSD	X1, 8(AX)
	0x00eb 00235 (/usr/local/go/test/codegen/mapaccess.go:203)	MOVSD	X2, ""..autotmp_2+32(SP)
	0x00f1 00241 (/usr/local/go/test/codegen/mapaccess.go:203)	MOVSD	X2, ""..autotmp_2+40(SP)
	0x00f7 00247 (/usr/local/go/test/codegen/mapaccess.go:203)	LEAQ	type.map[complex128]complex128(SB), AX
	0x00fe 00254 (/usr/local/go/test/codegen/mapaccess.go:203)	MOVQ	AX, (SP)
	0x0102 00258 (/usr/local/go/test/codegen/mapaccess.go:203)	LEAQ	""..autotmp_3+320(SP), CX
	0x010a 00266 (/usr/local/go/test/codegen/mapaccess.go:203)	MOVQ	CX, 8(SP)
	0x010f 00271 (/usr/local/go/test/codegen/mapaccess.go:203)	LEAQ	""..autotmp_2+32(SP), DX
	0x0114 00276 (/usr/local/go/test/codegen/mapaccess.go:203)	MOVQ	DX, 16(SP)
	0x0119 00281 (/usr/local/go/test/codegen/mapaccess.go:203)	CALL	runtime.mapassign(SB)
	0x011e 00286 (/usr/local/go/test/codegen/mapaccess.go:203)	MOVQ	24(SP), AX
	0x0123 00291 (/usr/local/go/test/codegen/mapaccess.go:203)	MOVSD	(AX), X1
	0x0127 00295 (/usr/local/go/test/codegen/mapaccess.go:203)	MOVSD	8(AX), X2
	0x012c 00300 (/usr/local/go/test/codegen/mapaccess.go:203)	MOVSD	$f64.405ec00000000000(SB), X3
	0x0134 00308 (/usr/local/go/test/codegen/mapaccess.go:203)	SUBSD	X3, X1
	0x0138 00312 (/usr/local/go/test/codegen/mapaccess.go:203)	MOVSD	X1, (AX)
	0x013c 00316 (/usr/local/go/test/codegen/mapaccess.go:203)	XORPS	X1, X1
	0x013f 00319 (/usr/local/go/test/codegen/mapaccess.go:203)	SUBSD	X1, X2
	0x0143 00323 (/usr/local/go/test/codegen/mapaccess.go:203)	MOVSD	X2, 8(AX)
	0x0148 00328 (/usr/local/go/test/codegen/mapaccess.go:209)	MOVSD	X1, ""..autotmp_2+32(SP)
	0x014e 00334 (/usr/local/go/test/codegen/mapaccess.go:209)	MOVSD	X1, ""..autotmp_2+40(SP)
	0x0154 00340 (/usr/local/go/test/codegen/mapaccess.go:209)	LEAQ	type.map[complex128]complex128(SB), AX
	0x015b 00347 (/usr/local/go/test/codegen/mapaccess.go:209)	MOVQ	AX, (SP)
	0x015f 00351 (/usr/local/go/test/codegen/mapaccess.go:209)	LEAQ	""..autotmp_3+320(SP), CX
	0x0167 00359 (/usr/local/go/test/codegen/mapaccess.go:209)	MOVQ	CX, 8(SP)
	0x016c 00364 (/usr/local/go/test/codegen/mapaccess.go:209)	LEAQ	""..autotmp_2+32(SP), DX
	0x0171 00369 (/usr/local/go/test/codegen/mapaccess.go:209)	MOVQ	DX, 16(SP)
	0x0176 00374 (/usr/local/go/test/codegen/mapaccess.go:209)	CALL	runtime.mapassign(SB)
	0x017b 00379 (/usr/local/go/test/codegen/mapaccess.go:209)	MOVQ	24(SP), AX
	0x0180 00384 (/usr/local/go/test/codegen/mapaccess.go:209)	MOVSD	(AX), X1
	0x0184 00388 (/usr/local/go/test/codegen/mapaccess.go:209)	MOVSD	8(AX), X2
	0x0189 00393 (/usr/local/go/test/codegen/mapaccess.go:209)	MOVSD	$f64.407c800000000000(SB), X3
	0x0191 00401 (/usr/local/go/test/codegen/mapaccess.go:209)	MULSD	X1, X3
	0x0195 00405 (/usr/local/go/test/codegen/mapaccess.go:209)	XORPS	X4, X4
	0x0198 00408 (/usr/local/go/test/codegen/mapaccess.go:209)	MULSD	X2, X4
	0x019c 00412 (/usr/local/go/test/codegen/mapaccess.go:209)	SUBSD	X4, X3
	0x01a0 00416 (/usr/local/go/test/codegen/mapaccess.go:209)	MOVSD	X3, (AX)
	0x01a4 00420 (/usr/local/go/test/codegen/mapaccess.go:209)	XORPS	X3, X3
	0x01a7 00423 (/usr/local/go/test/codegen/mapaccess.go:209)	MULSD	X3, X1
	0x01ab 00427 (/usr/local/go/test/codegen/mapaccess.go:209)	MOVSD	$f64.407c800000000000(SB), X4
	0x01b3 00435 (/usr/local/go/test/codegen/mapaccess.go:209)	MULSD	X2, X4
	0x01b7 00439 (/usr/local/go/test/codegen/mapaccess.go:209)	ADDSD	X4, X1
	0x01bb 00443 (/usr/local/go/test/codegen/mapaccess.go:209)	MOVSD	X1, 8(AX)
	0x01c0 00448 (/usr/local/go/test/codegen/mapaccess.go:215)	MOVSD	X3, ""..autotmp_2+32(SP)
	0x01c6 00454 (/usr/local/go/test/codegen/mapaccess.go:215)	MOVSD	X3, ""..autotmp_2+40(SP)
	0x01cc 00460 (/usr/local/go/test/codegen/mapaccess.go:215)	LEAQ	type.map[complex128]complex128(SB), AX
	0x01d3 00467 (/usr/local/go/test/codegen/mapaccess.go:215)	MOVQ	AX, (SP)
	0x01d7 00471 (/usr/local/go/test/codegen/mapaccess.go:215)	LEAQ	""..autotmp_3+320(SP), CX
	0x01df 00479 (/usr/local/go/test/codegen/mapaccess.go:215)	MOVQ	CX, 8(SP)
	0x01e4 00484 (/usr/local/go/test/codegen/mapaccess.go:215)	LEAQ	""..autotmp_2+32(SP), DX
	0x01e9 00489 (/usr/local/go/test/codegen/mapaccess.go:215)	MOVQ	DX, 16(SP)
	0x01ee 00494 (/usr/local/go/test/codegen/mapaccess.go:215)	CALL	runtime.mapassign(SB)
	0x01f3 00499 (/usr/local/go/test/codegen/mapaccess.go:215)	MOVQ	24(SP), AX
	0x01f8 00504 (/usr/local/go/test/codegen/mapaccess.go:215)	MOVSD	(AX), X1
	0x01fc 00508 (/usr/local/go/test/codegen/mapaccess.go:215)	MOVSD	8(AX), X2
	0x0201 00513 (/usr/local/go/test/codegen/mapaccess.go:215)	MOVSD	$f64.3ff0000000000000(SB), X3
	0x0209 00521 (/usr/local/go/test/codegen/mapaccess.go:215)	ADDSD	X3, X1
	0x020d 00525 (/usr/local/go/test/codegen/mapaccess.go:215)	MOVSD	X1, (AX)
	0x0211 00529 (/usr/local/go/test/codegen/mapaccess.go:215)	XORPS	X1, X1
	0x0214 00532 (/usr/local/go/test/codegen/mapaccess.go:215)	ADDSD	X1, X2
	0x0218 00536 (/usr/local/go/test/codegen/mapaccess.go:215)	MOVSD	X2, 8(AX)
	0x021d 00541 (/usr/local/go/test/codegen/mapaccess.go:221)	MOVSD	X1, ""..autotmp_2+32(SP)
	0x0223 00547 (/usr/local/go/test/codegen/mapaccess.go:221)	MOVSD	X1, ""..autotmp_2+40(SP)
	0x0229 00553 (/usr/local/go/test/codegen/mapaccess.go:221)	LEAQ	type.map[complex128]complex128(SB), AX
	0x0230 00560 (/usr/local/go/test/codegen/mapaccess.go:221)	MOVQ	AX, (SP)
	0x0234 00564 (/usr/local/go/test/codegen/mapaccess.go:221)	LEAQ	""..autotmp_3+320(SP), AX
	0x023c 00572 (/usr/local/go/test/codegen/mapaccess.go:221)	MOVQ	AX, 8(SP)
	0x0241 00577 (/usr/local/go/test/codegen/mapaccess.go:221)	LEAQ	""..autotmp_2+32(SP), AX
	0x0246 00582 (/usr/local/go/test/codegen/mapaccess.go:221)	MOVQ	AX, 16(SP)
	0x024b 00587 (/usr/local/go/test/codegen/mapaccess.go:221)	PCDATA	$1, $0
	0x024b 00587 (/usr/local/go/test/codegen/mapaccess.go:221)	CALL	runtime.mapassign(SB)
	0x0250 00592 (/usr/local/go/test/codegen/mapaccess.go:221)	MOVQ	24(SP), AX
	0x0255 00597 (/usr/local/go/test/codegen/mapaccess.go:221)	MOVSD	(AX), X1
	0x0259 00601 (/usr/local/go/test/codegen/mapaccess.go:221)	MOVSD	8(AX), X2
	0x025e 00606 (/usr/local/go/test/codegen/mapaccess.go:221)	MOVSD	$f64.3ff0000000000000(SB), X3
	0x0266 00614 (/usr/local/go/test/codegen/mapaccess.go:221)	SUBSD	X3, X1
	0x026a 00618 (/usr/local/go/test/codegen/mapaccess.go:221)	MOVSD	X1, (AX)
	0x026e 00622 (/usr/local/go/test/codegen/mapaccess.go:221)	XORPS	X1, X1
	0x0271 00625 (/usr/local/go/test/codegen/mapaccess.go:221)	SUBSD	X1, X2
	0x0275 00629 (/usr/local/go/test/codegen/mapaccess.go:221)	MOVSD	X2, 8(AX)
	0x027a 00634 (/usr/local/go/test/codegen/mapaccess.go:222)	MOVQ	368(SP), BP
	0x0282 00642 (/usr/local/go/test/codegen/mapaccess.go:222)	ADDQ	$376, SP
	0x0289 00649 (/usr/local/go/test/codegen/mapaccess.go:222)	RET
	0x028a 00650 (/usr/local/go/test/codegen/mapaccess.go:222)	NOP
	0x028a 00650 (/usr/local/go/test/codegen/mapaccess.go:189)	PCDATA	$1, $-1
	0x028a 00650 (/usr/local/go/test/codegen/mapaccess.go:189)	PCDATA	$0, $-2
	0x028a 00650 (/usr/local/go/test/codegen/mapaccess.go:189)	CALL	runtime.morestack_noctxt(SB)
	0x028f 00655 (/usr/local/go/test/codegen/mapaccess.go:189)	PCDATA	$0, $-1
	0x028f 00655 (/usr/local/go/test/codegen/mapaccess.go:189)	JMP	0
	0x0000 64 48 8b 0c 25 00 00 00 00 48 8d 84 24 08 ff ff  dH..%....H..$...
	0x0010 ff 48 3b 41 10 0f 86 6f 02 00 00 48 81 ec 78 01  .H;A...o...H..x.
	0x0020 00 00 48 89 ac 24 70 01 00 00 48 8d ac 24 70 01  ..H..$p...H..$p.
	0x0030 00 00 0f 57 c0 0f 11 84 24 40 01 00 00 0f 11 84  ...W....$@......
	0x0040 24 50 01 00 00 0f 11 84 24 60 01 00 00 48 8d 7c  $P......$`...H.|
	0x0050 24 30 48 8d 7f d0 66 0f 1f 84 00 00 00 00 00 90  $0H...f.........
	0x0060 48 89 6c 24 f0 48 8d 6c 24 f0 e8 00 00 00 00 48  H.l$.H.l$......H
	0x0070 8b 6d 00 48 8d 44 24 30 48 89 84 24 50 01 00 00  .m.H.D$0H..$P...
	0x0080 e8 00 00 00 00 8b 04 24 89 84 24 4c 01 00 00 0f  .......$..$L....
	0x0090 57 c9 f2 0f 11 4c 24 20 f2 0f 11 4c 24 28 48 8d  W....L$ ...L$(H.
	0x00a0 05 00 00 00 00 48 89 04 24 48 8d 8c 24 40 01 00  .....H..$H..$@..
	0x00b0 00 48 89 4c 24 08 48 8d 54 24 20 48 89 54 24 10  .H.L$.H.T$ H.T$.
	0x00c0 e8 00 00 00 00 48 8b 44 24 18 f2 0f 10 48 08 f2  .....H.D$....H..
	0x00d0 0f 10 15 00 00 00 00 f2 0f 58 10 f2 0f 11 10 0f  .........X......
	0x00e0 57 d2 f2 0f 58 ca f2 0f 11 48 08 f2 0f 11 54 24  W...X....H....T$
	0x00f0 20 f2 0f 11 54 24 28 48 8d 05 00 00 00 00 48 89   ...T$(H......H.
	0x0100 04 24 48 8d 8c 24 40 01 00 00 48 89 4c 24 08 48  .$H..$@...H.L$.H
	0x0110 8d 54 24 20 48 89 54 24 10 e8 00 00 00 00 48 8b  .T$ H.T$......H.
	0x0120 44 24 18 f2 0f 10 08 f2 0f 10 50 08 f2 0f 10 1d  D$........P.....
	0x0130 00 00 00 00 f2 0f 5c cb f2 0f 11 08 0f 57 c9 f2  ......\......W..
	0x0140 0f 5c d1 f2 0f 11 50 08 f2 0f 11 4c 24 20 f2 0f  .\....P....L$ ..
	0x0150 11 4c 24 28 48 8d 05 00 00 00 00 48 89 04 24 48  .L$(H......H..$H
	0x0160 8d 8c 24 40 01 00 00 48 89 4c 24 08 48 8d 54 24  ..$@...H.L$.H.T$
	0x0170 20 48 89 54 24 10 e8 00 00 00 00 48 8b 44 24 18   H.T$......H.D$.
	0x0180 f2 0f 10 08 f2 0f 10 50 08 f2 0f 10 1d 00 00 00  .......P........
	0x0190 00 f2 0f 59 d9 0f 57 e4 f2 0f 59 e2 f2 0f 5c dc  ...Y..W...Y...\.
	0x01a0 f2 0f 11 18 0f 57 db f2 0f 59 cb f2 0f 10 25 00  .....W...Y....%.
	0x01b0 00 00 00 f2 0f 59 e2 f2 0f 58 cc f2 0f 11 48 08  .....Y...X....H.
	0x01c0 f2 0f 11 5c 24 20 f2 0f 11 5c 24 28 48 8d 05 00  ...\$ ...\$(H...
	0x01d0 00 00 00 48 89 04 24 48 8d 8c 24 40 01 00 00 48  ...H..$H..$@...H
	0x01e0 89 4c 24 08 48 8d 54 24 20 48 89 54 24 10 e8 00  .L$.H.T$ H.T$...
	0x01f0 00 00 00 48 8b 44 24 18 f2 0f 10 08 f2 0f 10 50  ...H.D$........P
	0x0200 08 f2 0f 10 1d 00 00 00 00 f2 0f 58 cb f2 0f 11  ...........X....
	0x0210 08 0f 57 c9 f2 0f 58 d1 f2 0f 11 50 08 f2 0f 11  ..W...X....P....
	0x0220 4c 24 20 f2 0f 11 4c 24 28 48 8d 05 00 00 00 00  L$ ...L$(H......
	0x0230 48 89 04 24 48 8d 84 24 40 01 00 00 48 89 44 24  H..$H..$@...H.D$
	0x0240 08 48 8d 44 24 20 48 89 44 24 10 e8 00 00 00 00  .H.D$ H.D$......
	0x0250 48 8b 44 24 18 f2 0f 10 08 f2 0f 10 50 08 f2 0f  H.D$........P...
	0x0260 10 1d 00 00 00 00 f2 0f 5c cb f2 0f 11 08 0f 57  ........\......W
	0x0270 c9 f2 0f 5c d1 f2 0f 11 50 08 48 8b ac 24 70 01  ...\....P.H..$p.
	0x0280 00 00 48 81 c4 78 01 00 00 c3 e8 00 00 00 00 e9  ..H..x..........
	0x0290 6c fd ff ff                                      l...
	rel 5+4 t=17 TLS+0
	rel 107+4 t=8 runtime.duffzero+220
	rel 129+4 t=8 runtime.fastrand+0
	rel 161+4 t=16 type.map[complex128]complex128+0
	rel 193+4 t=8 runtime.mapassign+0
	rel 211+4 t=16 $f64.40f0932000000000+0
	rel 250+4 t=16 type.map[complex128]complex128+0
	rel 282+4 t=8 runtime.mapassign+0
	rel 304+4 t=16 $f64.405ec00000000000+0
	rel 343+4 t=16 type.map[complex128]complex128+0
	rel 375+4 t=8 runtime.mapassign+0
	rel 397+4 t=16 $f64.407c800000000000+0
	rel 431+4 t=16 $f64.407c800000000000+0
	rel 463+4 t=16 type.map[complex128]complex128+0
	rel 495+4 t=8 runtime.mapassign+0
	rel 517+4 t=16 $f64.3ff0000000000000+0
	rel 556+4 t=16 type.map[complex128]complex128+0
	rel 588+4 t=8 runtime.mapassign+0
	rel 610+4 t=16 $f64.3ff0000000000000+0
	rel 651+4 t=8 runtime.morestack_noctxt+0
"".mapCompoundAssignmentString STEXT size=312 args=0x0 locals=0x188
	0x0000 00000 (/usr/local/go/test/codegen/mapaccess.go:224)	TEXT	"".mapCompoundAssignmentString(SB), ABIInternal, $392-0
	0x0000 00000 (/usr/local/go/test/codegen/mapaccess.go:224)	MOVQ	(TLS), CX
	0x0009 00009 (/usr/local/go/test/codegen/mapaccess.go:224)	LEAQ	-264(SP), AX
	0x0011 00017 (/usr/local/go/test/codegen/mapaccess.go:224)	CMPQ	AX, 16(CX)
	0x0015 00021 (/usr/local/go/test/codegen/mapaccess.go:224)	PCDATA	$0, $-2
	0x0015 00021 (/usr/local/go/test/codegen/mapaccess.go:224)	JLS	302
	0x001b 00027 (/usr/local/go/test/codegen/mapaccess.go:224)	PCDATA	$0, $-1
	0x001b 00027 (/usr/local/go/test/codegen/mapaccess.go:224)	SUBQ	$392, SP
	0x0022 00034 (/usr/local/go/test/codegen/mapaccess.go:224)	MOVQ	BP, 384(SP)
	0x002a 00042 (/usr/local/go/test/codegen/mapaccess.go:224)	LEAQ	384(SP), BP
	0x0032 00050 (/usr/local/go/test/codegen/mapaccess.go:224)	FUNCDATA	$0, gclocals·7d2d5fca80364273fb07d5820a76fef4(SB)
	0x0032 00050 (/usr/local/go/test/codegen/mapaccess.go:224)	FUNCDATA	$1, gclocals·cca43574d20c4a817adb4230eb0ff56a(SB)
	0x0032 00050 (/usr/local/go/test/codegen/mapaccess.go:224)	FUNCDATA	$3, "".mapCompoundAssignmentString.stkobj(SB)
	0x0032 00050 (/usr/local/go/test/codegen/mapaccess.go:225)	XORPS	X0, X0
	0x0035 00053 (/usr/local/go/test/codegen/mapaccess.go:225)	MOVUPS	X0, ""..autotmp_2+64(SP)
	0x003a 00058 (/usr/local/go/test/codegen/mapaccess.go:225)	MOVUPS	X0, ""..autotmp_2+80(SP)
	0x003f 00063 (/usr/local/go/test/codegen/mapaccess.go:225)	MOVUPS	X0, ""..autotmp_2+96(SP)
	0x0044 00068 (/usr/local/go/test/codegen/mapaccess.go:225)	LEAQ	""..autotmp_3+112(SP), DI
	0x0049 00073 (/usr/local/go/test/codegen/mapaccess.go:225)	LEAQ	-48(DI), DI
	0x004d 00077 (/usr/local/go/test/codegen/mapaccess.go:225)	NOP
	0x0060 00096 (/usr/local/go/test/codegen/mapaccess.go:225)	DUFFZERO	$220
	0x0073 00115 (/usr/local/go/test/codegen/mapaccess.go:225)	LEAQ	""..autotmp_3+112(SP), AX
	0x0078 00120 (/usr/local/go/test/codegen/mapaccess.go:225)	MOVQ	AX, ""..autotmp_2+80(SP)
	0x007d 00125 (/usr/local/go/test/codegen/mapaccess.go:225)	PCDATA	$1, $1
	0x007d 00125 (/usr/local/go/test/codegen/mapaccess.go:225)	NOP
	0x0080 00128 (/usr/local/go/test/codegen/mapaccess.go:225)	CALL	runtime.fastrand(SB)
	0x0085 00133 (/usr/local/go/test/codegen/mapaccess.go:225)	MOVL	(SP), AX
	0x0088 00136 (/usr/local/go/test/codegen/mapaccess.go:225)	MOVL	AX, ""..autotmp_2+76(SP)
	0x008c 00140 (/usr/local/go/test/codegen/mapaccess.go:232)	LEAQ	type.map[string]string(SB), AX
	0x0093 00147 (/usr/local/go/test/codegen/mapaccess.go:232)	MOVQ	AX, (SP)
	0x0097 00151 (/usr/local/go/test/codegen/mapaccess.go:232)	LEAQ	""..autotmp_2+64(SP), AX
	0x009c 00156 (/usr/local/go/test/codegen/mapaccess.go:232)	MOVQ	AX, 8(SP)
	0x00a1 00161 (/usr/local/go/test/codegen/mapaccess.go:232)	LEAQ	go.string."key"(SB), AX
	0x00a8 00168 (/usr/local/go/test/codegen/mapaccess.go:232)	MOVQ	AX, 16(SP)
	0x00ad 00173 (/usr/local/go/test/codegen/mapaccess.go:232)	MOVQ	$3, 24(SP)
	0x00b6 00182 (/usr/local/go/test/codegen/mapaccess.go:232)	PCDATA	$1, $0
	0x00b6 00182 (/usr/local/go/test/codegen/mapaccess.go:232)	CALL	runtime.mapassign_faststr(SB)
	0x00bb 00187 (/usr/local/go/test/codegen/mapaccess.go:232)	MOVQ	32(SP), AX
	0x00c0 00192 (/usr/local/go/test/codegen/mapaccess.go:232)	MOVQ	AX, ""..autotmp_10+56(SP)
	0x00c5 00197 (/usr/local/go/test/codegen/mapaccess.go:232)	MOVQ	(AX), CX
	0x00c8 00200 (/usr/local/go/test/codegen/mapaccess.go:232)	MOVQ	8(AX), DX
	0x00cc 00204 (/usr/local/go/test/codegen/mapaccess.go:232)	MOVQ	$0, (SP)
	0x00d4 00212 (/usr/local/go/test/codegen/mapaccess.go:232)	MOVQ	CX, 8(SP)
	0x00d9 00217 (/usr/local/go/test/codegen/mapaccess.go:232)	MOVQ	DX, 16(SP)
	0x00de 00222 (/usr/local/go/test/codegen/mapaccess.go:232)	LEAQ	go.string."value"(SB), CX
	0x00e5 00229 (/usr/local/go/test/codegen/mapaccess.go:232)	MOVQ	CX, 24(SP)
	0x00ea 00234 (/usr/local/go/test/codegen/mapaccess.go:232)	MOVQ	$5, 32(SP)
	0x00f3 00243 (/usr/local/go/test/codegen/mapaccess.go:232)	PCDATA	$1, $2
	0x00f3 00243 (/usr/local/go/test/codegen/mapaccess.go:232)	CALL	runtime.concatstring2(SB)
	0x00f8 00248 (/usr/local/go/test/codegen/mapaccess.go:232)	MOVQ	40(SP), AX
	0x00fd 00253 (/usr/local/go/test/codegen/mapaccess.go:232)	MOVQ	48(SP), CX
	0x0102 00258 (/usr/local/go/test/codegen/mapaccess.go:232)	MOVQ	""..autotmp_10+56(SP), DI
	0x0107 00263 (/usr/local/go/test/codegen/mapaccess.go:232)	MOVQ	CX, 8(DI)
	0x010b 00267 (/usr/local/go/test/codegen/mapaccess.go:232)	PCDATA	$0, $-2
	0x010b 00267 (/usr/local/go/test/codegen/mapaccess.go:232)	CMPL	runtime.writeBarrier(SB), $0
	0x0112 00274 (/usr/local/go/test/codegen/mapaccess.go:232)	JNE	295
	0x0114 00276 (/usr/local/go/test/codegen/mapaccess.go:232)	MOVQ	AX, (DI)
	0x0117 00279 (/usr/local/go/test/codegen/mapaccess.go:233)	PCDATA	$0, $-1
	0x0117 00279 (/usr/local/go/test/codegen/mapaccess.go:233)	PCDATA	$1, $-1
	0x0117 00279 (/usr/local/go/test/codegen/mapaccess.go:233)	MOVQ	384(SP), BP
	0x011f 00287 (/usr/local/go/test/codegen/mapaccess.go:233)	ADDQ	$392, SP
	0x0126 00294 (/usr/local/go/test/codegen/mapaccess.go:233)	RET
	0x0127 00295 (/usr/local/go/test/codegen/mapaccess.go:232)	PCDATA	$0, $-2
	0x0127 00295 (/usr/local/go/test/codegen/mapaccess.go:232)	CALL	runtime.gcWriteBarrier(SB)
	0x012c 00300 (/usr/local/go/test/codegen/mapaccess.go:232)	JMP	279
	0x012e 00302 (/usr/local/go/test/codegen/mapaccess.go:232)	NOP
	0x012e 00302 (/usr/local/go/test/codegen/mapaccess.go:224)	PCDATA	$1, $-1
	0x012e 00302 (/usr/local/go/test/codegen/mapaccess.go:224)	PCDATA	$0, $-2
	0x012e 00302 (/usr/local/go/test/codegen/mapaccess.go:224)	CALL	runtime.morestack_noctxt(SB)
	0x0133 00307 (/usr/local/go/test/codegen/mapaccess.go:224)	PCDATA	$0, $-1
	0x0133 00307 (/usr/local/go/test/codegen/mapaccess.go:224)	JMP	0
	0x0000 64 48 8b 0c 25 00 00 00 00 48 8d 84 24 f8 fe ff  dH..%....H..$...
	0x0010 ff 48 3b 41 10 0f 86 13 01 00 00 48 81 ec 88 01  .H;A.......H....
	0x0020 00 00 48 89 ac 24 80 01 00 00 48 8d ac 24 80 01  ..H..$....H..$..
	0x0030 00 00 0f 57 c0 0f 11 44 24 40 0f 11 44 24 50 0f  ...W...D$@..D$P.
	0x0040 11 44 24 60 48 8d 7c 24 70 48 8d 7f d0 66 0f 1f  .D$`H.|$pH...f..
	0x0050 84 00 00 00 00 00 66 0f 1f 84 00 00 00 00 00 90  ......f.........
	0x0060 48 89 6c 24 f0 48 8d 6c 24 f0 e8 00 00 00 00 48  H.l$.H.l$......H
	0x0070 8b 6d 00 48 8d 44 24 70 48 89 44 24 50 0f 1f 00  .m.H.D$pH.D$P...
	0x0080 e8 00 00 00 00 8b 04 24 89 44 24 4c 48 8d 05 00  .......$.D$LH...
	0x0090 00 00 00 48 89 04 24 48 8d 44 24 40 48 89 44 24  ...H..$H.D$@H.D$
	0x00a0 08 48 8d 05 00 00 00 00 48 89 44 24 10 48 c7 44  .H......H.D$.H.D
	0x00b0 24 18 03 00 00 00 e8 00 00 00 00 48 8b 44 24 20  $..........H.D$ 
	0x00c0 48 89 44 24 38 48 8b 08 48 8b 50 08 48 c7 04 24  H.D$8H..H.P.H..$
	0x00d0 00 00 00 00 48 89 4c 24 08 48 89 54 24 10 48 8d  ....H.L$.H.T$.H.
	0x00e0 0d 00 00 00 00 48 89 4c 24 18 48 c7 44 24 20 05  .....H.L$.H.D$ .
	0x00f0 00 00 00 e8 00 00 00 00 48 8b 44 24 28 48 8b 4c  ........H.D$(H.L
	0x0100 24 30 48 8b 7c 24 38 48 89 4f 08 83 3d 00 00 00  $0H.|$8H.O..=...
	0x0110 00 00 75 13 48 89 07 48 8b ac 24 80 01 00 00 48  ..u.H..H..$....H
	0x0120 81 c4 88 01 00 00 c3 e8 00 00 00 00 eb e9 e8 00  ................
	0x0130 00 00 00 e9 c8 fe ff ff                          ........
	rel 5+4 t=17 TLS+0
	rel 107+4 t=8 runtime.duffzero+220
	rel 129+4 t=8 runtime.fastrand+0
	rel 143+4 t=16 type.map[string]string+0
	rel 164+4 t=16 go.string."key"+0
	rel 183+4 t=8 runtime.mapassign_faststr+0
	rel 225+4 t=16 go.string."value"+0
	rel 244+4 t=8 runtime.concatstring2+0
	rel 269+4 t=16 runtime.writeBarrier+-1
	rel 296+4 t=8 runtime.gcWriteBarrier+0
	rel 303+4 t=8 runtime.morestack_noctxt+0
"".mapAppendAssignmentInt8 STEXT size=1935 args=0x0 locals=0x1a8
	0x0000 00000 (/usr/local/go/test/codegen/mapaccess.go:238)	TEXT	"".mapAppendAssignmentInt8(SB), ABIInternal, $424-0
	0x0000 00000 (/usr/local/go/test/codegen/mapaccess.go:238)	MOVQ	(TLS), CX
	0x0009 00009 (/usr/local/go/test/codegen/mapaccess.go:238)	LEAQ	-296(SP), AX
	0x0011 00017 (/usr/local/go/test/codegen/mapaccess.go:238)	CMPQ	AX, 16(CX)
	0x0015 00021 (/usr/local/go/test/codegen/mapaccess.go:238)	PCDATA	$0, $-2
	0x0015 00021 (/usr/local/go/test/codegen/mapaccess.go:238)	JLS	1925
	0x001b 00027 (/usr/local/go/test/codegen/mapaccess.go:238)	PCDATA	$0, $-1
	0x001b 00027 (/usr/local/go/test/codegen/mapaccess.go:238)	SUBQ	$424, SP
	0x0022 00034 (/usr/local/go/test/codegen/mapaccess.go:238)	MOVQ	BP, 416(SP)
	0x002a 00042 (/usr/local/go/test/codegen/mapaccess.go:238)	LEAQ	416(SP), BP
	0x0032 00050 (/usr/local/go/test/codegen/mapaccess.go:238)	FUNCDATA	$0, gclocals·7be4bbacbfdb05fb3044e36c22b41e8b(SB)
	0x0032 00050 (/usr/local/go/test/codegen/mapaccess.go:238)	FUNCDATA	$1, gclocals·f572082638f2312fa4bc552970ce2ab5(SB)
	0x0032 00050 (/usr/local/go/test/codegen/mapaccess.go:238)	FUNCDATA	$3, "".mapAppendAssignmentInt8.stkobj(SB)
	0x0032 00050 (/usr/local/go/test/codegen/mapaccess.go:239)	XORPS	X0, X0
	0x0035 00053 (/usr/local/go/test/codegen/mapaccess.go:239)	MOVUPS	X0, ""..autotmp_8+152(SP)
	0x003d 00061 (/usr/local/go/test/codegen/mapaccess.go:239)	MOVUPS	X0, ""..autotmp_8+168(SP)
	0x0045 00069 (/usr/local/go/test/codegen/mapaccess.go:239)	MOVUPS	X0, ""..autotmp_8+184(SP)
	0x004d 00077 (/usr/local/go/test/codegen/mapaccess.go:239)	MOVQ	$0, ""..autotmp_9+200(SP)
	0x0059 00089 (/usr/local/go/test/codegen/mapaccess.go:239)	LEAQ	""..autotmp_9+208(SP), DI
	0x0061 00097 (/usr/local/go/test/codegen/mapaccess.go:239)	LEAQ	-48(DI), DI
	0x0065 00101 (/usr/local/go/test/codegen/mapaccess.go:239)	DUFFZERO	$239
	0x0078 00120 (/usr/local/go/test/codegen/mapaccess.go:239)	LEAQ	""..autotmp_9+200(SP), AX
	0x0080 00128 (/usr/local/go/test/codegen/mapaccess.go:239)	MOVQ	AX, ""..autotmp_8+168(SP)
	0x0088 00136 (/usr/local/go/test/codegen/mapaccess.go:239)	PCDATA	$1, $1
	0x0088 00136 (/usr/local/go/test/codegen/mapaccess.go:239)	CALL	runtime.fastrand(SB)
	0x008d 00141 (/usr/local/go/test/codegen/mapaccess.go:239)	MOVL	(SP), AX
	0x0090 00144 (/usr/local/go/test/codegen/mapaccess.go:239)	MOVL	AX, ""..autotmp_8+164(SP)
	0x0097 00151 (/usr/local/go/test/codegen/mapaccess.go:246)	MOVB	$0, ""..autotmp_3+71(SP)
	0x009c 00156 (/usr/local/go/test/codegen/mapaccess.go:246)	MOVB	$0, ""..autotmp_4+70(SP)
	0x00a1 00161 (/usr/local/go/test/codegen/mapaccess.go:246)	LEAQ	type.map[int8][]int8(SB), AX
	0x00a8 00168 (/usr/local/go/test/codegen/mapaccess.go:246)	MOVQ	AX, (SP)
	0x00ac 00172 (/usr/local/go/test/codegen/mapaccess.go:246)	LEAQ	""..autotmp_8+152(SP), CX
	0x00b4 00180 (/usr/local/go/test/codegen/mapaccess.go:246)	MOVQ	CX, 8(SP)
	0x00b9 00185 (/usr/local/go/test/codegen/mapaccess.go:246)	LEAQ	""..autotmp_4+70(SP), DX
	0x00be 00190 (/usr/local/go/test/codegen/mapaccess.go:246)	MOVQ	DX, 16(SP)
	0x00c3 00195 (/usr/local/go/test/codegen/mapaccess.go:246)	CALL	runtime.mapaccess1(SB)
	0x00c8 00200 (/usr/local/go/test/codegen/mapaccess.go:246)	MOVQ	24(SP), AX
	0x00cd 00205 (/usr/local/go/test/codegen/mapaccess.go:246)	MOVQ	8(AX), CX
	0x00d1 00209 (/usr/local/go/test/codegen/mapaccess.go:246)	LEAQ	1(CX), DX
	0x00d5 00213 (/usr/local/go/test/codegen/mapaccess.go:246)	MOVQ	16(AX), BX
	0x00d9 00217 (/usr/local/go/test/codegen/mapaccess.go:246)	MOVQ	(AX), AX
	0x00dc 00220 (/usr/local/go/test/codegen/mapaccess.go:246)	NOP
	0x00e0 00224 (/usr/local/go/test/codegen/mapaccess.go:246)	CMPQ	DX, BX
	0x00e3 00227 (/usr/local/go/test/codegen/mapaccess.go:246)	JHI	1847
	0x00e9 00233 (/usr/local/go/test/codegen/mapaccess.go:246)	MOVQ	AX, ""..autotmp_33+144(SP)
	0x00f1 00241 (/usr/local/go/test/codegen/mapaccess.go:246)	MOVQ	DX, ""..autotmp_34+80(SP)
	0x00f6 00246 (/usr/local/go/test/codegen/mapaccess.go:246)	MOVQ	BX, ""..autotmp_35+72(SP)
	0x00fb 00251 (/usr/local/go/test/codegen/mapaccess.go:246)	MOVB	$1, (AX)(CX*1)
	0x00ff 00255 (/usr/local/go/test/codegen/mapaccess.go:246)	LEAQ	type.map[int8][]int8(SB), CX
	0x0106 00262 (/usr/local/go/test/codegen/mapaccess.go:246)	MOVQ	CX, (SP)
	0x010a 00266 (/usr/local/go/test/codegen/mapaccess.go:246)	LEAQ	""..autotmp_8+152(SP), SI
	0x0112 00274 (/usr/local/go/test/codegen/mapaccess.go:246)	MOVQ	SI, 8(SP)
	0x0117 00279 (/usr/local/go/test/codegen/mapaccess.go:246)	LEAQ	""..autotmp_3+71(SP), DI
	0x011c 00284 (/usr/local/go/test/codegen/mapaccess.go:246)	MOVQ	DI, 16(SP)
	0x0121 00289 (/usr/local/go/test/codegen/mapaccess.go:246)	PCDATA	$1, $2
	0x0121 00289 (/usr/local/go/test/codegen/mapaccess.go:246)	CALL	runtime.mapassign(SB)
	0x0126 00294 (/usr/local/go/test/codegen/mapaccess.go:246)	MOVQ	24(SP), DI
	0x012b 00299 (/usr/local/go/test/codegen/mapaccess.go:246)	MOVQ	""..autotmp_34+80(SP), AX
	0x0130 00304 (/usr/local/go/test/codegen/mapaccess.go:246)	MOVQ	AX, 8(DI)
	0x0134 00308 (/usr/local/go/test/codegen/mapaccess.go:246)	MOVQ	""..autotmp_35+72(SP), AX
	0x0139 00313 (/usr/local/go/test/codegen/mapaccess.go:246)	MOVQ	AX, 16(DI)
	0x013d 00317 (/usr/local/go/test/codegen/mapaccess.go:246)	PCDATA	$0, $-2
	0x013d 00317 (/usr/local/go/test/codegen/mapaccess.go:246)	CMPL	runtime.writeBarrier(SB), $0
	0x0144 00324 (/usr/local/go/test/codegen/mapaccess.go:246)	JNE	1829
	0x014a 00330 (/usr/local/go/test/codegen/mapaccess.go:246)	MOVQ	""..autotmp_33+144(SP), AX
	0x0152 00338 (/usr/local/go/test/codegen/mapaccess.go:246)	MOVQ	AX, (DI)
	0x0155 00341 (/usr/local/go/test/codegen/mapaccess.go:252)	PCDATA	$0, $-1
	0x0155 00341 (/usr/local/go/test/codegen/mapaccess.go:252)	MOVB	$0, ""..autotmp_3+71(SP)
	0x015a 00346 (/usr/local/go/test/codegen/mapaccess.go:252)	MOVB	$0, ""..autotmp_4+70(SP)
	0x015f 00351 (/usr/local/go/test/codegen/mapaccess.go:252)	LEAQ	type.map[int8][]int8(SB), AX
	0x0166 00358 (/usr/local/go/test/codegen/mapaccess.go:252)	MOVQ	AX, (SP)
	0x016a 00362 (/usr/local/go/test/codegen/mapaccess.go:252)	LEAQ	""..autotmp_8+152(SP), CX
	0x0172 00370 (/usr/local/go/test/codegen/mapaccess.go:252)	MOVQ	CX, 8(SP)
	0x0177 00375 (/usr/local/go/test/codegen/mapaccess.go:252)	LEAQ	""..autotmp_4+70(SP), DX
	0x017c 00380 (/usr/local/go/test/codegen/mapaccess.go:252)	MOVQ	DX, 16(SP)
	0x0181 00385 (/usr/local/go/test/codegen/mapaccess.go:252)	PCDATA	$1, $1
	0x0181 00385 (/usr/local/go/test/codegen/mapaccess.go:252)	CALL	runtime.mapaccess1(SB)
	0x0186 00390 (/usr/local/go/test/codegen/mapaccess.go:252)	MOVQ	24(SP), AX
	0x018b 00395 (/usr/local/go/test/codegen/mapaccess.go:252)	MOVQ	8(AX), CX
	0x018f 00399 (/usr/local/go/test/codegen/mapaccess.go:252)	LEAQ	3(CX), DX
	0x0193 00403 (/usr/local/go/test/codegen/mapaccess.go:252)	MOVQ	16(AX), BX
	0x0197 00407 (/usr/local/go/test/codegen/mapaccess.go:252)	MOVQ	(AX), AX
	0x019a 00410 (/usr/local/go/test/codegen/mapaccess.go:252)	NOP
	0x01a0 00416 (/usr/local/go/test/codegen/mapaccess.go:252)	CMPQ	DX, BX
	0x01a3 00419 (/usr/local/go/test/codegen/mapaccess.go:252)	JHI	1751
	0x01a9 00425 (/usr/local/go/test/codegen/mapaccess.go:252)	MOVQ	AX, ""..autotmp_36+136(SP)
	0x01b1 00433 (/usr/local/go/test/codegen/mapaccess.go:252)	MOVQ	DX, ""..autotmp_34+80(SP)
	0x01b6 00438 (/usr/local/go/test/codegen/mapaccess.go:252)	MOVQ	BX, ""..autotmp_35+72(SP)
	0x01bb 00443 (/usr/local/go/test/codegen/mapaccess.go:252)	MOVB	$1, (AX)(CX*1)
	0x01bf 00447 (/usr/local/go/test/codegen/mapaccess.go:252)	MOVB	$2, 1(AX)(CX*1)
	0x01c4 00452 (/usr/local/go/test/codegen/mapaccess.go:252)	MOVB	$3, 2(AX)(CX*1)
	0x01c9 00457 (/usr/local/go/test/codegen/mapaccess.go:252)	LEAQ	type.map[int8][]int8(SB), CX
	0x01d0 00464 (/usr/local/go/test/codegen/mapaccess.go:252)	MOVQ	CX, (SP)
	0x01d4 00468 (/usr/local/go/test/codegen/mapaccess.go:252)	LEAQ	""..autotmp_8+152(SP), SI
	0x01dc 00476 (/usr/local/go/test/codegen/mapaccess.go:252)	MOVQ	SI, 8(SP)
	0x01e1 00481 (/usr/local/go/test/codegen/mapaccess.go:252)	LEAQ	""..autotmp_3+71(SP), DI
	0x01e6 00486 (/usr/local/go/test/codegen/mapaccess.go:252)	MOVQ	DI, 16(SP)
	0x01eb 00491 (/usr/local/go/test/codegen/mapaccess.go:252)	PCDATA	$1, $3
	0x01eb 00491 (/usr/local/go/test/codegen/mapaccess.go:252)	CALL	runtime.mapassign(SB)
	0x01f0 00496 (/usr/local/go/test/codegen/mapaccess.go:252)	MOVQ	24(SP), DI
	0x01f5 00501 (/usr/local/go/test/codegen/mapaccess.go:252)	MOVQ	""..autotmp_34+80(SP), AX
	0x01fa 00506 (/usr/local/go/test/codegen/mapaccess.go:252)	MOVQ	AX, 8(DI)
	0x01fe 00510 (/usr/local/go/test/codegen/mapaccess.go:252)	MOVQ	""..autotmp_35+72(SP), AX
	0x0203 00515 (/usr/local/go/test/codegen/mapaccess.go:252)	MOVQ	AX, 16(DI)
	0x0207 00519 (/usr/local/go/test/codegen/mapaccess.go:252)	PCDATA	$0, $-2
	0x0207 00519 (/usr/local/go/test/codegen/mapaccess.go:252)	CMPL	runtime.writeBarrier(SB), $0
	0x020e 00526 (/usr/local/go/test/codegen/mapaccess.go:252)	JNE	1733
	0x0214 00532 (/usr/local/go/test/codegen/mapaccess.go:252)	MOVQ	""..autotmp_36+136(SP), AX
	0x021c 00540 (/usr/local/go/test/codegen/mapaccess.go:252)	MOVQ	AX, (DI)
	0x021f 00543 (/usr/local/go/test/codegen/mapaccess.go:254)	PCDATA	$0, $-1
	0x021f 00543 (/usr/local/go/test/codegen/mapaccess.go:254)	LEAQ	type.[4]int8(SB), AX
	0x0226 00550 (/usr/local/go/test/codegen/mapaccess.go:254)	MOVQ	AX, (SP)
	0x022a 00554 (/usr/local/go/test/codegen/mapaccess.go:254)	PCDATA	$1, $1
	0x022a 00554 (/usr/local/go/test/codegen/mapaccess.go:254)	CALL	runtime.newobject(SB)
	0x022f 00559 (/usr/local/go/test/codegen/mapaccess.go:254)	MOVQ	8(SP), AX
	0x0234 00564 (/usr/local/go/test/codegen/mapaccess.go:254)	MOVQ	AX, ""..autotmp_37+128(SP)
	0x023c 00572 (/usr/local/go/test/codegen/mapaccess.go:254)	MOVL	$591879, (AX)
	0x0242 00578 (/usr/local/go/test/codegen/mapaccess.go:260)	MOVB	$0, ""..autotmp_3+71(SP)
	0x0247 00583 (/usr/local/go/test/codegen/mapaccess.go:260)	MOVB	$0, ""..autotmp_4+70(SP)
	0x024c 00588 (/usr/local/go/test/codegen/mapaccess.go:260)	LEAQ	type.map[int8][]int8(SB), CX
	0x0253 00595 (/usr/local/go/test/codegen/mapaccess.go:260)	MOVQ	CX, (SP)
	0x0257 00599 (/usr/local/go/test/codegen/mapaccess.go:260)	LEAQ	""..autotmp_8+152(SP), DX
	0x025f 00607 (/usr/local/go/test/codegen/mapaccess.go:260)	MOVQ	DX, 8(SP)
	0x0264 00612 (/usr/local/go/test/codegen/mapaccess.go:260)	LEAQ	""..autotmp_4+70(SP), BX
	0x0269 00617 (/usr/local/go/test/codegen/mapaccess.go:260)	MOVQ	BX, 16(SP)
	0x026e 00622 (/usr/local/go/test/codegen/mapaccess.go:260)	PCDATA	$1, $4
	0x026e 00622 (/usr/local/go/test/codegen/mapaccess.go:260)	CALL	runtime.mapaccess1(SB)
	0x0273 00627 (/usr/local/go/test/codegen/mapaccess.go:260)	MOVQ	24(SP), AX
	0x0278 00632 (/usr/local/go/test/codegen/mapaccess.go:260)	MOVQ	8(AX), CX
	0x027c 00636 (/usr/local/go/test/codegen/mapaccess.go:260)	LEAQ	4(CX), DX
	0x0280 00640 (/usr/local/go/test/codegen/mapaccess.go:260)	MOVQ	DX, ""..autotmp_34+80(SP)
	0x0285 00645 (/usr/local/go/test/codegen/mapaccess.go:260)	MOVQ	16(AX), BX
	0x0289 00649 (/usr/local/go/test/codegen/mapaccess.go:260)	MOVQ	(AX), AX
	0x028c 00652 (/usr/local/go/test/codegen/mapaccess.go:260)	CMPQ	BX, DX
	0x028f 00655 (/usr/local/go/test/codegen/mapaccess.go:260)	JCS	1669
	0x0295 00661 (/usr/local/go/test/codegen/mapaccess.go:260)	MOVQ	AX, ""..autotmp_38+120(SP)
	0x029a 00666 (/usr/local/go/test/codegen/mapaccess.go:260)	MOVQ	BX, ""..autotmp_35+72(SP)
	0x029f 00671 (/usr/local/go/test/codegen/mapaccess.go:260)	MOVQ	""..autotmp_37+128(SP), DX
	0x02a7 00679 (/usr/local/go/test/codegen/mapaccess.go:260)	MOVL	(DX), SI
	0x02a9 00681 (/usr/local/go/test/codegen/mapaccess.go:260)	MOVL	SI, (AX)(CX*1)
	0x02ac 00684 (/usr/local/go/test/codegen/mapaccess.go:260)	LEAQ	type.map[int8][]int8(SB), CX
	0x02b3 00691 (/usr/local/go/test/codegen/mapaccess.go:260)	MOVQ	CX, (SP)
	0x02b7 00695 (/usr/local/go/test/codegen/mapaccess.go:260)	LEAQ	""..autotmp_8+152(SP), SI
	0x02bf 00703 (/usr/local/go/test/codegen/mapaccess.go:260)	MOVQ	SI, 8(SP)
	0x02c4 00708 (/usr/local/go/test/codegen/mapaccess.go:260)	LEAQ	""..autotmp_3+71(SP), DI
	0x02c9 00713 (/usr/local/go/test/codegen/mapaccess.go:260)	MOVQ	DI, 16(SP)
	0x02ce 00718 (/usr/local/go/test/codegen/mapaccess.go:260)	PCDATA	$1, $5
	0x02ce 00718 (/usr/local/go/test/codegen/mapaccess.go:260)	CALL	runtime.mapassign(SB)
	0x02d3 00723 (/usr/local/go/test/codegen/mapaccess.go:260)	MOVQ	24(SP), DI
	0x02d8 00728 (/usr/local/go/test/codegen/mapaccess.go:260)	MOVQ	""..autotmp_34+80(SP), AX
	0x02dd 00733 (/usr/local/go/test/codegen/mapaccess.go:260)	MOVQ	AX, 8(DI)
	0x02e1 00737 (/usr/local/go/test/codegen/mapaccess.go:260)	MOVQ	""..autotmp_35+72(SP), AX
	0x02e6 00742 (/usr/local/go/test/codegen/mapaccess.go:260)	MOVQ	AX, 16(DI)
	0x02ea 00746 (/usr/local/go/test/codegen/mapaccess.go:260)	PCDATA	$0, $-2
	0x02ea 00746 (/usr/local/go/test/codegen/mapaccess.go:260)	CMPL	runtime.writeBarrier(SB), $0
	0x02f1 00753 (/usr/local/go/test/codegen/mapaccess.go:260)	JNE	1649
	0x02f7 00759 (/usr/local/go/test/codegen/mapaccess.go:260)	MOVQ	""..autotmp_38+120(SP), AX
	0x02fc 00764 (/usr/local/go/test/codegen/mapaccess.go:260)	MOVQ	AX, (DI)
	0x02ff 00767 (/usr/local/go/test/codegen/mapaccess.go:268)	PCDATA	$0, $-1
	0x02ff 00767 (/usr/local/go/test/codegen/mapaccess.go:268)	MOVB	$0, ""..autotmp_3+71(SP)
	0x0304 00772 (/usr/local/go/test/codegen/mapaccess.go:268)	MOVB	$0, ""..autotmp_4+70(SP)
	0x0309 00777 (/usr/local/go/test/codegen/mapaccess.go:268)	LEAQ	type.map[int8][]int8(SB), AX
	0x0310 00784 (/usr/local/go/test/codegen/mapaccess.go:268)	MOVQ	AX, (SP)
	0x0314 00788 (/usr/local/go/test/codegen/mapaccess.go:268)	LEAQ	""..autotmp_8+152(SP), CX
	0x031c 00796 (/usr/local/go/test/codegen/mapaccess.go:268)	MOVQ	CX, 8(SP)
	0x0321 00801 (/usr/local/go/test/codegen/mapaccess.go:268)	LEAQ	""..autotmp_4+70(SP), DX
	0x0326 00806 (/usr/local/go/test/codegen/mapaccess.go:268)	MOVQ	DX, 16(SP)
	0x032b 00811 (/usr/local/go/test/codegen/mapaccess.go:268)	PCDATA	$1, $4
	0x032b 00811 (/usr/local/go/test/codegen/mapaccess.go:268)	CALL	runtime.mapaccess1(SB)
	0x0330 00816 (/usr/local/go/test/codegen/mapaccess.go:268)	MOVQ	24(SP), AX
	0x0335 00821 (/usr/local/go/test/codegen/mapaccess.go:268)	MOVQ	8(AX), CX
	0x0339 00825 (/usr/local/go/test/codegen/mapaccess.go:268)	LEAQ	4(CX), DX
	0x033d 00829 (/usr/local/go/test/codegen/mapaccess.go:268)	MOVQ	DX, ""..autotmp_34+80(SP)
	0x0342 00834 (/usr/local/go/test/codegen/mapaccess.go:268)	MOVQ	(AX), AX
	0x0345 00837 (/usr/local/go/test/codegen/mapaccess.go:268)	CMPQ	DX, $4
	0x0349 00841 (/usr/local/go/test/codegen/mapaccess.go:268)	JHI	1562
	0x034f 00847 (/usr/local/go/test/codegen/mapaccess.go:268)	MOVQ	""..autotmp_37+128(SP), BX
	0x0357 00855 (/usr/local/go/test/codegen/mapaccess.go:268)	MOVL	$4, SI
	0x035c 00860 (/usr/local/go/test/codegen/mapaccess.go:268)	MOVQ	SI, ""..autotmp_35+72(SP)
	0x0361 00865 (/usr/local/go/test/codegen/mapaccess.go:268)	MOVQ	BX, ""..autotmp_39+112(SP)
	0x0366 00870 (/usr/local/go/test/codegen/mapaccess.go:268)	LEAQ	4(BX), DX
	0x036a 00874 (/usr/local/go/test/codegen/mapaccess.go:268)	MOVQ	DX, (SP)
	0x036e 00878 (/usr/local/go/test/codegen/mapaccess.go:268)	MOVQ	AX, 8(SP)
	0x0373 00883 (/usr/local/go/test/codegen/mapaccess.go:268)	MOVQ	CX, 16(SP)
	0x0378 00888 (/usr/local/go/test/codegen/mapaccess.go:268)	PCDATA	$1, $6
	0x0378 00888 (/usr/local/go/test/codegen/mapaccess.go:268)	CALL	runtime.memmove(SB)
	0x037d 00893 (/usr/local/go/test/codegen/mapaccess.go:268)	LEAQ	type.map[int8][]int8(SB), AX
	0x0384 00900 (/usr/local/go/test/codegen/mapaccess.go:268)	MOVQ	AX, (SP)
	0x0388 00904 (/usr/local/go/test/codegen/mapaccess.go:268)	LEAQ	""..autotmp_8+152(SP), CX
	0x0390 00912 (/usr/local/go/test/codegen/mapaccess.go:268)	MOVQ	CX, 8(SP)
	0x0395 00917 (/usr/local/go/test/codegen/mapaccess.go:268)	LEAQ	""..autotmp_3+71(SP), DX
	0x039a 00922 (/usr/local/go/test/codegen/mapaccess.go:268)	MOVQ	DX, 16(SP)
	0x039f 00927 (/usr/local/go/test/codegen/mapaccess.go:268)	NOP
	0x03a0 00928 (/usr/local/go/test/codegen/mapaccess.go:268)	CALL	runtime.mapassign(SB)
	0x03a5 00933 (/usr/local/go/test/codegen/mapaccess.go:268)	MOVQ	24(SP), DI
	0x03aa 00938 (/usr/local/go/test/codegen/mapaccess.go:268)	MOVQ	""..autotmp_34+80(SP), AX
	0x03af 00943 (/usr/local/go/test/codegen/mapaccess.go:268)	MOVQ	AX, 8(DI)
	0x03b3 00947 (/usr/local/go/test/codegen/mapaccess.go:268)	MOVQ	""..autotmp_35+72(SP), AX
	0x03b8 00952 (/usr/local/go/test/codegen/mapaccess.go:268)	MOVQ	AX, 16(DI)
	0x03bc 00956 (/usr/local/go/test/codegen/mapaccess.go:268)	PCDATA	$0, $-2
	0x03bc 00956 (/usr/local/go/test/codegen/mapaccess.go:268)	CMPL	runtime.writeBarrier(SB), $0
	0x03c3 00963 (/usr/local/go/test/codegen/mapaccess.go:268)	JNE	1547
	0x03c9 00969 (/usr/local/go/test/codegen/mapaccess.go:268)	MOVQ	""..autotmp_39+112(SP), AX
	0x03ce 00974 (/usr/local/go/test/codegen/mapaccess.go:268)	MOVQ	AX, (DI)
	0x03d1 00977 (/usr/local/go/test/codegen/mapaccess.go:274)	PCDATA	$0, $-1
	0x03d1 00977 (/usr/local/go/test/codegen/mapaccess.go:274)	MOVB	$0, ""..autotmp_3+71(SP)
	0x03d6 00982 (/usr/local/go/test/codegen/mapaccess.go:274)	MOVB	$0, ""..autotmp_4+70(SP)
	0x03db 00987 (/usr/local/go/test/codegen/mapaccess.go:274)	LEAQ	type.map[int8][]int8(SB), AX
	0x03e2 00994 (/usr/local/go/test/codegen/mapaccess.go:274)	MOVQ	AX, (SP)
	0x03e6 00998 (/usr/local/go/test/codegen/mapaccess.go:274)	LEAQ	""..autotmp_8+152(SP), CX
	0x03ee 01006 (/usr/local/go/test/codegen/mapaccess.go:274)	MOVQ	CX, 8(SP)
	0x03f3 01011 (/usr/local/go/test/codegen/mapaccess.go:274)	LEAQ	""..autotmp_4+70(SP), DX
	0x03f8 01016 (/usr/local/go/test/codegen/mapaccess.go:274)	MOVQ	DX, 16(SP)
	0x03fd 01021 (/usr/local/go/test/codegen/mapaccess.go:274)	PCDATA	$1, $1
	0x03fd 01021 (/usr/local/go/test/codegen/mapaccess.go:274)	NOP
	0x0400 01024 (/usr/local/go/test/codegen/mapaccess.go:274)	CALL	runtime.mapaccess1(SB)
	0x0405 01029 (/usr/local/go/test/codegen/mapaccess.go:274)	MOVQ	24(SP), AX
	0x040a 01034 (/usr/local/go/test/codegen/mapaccess.go:274)	MOVQ	8(AX), CX
	0x040e 01038 (/usr/local/go/test/codegen/mapaccess.go:274)	LEAQ	1(CX), DX
	0x0412 01042 (/usr/local/go/test/codegen/mapaccess.go:274)	MOVQ	16(AX), BX
	0x0416 01046 (/usr/local/go/test/codegen/mapaccess.go:274)	MOVQ	(AX), AX
	0x0419 01049 (/usr/local/go/test/codegen/mapaccess.go:274)	NOP
	0x0420 01056 (/usr/local/go/test/codegen/mapaccess.go:274)	CMPQ	BX, DX
	0x0423 01059 (/usr/local/go/test/codegen/mapaccess.go:274)	JCS	1477
	0x0429 01065 (/usr/local/go/test/codegen/mapaccess.go:274)	MOVQ	AX, ""..autotmp_40+104(SP)
	0x042e 01070 (/usr/local/go/test/codegen/mapaccess.go:274)	MOVQ	DX, ""..autotmp_34+80(SP)
	0x0433 01075 (/usr/local/go/test/codegen/mapaccess.go:274)	MOVQ	BX, ""..autotmp_35+72(SP)
	0x0438 01080 (/usr/local/go/test/codegen/mapaccess.go:274)	MOVB	$99, (AX)(CX*1)
	0x043c 01084 (/usr/local/go/test/codegen/mapaccess.go:274)	MOVBLZX	"".sinkAppend(SB), CX
	0x0443 01091 (/usr/local/go/test/codegen/mapaccess.go:274)	XORL	$1, CX
	0x0446 01094 (/usr/local/go/test/codegen/mapaccess.go:274)	MOVB	CL, "".sinkAppend(SB)
	0x044c 01100 (/usr/local/go/test/codegen/mapaccess.go:274)	LEAQ	type.map[int8][]int8(SB), CX
	0x0453 01107 (/usr/local/go/test/codegen/mapaccess.go:274)	MOVQ	CX, (SP)
	0x0457 01111 (/usr/local/go/test/codegen/mapaccess.go:274)	LEAQ	""..autotmp_8+152(SP), SI
	0x045f 01119 (/usr/local/go/test/codegen/mapaccess.go:274)	MOVQ	SI, 8(SP)
	0x0464 01124 (/usr/local/go/test/codegen/mapaccess.go:274)	LEAQ	""..autotmp_3+71(SP), DI
	0x0469 01129 (/usr/local/go/test/codegen/mapaccess.go:274)	MOVQ	DI, 16(SP)
	0x046e 01134 (/usr/local/go/test/codegen/mapaccess.go:274)	PCDATA	$1, $7
	0x046e 01134 (/usr/local/go/test/codegen/mapaccess.go:274)	CALL	runtime.mapassign(SB)
	0x0473 01139 (/usr/local/go/test/codegen/mapaccess.go:274)	MOVQ	24(SP), DI
	0x0478 01144 (/usr/local/go/test/codegen/mapaccess.go:274)	MOVQ	""..autotmp_34+80(SP), AX
	0x047d 01149 (/usr/local/go/test/codegen/mapaccess.go:274)	MOVQ	AX, 8(DI)
	0x0481 01153 (/usr/local/go/test/codegen/mapaccess.go:274)	MOVQ	""..autotmp_35+72(SP), AX
	0x0486 01158 (/usr/local/go/test/codegen/mapaccess.go:274)	MOVQ	AX, 16(DI)
	0x048a 01162 (/usr/local/go/test/codegen/mapaccess.go:274)	PCDATA	$0, $-2
	0x048a 01162 (/usr/local/go/test/codegen/mapaccess.go:274)	CMPL	runtime.writeBarrier(SB), $0
	0x0491 01169 (/usr/local/go/test/codegen/mapaccess.go:274)	JNE	1457
	0x0497 01175 (/usr/local/go/test/codegen/mapaccess.go:274)	MOVQ	""..autotmp_40+104(SP), AX
	0x049c 01180 (/usr/local/go/test/codegen/mapaccess.go:274)	MOVQ	AX, (DI)
	0x049f 01183 (/usr/local/go/test/codegen/mapaccess.go:280)	PCDATA	$0, $-1
	0x049f 01183 (/usr/local/go/test/codegen/mapaccess.go:280)	MOVB	$0, ""..autotmp_3+71(SP)
	0x04a4 01188 (/usr/local/go/test/codegen/mapaccess.go:280)	MOVB	$1, ""..autotmp_4+70(SP)
	0x04a9 01193 (/usr/local/go/test/codegen/mapaccess.go:280)	LEAQ	type.map[int8][]int8(SB), AX
	0x04b0 01200 (/usr/local/go/test/codegen/mapaccess.go:280)	MOVQ	AX, (SP)
	0x04b4 01204 (/usr/local/go/test/codegen/mapaccess.go:280)	LEAQ	""..autotmp_8+152(SP), CX
	0x04bc 01212 (/usr/local/go/test/codegen/mapaccess.go:280)	MOVQ	CX, 8(SP)
	0x04c1 01217 (/usr/local/go/test/codegen/mapaccess.go:280)	LEAQ	""..autotmp_4+70(SP), DX
	0x04c6 01222 (/usr/local/go/test/codegen/mapaccess.go:280)	MOVQ	DX, 16(SP)
	0x04cb 01227 (/usr/local/go/test/codegen/mapaccess.go:280)	PCDATA	$1, $1
	0x04cb 01227 (/usr/local/go/test/codegen/mapaccess.go:280)	CALL	runtime.mapaccess1(SB)
	0x04d0 01232 (/usr/local/go/test/codegen/mapaccess.go:280)	MOVQ	24(SP), AX
	0x04d5 01237 (/usr/local/go/test/codegen/mapaccess.go:280)	MOVQ	8(AX), CX
	0x04d9 01241 (/usr/local/go/test/codegen/mapaccess.go:280)	LEAQ	1(CX), DX
	0x04dd 01245 (/usr/local/go/test/codegen/mapaccess.go:280)	MOVQ	16(AX), BX
	0x04e1 01249 (/usr/local/go/test/codegen/mapaccess.go:280)	MOVQ	(AX), AX
	0x04e4 01252 (/usr/local/go/test/codegen/mapaccess.go:280)	CMPQ	DX, BX
	0x04e7 01255 (/usr/local/go/test/codegen/mapaccess.go:280)	JHI	1387
	0x04ed 01261 (/usr/local/go/test/codegen/mapaccess.go:280)	MOVQ	AX, ""..autotmp_41+96(SP)
	0x04f2 01266 (/usr/local/go/test/codegen/mapaccess.go:280)	MOVQ	DX, ""..autotmp_34+80(SP)
	0x04f7 01271 (/usr/local/go/test/codegen/mapaccess.go:280)	MOVQ	BX, ""..autotmp_35+72(SP)
	0x04fc 01276 (/usr/local/go/test/codegen/mapaccess.go:280)	MOVB	$100, (AX)(CX*1)
	0x0500 01280 (/usr/local/go/test/codegen/mapaccess.go:280)	LEAQ	type.map[int8][]int8(SB), CX
	0x0507 01287 (/usr/local/go/test/codegen/mapaccess.go:280)	MOVQ	CX, (SP)
	0x050b 01291 (/usr/local/go/test/codegen/mapaccess.go:280)	LEAQ	""..autotmp_8+152(SP), CX
	0x0513 01299 (/usr/local/go/test/codegen/mapaccess.go:280)	MOVQ	CX, 8(SP)
	0x0518 01304 (/usr/local/go/test/codegen/mapaccess.go:280)	LEAQ	""..autotmp_3+71(SP), CX
	0x051d 01309 (/usr/local/go/test/codegen/mapaccess.go:280)	MOVQ	CX, 16(SP)
	0x0522 01314 (/usr/local/go/test/codegen/mapaccess.go:280)	PCDATA	$1, $8
	0x0522 01314 (/usr/local/go/test/codegen/mapaccess.go:280)	CALL	runtime.mapassign(SB)
	0x0527 01319 (/usr/local/go/test/codegen/mapaccess.go:280)	MOVQ	24(SP), DI
	0x052c 01324 (/usr/local/go/test/codegen/mapaccess.go:280)	MOVQ	""..autotmp_34+80(SP), AX
	0x0531 01329 (/usr/local/go/test/codegen/mapaccess.go:280)	MOVQ	AX, 8(DI)
	0x0535 01333 (/usr/local/go/test/codegen/mapaccess.go:280)	MOVQ	""..autotmp_35+72(SP), AX
	0x053a 01338 (/usr/local/go/test/codegen/mapaccess.go:280)	MOVQ	AX, 16(DI)
	0x053e 01342 (/usr/local/go/test/codegen/mapaccess.go:280)	PCDATA	$0, $-2
	0x053e 01342 (/usr/local/go/test/codegen/mapaccess.go:280)	CMPL	runtime.writeBarrier(SB), $0
	0x0545 01349 (/usr/local/go/test/codegen/mapaccess.go:280)	JNE	1375
	0x0547 01351 (/usr/local/go/test/codegen/mapaccess.go:280)	MOVQ	""..autotmp_41+96(SP), AX
	0x054c 01356 (/usr/local/go/test/codegen/mapaccess.go:280)	MOVQ	AX, (DI)
	0x054f 01359 (/usr/local/go/test/codegen/mapaccess.go:281)	PCDATA	$0, $-1
	0x054f 01359 (/usr/local/go/test/codegen/mapaccess.go:281)	PCDATA	$1, $-1
	0x054f 01359 (/usr/local/go/test/codegen/mapaccess.go:281)	MOVQ	416(SP), BP
	0x0557 01367 (/usr/local/go/test/codegen/mapaccess.go:281)	ADDQ	$424, SP
	0x055e 01374 (/usr/local/go/test/codegen/mapaccess.go:281)	RET
	0x055f 01375 (/usr/local/go/test/codegen/mapaccess.go:280)	PCDATA	$0, $-2
	0x055f 01375 (/usr/local/go/test/codegen/mapaccess.go:280)	MOVQ	""..autotmp_41+96(SP), AX
	0x0564 01380 (/usr/local/go/test/codegen/mapaccess.go:280)	CALL	runtime.gcWriteBarrier(SB)
	0x0569 01385 (/usr/local/go/test/codegen/mapaccess.go:280)	JMP	1359
	0x056b 01387 (/usr/local/go/test/codegen/mapaccess.go:280)	PCDATA	$0, $-1
	0x056b 01387 (/usr/local/go/test/codegen/mapaccess.go:280)	MOVQ	CX, ""..autotmp_34+80(SP)
	0x0570 01392 (/usr/local/go/test/codegen/mapaccess.go:280)	LEAQ	type.int8(SB), SI
	0x0577 01399 (/usr/local/go/test/codegen/mapaccess.go:280)	MOVQ	SI, (SP)
	0x057b 01403 (/usr/local/go/test/codegen/mapaccess.go:280)	MOVQ	AX, 8(SP)
	0x0580 01408 (/usr/local/go/test/codegen/mapaccess.go:280)	MOVQ	CX, 16(SP)
	0x0585 01413 (/usr/local/go/test/codegen/mapaccess.go:280)	MOVQ	BX, 24(SP)
	0x058a 01418 (/usr/local/go/test/codegen/mapaccess.go:280)	MOVQ	DX, 32(SP)
	0x058f 01423 (/usr/local/go/test/codegen/mapaccess.go:280)	PCDATA	$1, $1
	0x058f 01423 (/usr/local/go/test/codegen/mapaccess.go:280)	CALL	runtime.growslice(SB)
	0x0594 01428 (/usr/local/go/test/codegen/mapaccess.go:280)	MOVQ	40(SP), AX
	0x0599 01433 (/usr/local/go/test/codegen/mapaccess.go:280)	MOVQ	48(SP), CX
	0x059e 01438 (/usr/local/go/test/codegen/mapaccess.go:280)	MOVQ	56(SP), BX
	0x05a3 01443 (/usr/local/go/test/codegen/mapaccess.go:280)	LEAQ	1(CX), DX
	0x05a7 01447 (/usr/local/go/test/codegen/mapaccess.go:280)	MOVQ	""..autotmp_34+80(SP), CX
	0x05ac 01452 (/usr/local/go/test/codegen/mapaccess.go:280)	JMP	1261
	0x05b1 01457 (/usr/local/go/test/codegen/mapaccess.go:274)	PCDATA	$0, $-2
	0x05b1 01457 (/usr/local/go/test/codegen/mapaccess.go:274)	MOVQ	""..autotmp_40+104(SP), AX
	0x05b6 01462 (/usr/local/go/test/codegen/mapaccess.go:274)	CALL	runtime.gcWriteBarrier(SB)
	0x05bb 01467 (/usr/local/go/test/codegen/mapaccess.go:274)	NOP
	0x05c0 01472 (/usr/local/go/test/codegen/mapaccess.go:274)	JMP	1183
	0x05c5 01477 (/usr/local/go/test/codegen/mapaccess.go:274)	PCDATA	$0, $-1
	0x05c5 01477 (/usr/local/go/test/codegen/mapaccess.go:274)	MOVQ	CX, ""..autotmp_34+80(SP)
	0x05ca 01482 (/usr/local/go/test/codegen/mapaccess.go:274)	LEAQ	type.int8(SB), SI
	0x05d1 01489 (/usr/local/go/test/codegen/mapaccess.go:274)	MOVQ	SI, (SP)
	0x05d5 01493 (/usr/local/go/test/codegen/mapaccess.go:274)	MOVQ	AX, 8(SP)
	0x05da 01498 (/usr/local/go/test/codegen/mapaccess.go:274)	MOVQ	CX, 16(SP)
	0x05df 01503 (/usr/local/go/test/codegen/mapaccess.go:274)	MOVQ	BX, 24(SP)
	0x05e4 01508 (/usr/local/go/test/codegen/mapaccess.go:274)	MOVQ	DX, 32(SP)
	0x05e9 01513 (/usr/local/go/test/codegen/mapaccess.go:274)	CALL	runtime.growslice(SB)
	0x05ee 01518 (/usr/local/go/test/codegen/mapaccess.go:274)	MOVQ	40(SP), AX
	0x05f3 01523 (/usr/local/go/test/codegen/mapaccess.go:274)	MOVQ	48(SP), CX
	0x05f8 01528 (/usr/local/go/test/codegen/mapaccess.go:274)	MOVQ	56(SP), BX
	0x05fd 01533 (/usr/local/go/test/codegen/mapaccess.go:274)	LEAQ	1(CX), DX
	0x0601 01537 (/usr/local/go/test/codegen/mapaccess.go:274)	MOVQ	""..autotmp_34+80(SP), CX
	0x0606 01542 (/usr/local/go/test/codegen/mapaccess.go:274)	JMP	1065
	0x060b 01547 (/usr/local/go/test/codegen/mapaccess.go:268)	PCDATA	$0, $-2
	0x060b 01547 (/usr/local/go/test/codegen/mapaccess.go:268)	MOVQ	""..autotmp_39+112(SP), AX
	0x0610 01552 (/usr/local/go/test/codegen/mapaccess.go:268)	CALL	runtime.gcWriteBarrier(SB)
	0x0615 01557 (/usr/local/go/test/codegen/mapaccess.go:268)	JMP	977
	0x061a 01562 (/usr/local/go/test/codegen/mapaccess.go:268)	PCDATA	$0, $-1
	0x061a 01562 (/usr/local/go/test/codegen/mapaccess.go:268)	MOVQ	AX, ""..autotmp_42+88(SP)
	0x061f 01567 (/usr/local/go/test/codegen/mapaccess.go:268)	MOVQ	CX, ""..autotmp_35+72(SP)
	0x0624 01572 (/usr/local/go/test/codegen/mapaccess.go:268)	LEAQ	type.int8(SB), AX
	0x062b 01579 (/usr/local/go/test/codegen/mapaccess.go:268)	MOVQ	AX, (SP)
	0x062f 01583 (/usr/local/go/test/codegen/mapaccess.go:268)	MOVQ	""..autotmp_37+128(SP), CX
	0x0637 01591 (/usr/local/go/test/codegen/mapaccess.go:268)	MOVQ	CX, 8(SP)
	0x063c 01596 (/usr/local/go/test/codegen/mapaccess.go:268)	MOVQ	$4, 16(SP)
	0x0645 01605 (/usr/local/go/test/codegen/mapaccess.go:268)	MOVQ	$4, 24(SP)
	0x064e 01614 (/usr/local/go/test/codegen/mapaccess.go:268)	MOVQ	DX, 32(SP)
	0x0653 01619 (/usr/local/go/test/codegen/mapaccess.go:268)	PCDATA	$1, $9
	0x0653 01619 (/usr/local/go/test/codegen/mapaccess.go:268)	CALL	runtime.growslice(SB)
	0x0658 01624 (/usr/local/go/test/codegen/mapaccess.go:268)	MOVQ	40(SP), BX
	0x065d 01629 (/usr/local/go/test/codegen/mapaccess.go:268)	MOVQ	56(SP), SI
	0x0662 01634 (/usr/local/go/test/codegen/mapaccess.go:268)	MOVQ	""..autotmp_42+88(SP), AX
	0x0667 01639 (/usr/local/go/test/codegen/mapaccess.go:268)	MOVQ	""..autotmp_35+72(SP), CX
	0x066c 01644 (/usr/local/go/test/codegen/mapaccess.go:268)	JMP	860
	0x0671 01649 (/usr/local/go/test/codegen/mapaccess.go:260)	PCDATA	$0, $-2
	0x0671 01649 (/usr/local/go/test/codegen/mapaccess.go:260)	MOVQ	""..autotmp_38+120(SP), AX
	0x0676 01654 (/usr/local/go/test/codegen/mapaccess.go:260)	CALL	runtime.gcWriteBarrier(SB)
	0x067b 01659 (/usr/local/go/test/codegen/mapaccess.go:260)	NOP
	0x0680 01664 (/usr/local/go/test/codegen/mapaccess.go:260)	JMP	767
	0x0685 01669 (/usr/local/go/test/codegen/mapaccess.go:260)	PCDATA	$0, $-1
	0x0685 01669 (/usr/local/go/test/codegen/mapaccess.go:260)	MOVQ	CX, ""..autotmp_35+72(SP)
	0x068a 01674 (/usr/local/go/test/codegen/mapaccess.go:260)	LEAQ	type.int8(SB), SI
	0x0691 01681 (/usr/local/go/test/codegen/mapaccess.go:260)	MOVQ	SI, (SP)
	0x0695 01685 (/usr/local/go/test/codegen/mapaccess.go:260)	MOVQ	AX, 8(SP)
	0x069a 01690 (/usr/local/go/test/codegen/mapaccess.go:260)	MOVQ	CX, 16(SP)
	0x069f 01695 (/usr/local/go/test/codegen/mapaccess.go:260)	MOVQ	BX, 24(SP)
	0x06a4 01700 (/usr/local/go/test/codegen/mapaccess.go:260)	MOVQ	DX, 32(SP)
	0x06a9 01705 (/usr/local/go/test/codegen/mapaccess.go:260)	PCDATA	$1, $4
	0x06a9 01705 (/usr/local/go/test/codegen/mapaccess.go:260)	CALL	runtime.growslice(SB)
	0x06ae 01710 (/usr/local/go/test/codegen/mapaccess.go:260)	MOVQ	40(SP), AX
	0x06b3 01715 (/usr/local/go/test/codegen/mapaccess.go:260)	MOVQ	56(SP), BX
	0x06b8 01720 (/usr/local/go/test/codegen/mapaccess.go:260)	MOVQ	""..autotmp_35+72(SP), CX
	0x06bd 01725 (/usr/local/go/test/codegen/mapaccess.go:260)	NOP
	0x06c0 01728 (/usr/local/go/test/codegen/mapaccess.go:260)	JMP	661
	0x06c5 01733 (/usr/local/go/test/codegen/mapaccess.go:252)	PCDATA	$0, $-2
	0x06c5 01733 (/usr/local/go/test/codegen/mapaccess.go:252)	MOVQ	""..autotmp_36+136(SP), AX
	0x06cd 01741 (/usr/local/go/test/codegen/mapaccess.go:252)	CALL	runtime.gcWriteBarrier(SB)
	0x06d2 01746 (/usr/local/go/test/codegen/mapaccess.go:252)	JMP	543
	0x06d7 01751 (/usr/local/go/test/codegen/mapaccess.go:252)	PCDATA	$0, $-1
	0x06d7 01751 (/usr/local/go/test/codegen/mapaccess.go:252)	MOVQ	CX, ""..autotmp_34+80(SP)
	0x06dc 01756 (/usr/local/go/test/codegen/mapaccess.go:252)	LEAQ	type.int8(SB), SI
	0x06e3 01763 (/usr/local/go/test/codegen/mapaccess.go:252)	MOVQ	SI, (SP)
	0x06e7 01767 (/usr/local/go/test/codegen/mapaccess.go:252)	MOVQ	AX, 8(SP)
	0x06ec 01772 (/usr/local/go/test/codegen/mapaccess.go:252)	MOVQ	CX, 16(SP)
	0x06f1 01777 (/usr/local/go/test/codegen/mapaccess.go:252)	MOVQ	BX, 24(SP)
	0x06f6 01782 (/usr/local/go/test/codegen/mapaccess.go:252)	MOVQ	DX, 32(SP)
	0x06fb 01787 (/usr/local/go/test/codegen/mapaccess.go:252)	PCDATA	$1, $1
	0x06fb 01787 (/usr/local/go/test/codegen/mapaccess.go:252)	NOP
	0x0700 01792 (/usr/local/go/test/codegen/mapaccess.go:252)	CALL	runtime.growslice(SB)
	0x0705 01797 (/usr/local/go/test/codegen/mapaccess.go:252)	MOVQ	40(SP), AX
	0x070a 01802 (/usr/local/go/test/codegen/mapaccess.go:252)	MOVQ	48(SP), CX
	0x070f 01807 (/usr/local/go/test/codegen/mapaccess.go:252)	MOVQ	56(SP), BX
	0x0714 01812 (/usr/local/go/test/codegen/mapaccess.go:252)	LEAQ	3(CX), DX
	0x0718 01816 (/usr/local/go/test/codegen/mapaccess.go:252)	MOVQ	""..autotmp_34+80(SP), CX
	0x071d 01821 (/usr/local/go/test/codegen/mapaccess.go:252)	NOP
	0x0720 01824 (/usr/local/go/test/codegen/mapaccess.go:252)	JMP	425
	0x0725 01829 (/usr/local/go/test/codegen/mapaccess.go:246)	PCDATA	$0, $-2
	0x0725 01829 (/usr/local/go/test/codegen/mapaccess.go:246)	MOVQ	""..autotmp_33+144(SP), AX
	0x072d 01837 (/usr/local/go/test/codegen/mapaccess.go:246)	CALL	runtime.gcWriteBarrier(SB)
	0x0732 01842 (/usr/local/go/test/codegen/mapaccess.go:246)	JMP	341
	0x0737 01847 (/usr/local/go/test/codegen/mapaccess.go:246)	PCDATA	$0, $-1
	0x0737 01847 (/usr/local/go/test/codegen/mapaccess.go:246)	MOVQ	CX, ""..autotmp_34+80(SP)
	0x073c 01852 (/usr/local/go/test/codegen/mapaccess.go:246)	LEAQ	type.int8(SB), SI
	0x0743 01859 (/usr/local/go/test/codegen/mapaccess.go:246)	MOVQ	SI, (SP)
	0x0747 01863 (/usr/local/go/test/codegen/mapaccess.go:246)	MOVQ	AX, 8(SP)
	0x074c 01868 (/usr/local/go/test/codegen/mapaccess.go:246)	MOVQ	CX, 16(SP)
	0x0751 01873 (/usr/local/go/test/codegen/mapaccess.go:246)	MOVQ	BX, 24(SP)
	0x0756 01878 (/usr/local/go/test/codegen/mapaccess.go:246)	MOVQ	DX, 32(SP)
	0x075b 01883 (/usr/local/go/test/codegen/mapaccess.go:246)	NOP
	0x0760 01888 (/usr/local/go/test/codegen/mapaccess.go:246)	CALL	runtime.growslice(SB)
	0x0765 01893 (/usr/local/go/test/codegen/mapaccess.go:246)	MOVQ	40(SP), AX
	0x076a 01898 (/usr/local/go/test/codegen/mapaccess.go:246)	MOVQ	48(SP), CX
	0x076f 01903 (/usr/local/go/test/codegen/mapaccess.go:246)	MOVQ	56(SP), BX
	0x0774 01908 (/usr/local/go/test/codegen/mapaccess.go:246)	LEAQ	1(CX), DX
	0x0778 01912 (/usr/local/go/test/codegen/mapaccess.go:246)	MOVQ	""..autotmp_34+80(SP), CX
	0x077d 01917 (/usr/local/go/test/codegen/mapaccess.go:246)	NOP
	0x0780 01920 (/usr/local/go/test/codegen/mapaccess.go:246)	JMP	233
	0x0785 01925 (/usr/local/go/test/codegen/mapaccess.go:246)	NOP
	0x0785 01925 (/usr/local/go/test/codegen/mapaccess.go:238)	PCDATA	$1, $-1
	0x0785 01925 (/usr/local/go/test/codegen/mapaccess.go:238)	PCDATA	$0, $-2
	0x0785 01925 (/usr/local/go/test/codegen/mapaccess.go:238)	CALL	runtime.morestack_noctxt(SB)
	0x078a 01930 (/usr/local/go/test/codegen/mapaccess.go:238)	PCDATA	$0, $-1
	0x078a 01930 (/usr/local/go/test/codegen/mapaccess.go:238)	JMP	0
	0x0000 64 48 8b 0c 25 00 00 00 00 48 8d 84 24 d8 fe ff  dH..%....H..$...
	0x0010 ff 48 3b 41 10 0f 86 6a 07 00 00 48 81 ec a8 01  .H;A...j...H....
	0x0020 00 00 48 89 ac 24 a0 01 00 00 48 8d ac 24 a0 01  ..H..$....H..$..
	0x0030 00 00 0f 57 c0 0f 11 84 24 98 00 00 00 0f 11 84  ...W....$.......
	0x0040 24 a8 00 00 00 0f 11 84 24 b8 00 00 00 48 c7 84  $.......$....H..
	0x0050 24 c8 00 00 00 00 00 00 00 48 8d bc 24 d0 00 00  $........H..$...
	0x0060 00 48 8d 7f d0 48 89 6c 24 f0 48 8d 6c 24 f0 e8  .H...H.l$.H.l$..
	0x0070 00 00 00 00 48 8b 6d 00 48 8d 84 24 c8 00 00 00  ....H.m.H..$....
	0x0080 48 89 84 24 a8 00 00 00 e8 00 00 00 00 8b 04 24  H..$...........$
	0x0090 89 84 24 a4 00 00 00 c6 44 24 47 00 c6 44 24 46  ..$.....D$G..D$F
	0x00a0 00 48 8d 05 00 00 00 00 48 89 04 24 48 8d 8c 24  .H......H..$H..$
	0x00b0 98 00 00 00 48 89 4c 24 08 48 8d 54 24 46 48 89  ....H.L$.H.T$FH.
	0x00c0 54 24 10 e8 00 00 00 00 48 8b 44 24 18 48 8b 48  T$......H.D$.H.H
	0x00d0 08 48 8d 51 01 48 8b 58 10 48 8b 00 0f 1f 40 00  .H.Q.H.X.H....@.
	0x00e0 48 39 da 0f 87 4e 06 00 00 48 89 84 24 90 00 00  H9...N...H..$...
	0x00f0 00 48 89 54 24 50 48 89 5c 24 48 c6 04 08 01 48  .H.T$PH.\$H....H
	0x0100 8d 0d 00 00 00 00 48 89 0c 24 48 8d b4 24 98 00  ......H..$H..$..
	0x0110 00 00 48 89 74 24 08 48 8d 7c 24 47 48 89 7c 24  ..H.t$.H.|$GH.|$
	0x0120 10 e8 00 00 00 00 48 8b 7c 24 18 48 8b 44 24 50  ......H.|$.H.D$P
	0x0130 48 89 47 08 48 8b 44 24 48 48 89 47 10 83 3d 00  H.G.H.D$HH.G..=.
	0x0140 00 00 00 00 0f 85 db 05 00 00 48 8b 84 24 90 00  ..........H..$..
	0x0150 00 00 48 89 07 c6 44 24 47 00 c6 44 24 46 00 48  ..H...D$G..D$F.H
	0x0160 8d 05 00 00 00 00 48 89 04 24 48 8d 8c 24 98 00  ......H..$H..$..
	0x0170 00 00 48 89 4c 24 08 48 8d 54 24 46 48 89 54 24  ..H.L$.H.T$FH.T$
	0x0180 10 e8 00 00 00 00 48 8b 44 24 18 48 8b 48 08 48  ......H.D$.H.H.H
	0x0190 8d 51 03 48 8b 58 10 48 8b 00 66 0f 1f 44 00 00  .Q.H.X.H..f..D..
	0x01a0 48 39 da 0f 87 2e 05 00 00 48 89 84 24 88 00 00  H9.......H..$...
	0x01b0 00 48 89 54 24 50 48 89 5c 24 48 c6 04 08 01 c6  .H.T$PH.\$H.....
	0x01c0 44 08 01 02 c6 44 08 02 03 48 8d 0d 00 00 00 00  D....D...H......
	0x01d0 48 89 0c 24 48 8d b4 24 98 00 00 00 48 89 74 24  H..$H..$....H.t$
	0x01e0 08 48 8d 7c 24 47 48 89 7c 24 10 e8 00 00 00 00  .H.|$GH.|$......
	0x01f0 48 8b 7c 24 18 48 8b 44 24 50 48 89 47 08 48 8b  H.|$.H.D$PH.G.H.
	0x0200 44 24 48 48 89 47 10 83 3d 00 00 00 00 00 0f 85  D$HH.G..=.......
	0x0210 b1 04 00 00 48 8b 84 24 88 00 00 00 48 89 07 48  ....H..$....H..H
	0x0220 8d 05 00 00 00 00 48 89 04 24 e8 00 00 00 00 48  ......H..$.....H
	0x0230 8b 44 24 08 48 89 84 24 80 00 00 00 c7 00 07 08  .D$.H..$........
	0x0240 09 00 c6 44 24 47 00 c6 44 24 46 00 48 8d 0d 00  ...D$G..D$F.H...
	0x0250 00 00 00 48 89 0c 24 48 8d 94 24 98 00 00 00 48  ...H..$H..$....H
	0x0260 89 54 24 08 48 8d 5c 24 46 48 89 5c 24 10 e8 00  .T$.H.\$FH.\$...
	0x0270 00 00 00 48 8b 44 24 18 48 8b 48 08 48 8d 51 04  ...H.D$.H.H.H.Q.
	0x0280 48 89 54 24 50 48 8b 58 10 48 8b 00 48 39 d3 0f  H.T$PH.X.H..H9..
	0x0290 82 f0 03 00 00 48 89 44 24 78 48 89 5c 24 48 48  .....H.D$xH.\$HH
	0x02a0 8b 94 24 80 00 00 00 8b 32 89 34 08 48 8d 0d 00  ..$.....2.4.H...
	0x02b0 00 00 00 48 89 0c 24 48 8d b4 24 98 00 00 00 48  ...H..$H..$....H
	0x02c0 89 74 24 08 48 8d 7c 24 47 48 89 7c 24 10 e8 00  .t$.H.|$GH.|$...
	0x02d0 00 00 00 48 8b 7c 24 18 48 8b 44 24 50 48 89 47  ...H.|$.H.D$PH.G
	0x02e0 08 48 8b 44 24 48 48 89 47 10 83 3d 00 00 00 00  .H.D$HH.G..=....
	0x02f0 00 0f 85 7a 03 00 00 48 8b 44 24 78 48 89 07 c6  ...z...H.D$xH...
	0x0300 44 24 47 00 c6 44 24 46 00 48 8d 05 00 00 00 00  D$G..D$F.H......
	0x0310 48 89 04 24 48 8d 8c 24 98 00 00 00 48 89 4c 24  H..$H..$....H.L$
	0x0320 08 48 8d 54 24 46 48 89 54 24 10 e8 00 00 00 00  .H.T$FH.T$......
	0x0330 48 8b 44 24 18 48 8b 48 08 48 8d 51 04 48 89 54  H.D$.H.H.H.Q.H.T
	0x0340 24 50 48 8b 00 48 83 fa 04 0f 87 cb 02 00 00 48  $PH..H.........H
	0x0350 8b 9c 24 80 00 00 00 be 04 00 00 00 48 89 74 24  ..$.........H.t$
	0x0360 48 48 89 5c 24 70 48 8d 53 04 48 89 14 24 48 89  HH.\$pH.S.H..$H.
	0x0370 44 24 08 48 89 4c 24 10 e8 00 00 00 00 48 8d 05  D$.H.L$......H..
	0x0380 00 00 00 00 48 89 04 24 48 8d 8c 24 98 00 00 00  ....H..$H..$....
	0x0390 48 89 4c 24 08 48 8d 54 24 47 48 89 54 24 10 90  H.L$.H.T$GH.T$..
	0x03a0 e8 00 00 00 00 48 8b 7c 24 18 48 8b 44 24 50 48  .....H.|$.H.D$PH
	0x03b0 89 47 08 48 8b 44 24 48 48 89 47 10 83 3d 00 00  .G.H.D$HH.G..=..
	0x03c0 00 00 00 0f 85 42 02 00 00 48 8b 44 24 70 48 89  .....B...H.D$pH.
	0x03d0 07 c6 44 24 47 00 c6 44 24 46 00 48 8d 05 00 00  ..D$G..D$F.H....
	0x03e0 00 00 48 89 04 24 48 8d 8c 24 98 00 00 00 48 89  ..H..$H..$....H.
	0x03f0 4c 24 08 48 8d 54 24 46 48 89 54 24 10 0f 1f 00  L$.H.T$FH.T$....
	0x0400 e8 00 00 00 00 48 8b 44 24 18 48 8b 48 08 48 8d  .....H.D$.H.H.H.
	0x0410 51 01 48 8b 58 10 48 8b 00 0f 1f 80 00 00 00 00  Q.H.X.H.........
	0x0420 48 39 d3 0f 82 9c 01 00 00 48 89 44 24 68 48 89  H9.......H.D$hH.
	0x0430 54 24 50 48 89 5c 24 48 c6 04 08 63 0f b6 0d 00  T$PH.\$H...c....
	0x0440 00 00 00 83 f1 01 88 0d 00 00 00 00 48 8d 0d 00  ............H...
	0x0450 00 00 00 48 89 0c 24 48 8d b4 24 98 00 00 00 48  ...H..$H..$....H
	0x0460 89 74 24 08 48 8d 7c 24 47 48 89 7c 24 10 e8 00  .t$.H.|$GH.|$...
	0x0470 00 00 00 48 8b 7c 24 18 48 8b 44 24 50 48 89 47  ...H.|$.H.D$PH.G
	0x0480 08 48 8b 44 24 48 48 89 47 10 83 3d 00 00 00 00  .H.D$HH.G..=....
	0x0490 00 0f 85 1a 01 00 00 48 8b 44 24 68 48 89 07 c6  .......H.D$hH...
	0x04a0 44 24 47 00 c6 44 24 46 01 48 8d 05 00 00 00 00  D$G..D$F.H......
	0x04b0 48 89 04 24 48 8d 8c 24 98 00 00 00 48 89 4c 24  H..$H..$....H.L$
	0x04c0 08 48 8d 54 24 46 48 89 54 24 10 e8 00 00 00 00  .H.T$FH.T$......
	0x04d0 48 8b 44 24 18 48 8b 48 08 48 8d 51 01 48 8b 58  H.D$.H.H.H.Q.H.X
	0x04e0 10 48 8b 00 48 39 da 0f 87 7e 00 00 00 48 89 44  .H..H9...~...H.D
	0x04f0 24 60 48 89 54 24 50 48 89 5c 24 48 c6 04 08 64  $`H.T$PH.\$H...d
	0x0500 48 8d 0d 00 00 00 00 48 89 0c 24 48 8d 8c 24 98  H......H..$H..$.
	0x0510 00 00 00 48 89 4c 24 08 48 8d 4c 24 47 48 89 4c  ...H.L$.H.L$GH.L
	0x0520 24 10 e8 00 00 00 00 48 8b 7c 24 18 48 8b 44 24  $......H.|$.H.D$
	0x0530 50 48 89 47 08 48 8b 44 24 48 48 89 47 10 83 3d  PH.G.H.D$HH.G..=
	0x0540 00 00 00 00 00 75 18 48 8b 44 24 60 48 89 07 48  .....u.H.D$`H..H
	0x0550 8b ac 24 a0 01 00 00 48 81 c4 a8 01 00 00 c3 48  ..$....H.......H
	0x0560 8b 44 24 60 e8 00 00 00 00 eb e4 48 89 4c 24 50  .D$`.......H.L$P
	0x0570 48 8d 35 00 00 00 00 48 89 34 24 48 89 44 24 08  H.5....H.4$H.D$.
	0x0580 48 89 4c 24 10 48 89 5c 24 18 48 89 54 24 20 e8  H.L$.H.\$.H.T$ .
	0x0590 00 00 00 00 48 8b 44 24 28 48 8b 4c 24 30 48 8b  ....H.D$(H.L$0H.
	0x05a0 5c 24 38 48 8d 51 01 48 8b 4c 24 50 e9 3c ff ff  \$8H.Q.H.L$P.<..
	0x05b0 ff 48 8b 44 24 68 e8 00 00 00 00 0f 1f 44 00 00  .H.D$h.......D..
	0x05c0 e9 da fe ff ff 48 89 4c 24 50 48 8d 35 00 00 00  .....H.L$PH.5...
	0x05d0 00 48 89 34 24 48 89 44 24 08 48 89 4c 24 10 48  .H.4$H.D$.H.L$.H
	0x05e0 89 5c 24 18 48 89 54 24 20 e8 00 00 00 00 48 8b  .\$.H.T$ .....H.
	0x05f0 44 24 28 48 8b 4c 24 30 48 8b 5c 24 38 48 8d 51  D$(H.L$0H.\$8H.Q
	0x0600 01 48 8b 4c 24 50 e9 1e fe ff ff 48 8b 44 24 70  .H.L$P.....H.D$p
	0x0610 e8 00 00 00 00 e9 b7 fd ff ff 48 89 44 24 58 48  ..........H.D$XH
	0x0620 89 4c 24 48 48 8d 05 00 00 00 00 48 89 04 24 48  .L$HH......H..$H
	0x0630 8b 8c 24 80 00 00 00 48 89 4c 24 08 48 c7 44 24  ..$....H.L$.H.D$
	0x0640 10 04 00 00 00 48 c7 44 24 18 04 00 00 00 48 89  .....H.D$.....H.
	0x0650 54 24 20 e8 00 00 00 00 48 8b 5c 24 28 48 8b 74  T$ .....H.\$(H.t
	0x0660 24 38 48 8b 44 24 58 48 8b 4c 24 48 e9 eb fc ff  $8H.D$XH.L$H....
	0x0670 ff 48 8b 44 24 78 e8 00 00 00 00 0f 1f 44 00 00  .H.D$x.......D..
	0x0680 e9 7a fc ff ff 48 89 4c 24 48 48 8d 35 00 00 00  .z...H.L$HH.5...
	0x0690 00 48 89 34 24 48 89 44 24 08 48 89 4c 24 10 48  .H.4$H.D$.H.L$.H
	0x06a0 89 5c 24 18 48 89 54 24 20 e8 00 00 00 00 48 8b  .\$.H.T$ .....H.
	0x06b0 44 24 28 48 8b 5c 24 38 48 8b 4c 24 48 0f 1f 00  D$(H.\$8H.L$H...
	0x06c0 e9 d0 fb ff ff 48 8b 84 24 88 00 00 00 e8 00 00  .....H..$.......
	0x06d0 00 00 e9 48 fb ff ff 48 89 4c 24 50 48 8d 35 00  ...H...H.L$PH.5.
	0x06e0 00 00 00 48 89 34 24 48 89 44 24 08 48 89 4c 24  ...H.4$H.D$.H.L$
	0x06f0 10 48 89 5c 24 18 48 89 54 24 20 0f 1f 44 00 00  .H.\$.H.T$ ..D..
	0x0700 e8 00 00 00 00 48 8b 44 24 28 48 8b 4c 24 30 48  .....H.D$(H.L$0H
	0x0710 8b 5c 24 38 48 8d 51 03 48 8b 4c 24 50 0f 1f 00  .\$8H.Q.H.L$P...
	0x0720 e9 84 fa ff ff 48 8b 84 24 90 00 00 00 e8 00 00  .....H..$.......
	0x0730 00 00 e9 1e fa ff ff 48 89 4c 24 50 48 8d 35 00  .......H.L$PH.5.
	0x0740 00 00 00 48 89 34 24 48 89 44 24 08 48 89 4c 24  ...H.4$H.D$.H.L$
	0x0750 10 48 89 5c 24 18 48 89 54 24 20 0f 1f 44 00 00  .H.\$.H.T$ ..D..
	0x0760 e8 00 00 00 00 48 8b 44 24 28 48 8b 4c 24 30 48  .....H.D$(H.L$0H
	0x0770 8b 5c 24 38 48 8d 51 01 48 8b 4c 24 50 0f 1f 00  .\$8H.Q.H.L$P...
	0x0780 e9 64 f9 ff ff e8 00 00 00 00 e9 71 f8 ff ff     .d.........q...
	rel 5+4 t=17 TLS+0
	rel 112+4 t=8 runtime.duffzero+239
	rel 137+4 t=8 runtime.fastrand+0
	rel 164+4 t=16 type.map[int8][]int8+0
	rel 196+4 t=8 runtime.mapaccess1+0
	rel 258+4 t=16 type.map[int8][]int8+0
	rel 290+4 t=8 runtime.mapassign+0
	rel 319+4 t=16 runtime.writeBarrier+-1
	rel 354+4 t=16 type.map[int8][]int8+0
	rel 386+4 t=8 runtime.mapaccess1+0
	rel 460+4 t=16 type.map[int8][]int8+0
	rel 492+4 t=8 runtime.mapassign+0
	rel 521+4 t=16 runtime.writeBarrier+-1
	rel 546+4 t=16 type.[4]int8+0
	rel 555+4 t=8 runtime.newobject+0
	rel 591+4 t=16 type.map[int8][]int8+0
	rel 623+4 t=8 runtime.mapaccess1+0
	rel 687+4 t=16 type.map[int8][]int8+0
	rel 719+4 t=8 runtime.mapassign+0
	rel 748+4 t=16 runtime.writeBarrier+-1
	rel 780+4 t=16 type.map[int8][]int8+0
	rel 812+4 t=8 runtime.mapaccess1+0
	rel 889+4 t=8 runtime.memmove+0
	rel 896+4 t=16 type.map[int8][]int8+0
	rel 929+4 t=8 runtime.mapassign+0
	rel 958+4 t=16 runtime.writeBarrier+-1
	rel 990+4 t=16 type.map[int8][]int8+0
	rel 1025+4 t=8 runtime.mapaccess1+0
	rel 1087+4 t=16 "".sinkAppend+0
	rel 1096+4 t=16 "".sinkAppend+0
	rel 1103+4 t=16 type.map[int8][]int8+0
	rel 1135+4 t=8 runtime.mapassign+0
	rel 1164+4 t=16 runtime.writeBarrier+-1
	rel 1196+4 t=16 type.map[int8][]int8+0
	rel 1228+4 t=8 runtime.mapaccess1+0
	rel 1283+4 t=16 type.map[int8][]int8+0
	rel 1315+4 t=8 runtime.mapassign+0
	rel 1344+4 t=16 runtime.writeBarrier+-1
	rel 1381+4 t=8 runtime.gcWriteBarrier+0
	rel 1395+4 t=16 type.int8+0
	rel 1424+4 t=8 runtime.growslice+0
	rel 1463+4 t=8 runtime.gcWriteBarrier+0
	rel 1485+4 t=16 type.int8+0
	rel 1514+4 t=8 runtime.growslice+0
	rel 1553+4 t=8 runtime.gcWriteBarrier+0
	rel 1575+4 t=16 type.int8+0
	rel 1620+4 t=8 runtime.growslice+0
	rel 1655+4 t=8 runtime.gcWriteBarrier+0
	rel 1677+4 t=16 type.int8+0
	rel 1706+4 t=8 runtime.growslice+0
	rel 1742+4 t=8 runtime.gcWriteBarrier+0
	rel 1759+4 t=16 type.int8+0
	rel 1793+4 t=8 runtime.growslice+0
	rel 1838+4 t=8 runtime.gcWriteBarrier+0
	rel 1855+4 t=16 type.int8+0
	rel 1889+4 t=8 runtime.growslice+0
	rel 1926+4 t=8 runtime.morestack_noctxt+0
"".mapAppendAssignmentInt32 STEXT size=2033 args=0x0 locals=0x1b0
	0x0000 00000 (/usr/local/go/test/codegen/mapaccess.go:283)	TEXT	"".mapAppendAssignmentInt32(SB), ABIInternal, $432-0
	0x0000 00000 (/usr/local/go/test/codegen/mapaccess.go:283)	MOVQ	(TLS), CX
	0x0009 00009 (/usr/local/go/test/codegen/mapaccess.go:283)	LEAQ	-304(SP), AX
	0x0011 00017 (/usr/local/go/test/codegen/mapaccess.go:283)	CMPQ	AX, 16(CX)
	0x0015 00021 (/usr/local/go/test/codegen/mapaccess.go:283)	PCDATA	$0, $-2
	0x0015 00021 (/usr/local/go/test/codegen/mapaccess.go:283)	JLS	2023
	0x001b 00027 (/usr/local/go/test/codegen/mapaccess.go:283)	PCDATA	$0, $-1
	0x001b 00027 (/usr/local/go/test/codegen/mapaccess.go:283)	SUBQ	$432, SP
	0x0022 00034 (/usr/local/go/test/codegen/mapaccess.go:283)	MOVQ	BP, 424(SP)
	0x002a 00042 (/usr/local/go/test/codegen/mapaccess.go:283)	LEAQ	424(SP), BP
	0x0032 00050 (/usr/local/go/test/codegen/mapaccess.go:283)	FUNCDATA	$0, gclocals·7be4bbacbfdb05fb3044e36c22b41e8b(SB)
	0x0032 00050 (/usr/local/go/test/codegen/mapaccess.go:283)	FUNCDATA	$1, gclocals·4fa7057c58c2d03901de93a4f5272815(SB)
	0x0032 00050 (/usr/local/go/test/codegen/mapaccess.go:283)	FUNCDATA	$3, "".mapAppendAssignmentInt32.stkobj(SB)
	0x0032 00050 (/usr/local/go/test/codegen/mapaccess.go:284)	XORPS	X0, X0
	0x0035 00053 (/usr/local/go/test/codegen/mapaccess.go:284)	MOVUPS	X0, ""..autotmp_7+136(SP)
	0x003d 00061 (/usr/local/go/test/codegen/mapaccess.go:284)	MOVUPS	X0, ""..autotmp_7+152(SP)
	0x0045 00069 (/usr/local/go/test/codegen/mapaccess.go:284)	MOVUPS	X0, ""..autotmp_7+168(SP)
	0x004d 00077 (/usr/local/go/test/codegen/mapaccess.go:284)	LEAQ	""..autotmp_8+184(SP), DI
	0x0055 00085 (/usr/local/go/test/codegen/mapaccess.go:284)	LEAQ	-16(DI), DI
	0x0059 00089 (/usr/local/go/test/codegen/mapaccess.go:284)	NOP
	0x0060 00096 (/usr/local/go/test/codegen/mapaccess.go:284)	DUFFZERO	$231
	0x0073 00115 (/usr/local/go/test/codegen/mapaccess.go:284)	LEAQ	""..autotmp_8+184(SP), AX
	0x007b 00123 (/usr/local/go/test/codegen/mapaccess.go:284)	MOVQ	AX, ""..autotmp_7+152(SP)
	0x0083 00131 (/usr/local/go/test/codegen/mapaccess.go:284)	PCDATA	$1, $1
	0x0083 00131 (/usr/local/go/test/codegen/mapaccess.go:284)	CALL	runtime.fastrand(SB)
	0x0088 00136 (/usr/local/go/test/codegen/mapaccess.go:284)	MOVL	(SP), AX
	0x008b 00139 (/usr/local/go/test/codegen/mapaccess.go:284)	MOVL	AX, ""..autotmp_7+148(SP)
	0x0092 00146 (/usr/local/go/test/codegen/mapaccess.go:291)	LEAQ	type.map[int32][]int32(SB), AX
	0x0099 00153 (/usr/local/go/test/codegen/mapaccess.go:291)	MOVQ	AX, (SP)
	0x009d 00157 (/usr/local/go/test/codegen/mapaccess.go:291)	LEAQ	""..autotmp_7+136(SP), CX
	0x00a5 00165 (/usr/local/go/test/codegen/mapaccess.go:291)	MOVQ	CX, 8(SP)
	0x00aa 00170 (/usr/local/go/test/codegen/mapaccess.go:291)	MOVL	$0, 16(SP)
	0x00b2 00178 (/usr/local/go/test/codegen/mapaccess.go:291)	CALL	runtime.mapassign_fast32(SB)
	0x00b7 00183 (/usr/local/go/test/codegen/mapaccess.go:291)	MOVQ	24(SP), AX
	0x00bc 00188 (/usr/local/go/test/codegen/mapaccess.go:291)	MOVQ	8(AX), CX
	0x00c0 00192 (/usr/local/go/test/codegen/mapaccess.go:291)	MOVQ	(AX), DX
	0x00c3 00195 (/usr/local/go/test/codegen/mapaccess.go:291)	MOVQ	16(AX), BX
	0x00c7 00199 (/usr/local/go/test/codegen/mapaccess.go:291)	LEAQ	1(CX), SI
	0x00cb 00203 (/usr/local/go/test/codegen/mapaccess.go:291)	CMPQ	SI, BX
	0x00ce 00206 (/usr/local/go/test/codegen/mapaccess.go:291)	JHI	1927
	0x00d4 00212 (/usr/local/go/test/codegen/mapaccess.go:291)	LEAQ	1(CX), BX
	0x00d8 00216 (/usr/local/go/test/codegen/mapaccess.go:291)	MOVQ	BX, 8(AX)
	0x00dc 00220 (/usr/local/go/test/codegen/mapaccess.go:291)	MOVL	$1, (DX)(CX*4)
	0x00e3 00227 (/usr/local/go/test/codegen/mapaccess.go:297)	LEAQ	type.map[int32][]int32(SB), AX
	0x00ea 00234 (/usr/local/go/test/codegen/mapaccess.go:297)	MOVQ	AX, (SP)
	0x00ee 00238 (/usr/local/go/test/codegen/mapaccess.go:297)	LEAQ	""..autotmp_7+136(SP), CX
	0x00f6 00246 (/usr/local/go/test/codegen/mapaccess.go:297)	MOVQ	CX, 8(SP)
	0x00fb 00251 (/usr/local/go/test/codegen/mapaccess.go:297)	MOVL	$0, 16(SP)
	0x0103 00259 (/usr/local/go/test/codegen/mapaccess.go:297)	CALL	runtime.mapassign_fast32(SB)
	0x0108 00264 (/usr/local/go/test/codegen/mapaccess.go:297)	MOVQ	24(SP), AX
	0x010d 00269 (/usr/local/go/test/codegen/mapaccess.go:297)	MOVQ	8(AX), CX
	0x0111 00273 (/usr/local/go/test/codegen/mapaccess.go:297)	MOVQ	(AX), DX
	0x0114 00276 (/usr/local/go/test/codegen/mapaccess.go:297)	MOVQ	16(AX), BX
	0x0118 00280 (/usr/local/go/test/codegen/mapaccess.go:297)	LEAQ	3(CX), SI
	0x011c 00284 (/usr/local/go/test/codegen/mapaccess.go:297)	NOP
	0x0120 00288 (/usr/local/go/test/codegen/mapaccess.go:297)	CMPQ	SI, BX
	0x0123 00291 (/usr/local/go/test/codegen/mapaccess.go:297)	JHI	1829
	0x0129 00297 (/usr/local/go/test/codegen/mapaccess.go:297)	LEAQ	3(CX), BX
	0x012d 00301 (/usr/local/go/test/codegen/mapaccess.go:297)	MOVQ	BX, 8(AX)
	0x0131 00305 (/usr/local/go/test/codegen/mapaccess.go:297)	MOVL	$1, (DX)(CX*4)
	0x0138 00312 (/usr/local/go/test/codegen/mapaccess.go:297)	MOVL	$2, 4(DX)(CX*4)
	0x0140 00320 (/usr/local/go/test/codegen/mapaccess.go:297)	MOVL	$3, 8(DX)(CX*4)
	0x0148 00328 (/usr/local/go/test/codegen/mapaccess.go:299)	LEAQ	type.[4]int32(SB), AX
	0x014f 00335 (/usr/local/go/test/codegen/mapaccess.go:299)	MOVQ	AX, (SP)
	0x0153 00339 (/usr/local/go/test/codegen/mapaccess.go:299)	CALL	runtime.newobject(SB)
	0x0158 00344 (/usr/local/go/test/codegen/mapaccess.go:299)	MOVQ	8(SP), AX
	0x015d 00349 (/usr/local/go/test/codegen/mapaccess.go:299)	MOVQ	AX, ""..autotmp_45+128(SP)
	0x0165 00357 (/usr/local/go/test/codegen/mapaccess.go:299)	MOVQ	$34359738375, CX
	0x016f 00367 (/usr/local/go/test/codegen/mapaccess.go:299)	MOVQ	CX, (AX)
	0x0172 00370 (/usr/local/go/test/codegen/mapaccess.go:299)	MOVQ	$9, 8(AX)
	0x017a 00378 (/usr/local/go/test/codegen/mapaccess.go:305)	LEAQ	type.map[int32][]int32(SB), CX
	0x0181 00385 (/usr/local/go/test/codegen/mapaccess.go:305)	MOVQ	CX, (SP)
	0x0185 00389 (/usr/local/go/test/codegen/mapaccess.go:305)	LEAQ	""..autotmp_7+136(SP), DX
	0x018d 00397 (/usr/local/go/test/codegen/mapaccess.go:305)	MOVQ	DX, 8(SP)
	0x0192 00402 (/usr/local/go/test/codegen/mapaccess.go:305)	MOVL	$0, 16(SP)
	0x019a 00410 (/usr/local/go/test/codegen/mapaccess.go:305)	PCDATA	$1, $2
	0x019a 00410 (/usr/local/go/test/codegen/mapaccess.go:305)	CALL	runtime.mapassign_fast32(SB)
	0x019f 00415 (/usr/local/go/test/codegen/mapaccess.go:305)	MOVQ	24(SP), DI
	0x01a4 00420 (/usr/local/go/test/codegen/mapaccess.go:305)	MOVQ	8(DI), AX
	0x01a8 00424 (/usr/local/go/test/codegen/mapaccess.go:305)	MOVQ	16(DI), CX
	0x01ac 00428 (/usr/local/go/test/codegen/mapaccess.go:305)	MOVQ	(DI), DX
	0x01af 00431 (/usr/local/go/test/codegen/mapaccess.go:305)	LEAQ	4(AX), BX
	0x01b3 00435 (/usr/local/go/test/codegen/mapaccess.go:305)	CMPQ	BX, CX
	0x01b6 00438 (/usr/local/go/test/codegen/mapaccess.go:305)	JHI	1745
	0x01bc 00444 (/usr/local/go/test/codegen/mapaccess.go:305)	LEAQ	(DX)(AX*4), AX
	0x01c0 00448 (/usr/local/go/test/codegen/mapaccess.go:305)	MOVQ	""..autotmp_45+128(SP), SI
	0x01c8 00456 (/usr/local/go/test/codegen/mapaccess.go:305)	MOVUPS	(SI), X0
	0x01cb 00459 (/usr/local/go/test/codegen/mapaccess.go:305)	MOVUPS	X0, (AX)
	0x01ce 00462 (/usr/local/go/test/codegen/mapaccess.go:305)	MOVQ	BX, 8(DI)
	0x01d2 00466 (/usr/local/go/test/codegen/mapaccess.go:305)	MOVQ	CX, 16(DI)
	0x01d6 00470 (/usr/local/go/test/codegen/mapaccess.go:305)	PCDATA	$0, $-2
	0x01d6 00470 (/usr/local/go/test/codegen/mapaccess.go:305)	CMPL	runtime.writeBarrier(SB), $0
	0x01dd 00477 (/usr/local/go/test/codegen/mapaccess.go:305)	NOP
	0x01e0 00480 (/usr/local/go/test/codegen/mapaccess.go:305)	JNE	1735
	0x01e6 00486 (/usr/local/go/test/codegen/mapaccess.go:305)	MOVQ	DX, (DI)
	0x01e9 00489 (/usr/local/go/test/codegen/mapaccess.go:311)	PCDATA	$0, $-1
	0x01e9 00489 (/usr/local/go/test/codegen/mapaccess.go:311)	LEAQ	type.map[int32][]int32(SB), AX
	0x01f0 00496 (/usr/local/go/test/codegen/mapaccess.go:311)	MOVQ	AX, (SP)
	0x01f4 00500 (/usr/local/go/test/codegen/mapaccess.go:311)	LEAQ	""..autotmp_7+136(SP), CX
	0x01fc 00508 (/usr/local/go/test/codegen/mapaccess.go:311)	MOVQ	CX, 8(SP)
	0x0201 00513 (/usr/local/go/test/codegen/mapaccess.go:311)	MOVL	$1, 16(SP)
	0x0209 00521 (/usr/local/go/test/codegen/mapaccess.go:311)	CALL	runtime.mapassign_fast32(SB)
	0x020e 00526 (/usr/local/go/test/codegen/mapaccess.go:311)	MOVQ	24(SP), DI
	0x0213 00531 (/usr/local/go/test/codegen/mapaccess.go:311)	MOVQ	8(DI), AX
	0x0217 00535 (/usr/local/go/test/codegen/mapaccess.go:311)	MOVQ	16(DI), CX
	0x021b 00539 (/usr/local/go/test/codegen/mapaccess.go:311)	MOVQ	(DI), DX
	0x021e 00542 (/usr/local/go/test/codegen/mapaccess.go:311)	LEAQ	4(AX), BX
	0x0222 00546 (/usr/local/go/test/codegen/mapaccess.go:311)	CMPQ	BX, CX
	0x0225 00549 (/usr/local/go/test/codegen/mapaccess.go:311)	JHI	1654
	0x022b 00555 (/usr/local/go/test/codegen/mapaccess.go:311)	LEAQ	(DX)(AX*4), AX
	0x022f 00559 (/usr/local/go/test/codegen/mapaccess.go:311)	MOVQ	""..autotmp_45+128(SP), SI
	0x0237 00567 (/usr/local/go/test/codegen/mapaccess.go:311)	MOVUPS	(SI), X0
	0x023a 00570 (/usr/local/go/test/codegen/mapaccess.go:311)	MOVUPS	X0, (AX)
	0x023d 00573 (/usr/local/go/test/codegen/mapaccess.go:311)	MOVQ	BX, 8(DI)
	0x0241 00577 (/usr/local/go/test/codegen/mapaccess.go:311)	MOVQ	CX, 16(DI)
	0x0245 00581 (/usr/local/go/test/codegen/mapaccess.go:311)	PCDATA	$0, $-2
	0x0245 00581 (/usr/local/go/test/codegen/mapaccess.go:311)	CMPL	runtime.writeBarrier(SB), $0
	0x024c 00588 (/usr/local/go/test/codegen/mapaccess.go:311)	JNE	1644
	0x0252 00594 (/usr/local/go/test/codegen/mapaccess.go:311)	MOVQ	DX, (DI)
	0x0255 00597 (/usr/local/go/test/codegen/mapaccess.go:317)	PCDATA	$0, $-1
	0x0255 00597 (/usr/local/go/test/codegen/mapaccess.go:317)	LEAQ	type.map[int32][]int32(SB), AX
	0x025c 00604 (/usr/local/go/test/codegen/mapaccess.go:317)	MOVQ	AX, (SP)
	0x0260 00608 (/usr/local/go/test/codegen/mapaccess.go:317)	LEAQ	""..autotmp_7+136(SP), CX
	0x0268 00616 (/usr/local/go/test/codegen/mapaccess.go:317)	MOVQ	CX, 8(SP)
	0x026d 00621 (/usr/local/go/test/codegen/mapaccess.go:317)	MOVL	$0, 16(SP)
	0x0275 00629 (/usr/local/go/test/codegen/mapaccess.go:317)	CALL	runtime.mapassign_fast32(SB)
	0x027a 00634 (/usr/local/go/test/codegen/mapaccess.go:317)	MOVQ	24(SP), DI
	0x027f 00639 (/usr/local/go/test/codegen/mapaccess.go:317)	MOVQ	8(DI), AX
	0x0283 00643 (/usr/local/go/test/codegen/mapaccess.go:317)	MOVQ	16(DI), CX
	0x0287 00647 (/usr/local/go/test/codegen/mapaccess.go:317)	MOVQ	(DI), DX
	0x028a 00650 (/usr/local/go/test/codegen/mapaccess.go:317)	LEAQ	4(AX), BX
	0x028e 00654 (/usr/local/go/test/codegen/mapaccess.go:317)	CMPQ	CX, BX
	0x0291 00657 (/usr/local/go/test/codegen/mapaccess.go:317)	JCS	1563
	0x0297 00663 (/usr/local/go/test/codegen/mapaccess.go:317)	LEAQ	(DX)(AX*4), AX
	0x029b 00667 (/usr/local/go/test/codegen/mapaccess.go:317)	MOVQ	""..autotmp_45+128(SP), SI
	0x02a3 00675 (/usr/local/go/test/codegen/mapaccess.go:317)	MOVUPS	(SI), X0
	0x02a6 00678 (/usr/local/go/test/codegen/mapaccess.go:317)	MOVUPS	X0, (AX)
	0x02a9 00681 (/usr/local/go/test/codegen/mapaccess.go:317)	MOVQ	BX, 8(DI)
	0x02ad 00685 (/usr/local/go/test/codegen/mapaccess.go:317)	MOVQ	CX, 16(DI)
	0x02b1 00689 (/usr/local/go/test/codegen/mapaccess.go:317)	PCDATA	$0, $-2
	0x02b1 00689 (/usr/local/go/test/codegen/mapaccess.go:317)	CMPL	runtime.writeBarrier(SB), $0
	0x02b8 00696 (/usr/local/go/test/codegen/mapaccess.go:317)	JNE	1553
	0x02be 00702 (/usr/local/go/test/codegen/mapaccess.go:317)	MOVQ	DX, (DI)
	0x02c1 00705 (/usr/local/go/test/codegen/mapaccess.go:325)	PCDATA	$0, $-1
	0x02c1 00705 (/usr/local/go/test/codegen/mapaccess.go:325)	LEAQ	type.map[int32][]int32(SB), AX
	0x02c8 00712 (/usr/local/go/test/codegen/mapaccess.go:325)	MOVQ	AX, (SP)
	0x02cc 00716 (/usr/local/go/test/codegen/mapaccess.go:325)	LEAQ	""..autotmp_7+136(SP), CX
	0x02d4 00724 (/usr/local/go/test/codegen/mapaccess.go:325)	MOVQ	CX, 8(SP)
	0x02d9 00729 (/usr/local/go/test/codegen/mapaccess.go:325)	MOVL	$0, 16(SP)
	0x02e1 00737 (/usr/local/go/test/codegen/mapaccess.go:325)	CALL	runtime.mapaccess1_fast32(SB)
	0x02e6 00742 (/usr/local/go/test/codegen/mapaccess.go:325)	MOVQ	24(SP), AX
	0x02eb 00747 (/usr/local/go/test/codegen/mapaccess.go:325)	MOVQ	8(AX), CX
	0x02ef 00751 (/usr/local/go/test/codegen/mapaccess.go:325)	LEAQ	4(CX), DX
	0x02f3 00755 (/usr/local/go/test/codegen/mapaccess.go:325)	MOVQ	DX, ""..autotmp_46+72(SP)
	0x02f8 00760 (/usr/local/go/test/codegen/mapaccess.go:325)	MOVQ	(AX), AX
	0x02fb 00763 (/usr/local/go/test/codegen/mapaccess.go:325)	NOP
	0x0300 00768 (/usr/local/go/test/codegen/mapaccess.go:325)	CMPQ	DX, $4
	0x0304 00772 (/usr/local/go/test/codegen/mapaccess.go:325)	JHI	1466
	0x030a 00778 (/usr/local/go/test/codegen/mapaccess.go:325)	MOVQ	""..autotmp_45+128(SP), BX
	0x0312 00786 (/usr/local/go/test/codegen/mapaccess.go:325)	MOVL	$4, SI
	0x0317 00791 (/usr/local/go/test/codegen/mapaccess.go:325)	MOVQ	SI, ""..autotmp_47+64(SP)
	0x031c 00796 (/usr/local/go/test/codegen/mapaccess.go:325)	MOVQ	BX, ""..autotmp_48+120(SP)
	0x0321 00801 (/usr/local/go/test/codegen/mapaccess.go:325)	LEAQ	16(BX), DX
	0x0325 00805 (/usr/local/go/test/codegen/mapaccess.go:325)	MOVQ	DX, (SP)
	0x0329 00809 (/usr/local/go/test/codegen/mapaccess.go:325)	MOVQ	AX, 8(SP)
	0x032e 00814 (/usr/local/go/test/codegen/mapaccess.go:325)	SHLQ	$2, CX
	0x0332 00818 (/usr/local/go/test/codegen/mapaccess.go:325)	MOVQ	CX, 16(SP)
	0x0337 00823 (/usr/local/go/test/codegen/mapaccess.go:325)	PCDATA	$1, $3
	0x0337 00823 (/usr/local/go/test/codegen/mapaccess.go:325)	CALL	runtime.memmove(SB)
	0x033c 00828 (/usr/local/go/test/codegen/mapaccess.go:325)	LEAQ	type.map[int32][]int32(SB), AX
	0x0343 00835 (/usr/local/go/test/codegen/mapaccess.go:325)	MOVQ	AX, (SP)
	0x0347 00839 (/usr/local/go/test/codegen/mapaccess.go:325)	LEAQ	""..autotmp_7+136(SP), CX
	0x034f 00847 (/usr/local/go/test/codegen/mapaccess.go:325)	MOVQ	CX, 8(SP)
	0x0354 00852 (/usr/local/go/test/codegen/mapaccess.go:325)	MOVL	$0, 16(SP)
	0x035c 00860 (/usr/local/go/test/codegen/mapaccess.go:325)	NOP
	0x0360 00864 (/usr/local/go/test/codegen/mapaccess.go:325)	CALL	runtime.mapassign_fast32(SB)
	0x0365 00869 (/usr/local/go/test/codegen/mapaccess.go:325)	MOVQ	24(SP), DI
	0x036a 00874 (/usr/local/go/test/codegen/mapaccess.go:325)	MOVQ	""..autotmp_46+72(SP), AX
	0x036f 00879 (/usr/local/go/test/codegen/mapaccess.go:325)	MOVQ	AX, 8(DI)
	0x0373 00883 (/usr/local/go/test/codegen/mapaccess.go:325)	MOVQ	""..autotmp_47+64(SP), AX
	0x0378 00888 (/usr/local/go/test/codegen/mapaccess.go:325)	MOVQ	AX, 16(DI)
	0x037c 00892 (/usr/local/go/test/codegen/mapaccess.go:325)	PCDATA	$0, $-2
	0x037c 00892 (/usr/local/go/test/codegen/mapaccess.go:325)	CMPL	runtime.writeBarrier(SB), $0
	0x0383 00899 (/usr/local/go/test/codegen/mapaccess.go:325)	JNE	1451
	0x0389 00905 (/usr/local/go/test/codegen/mapaccess.go:325)	MOVQ	""..autotmp_48+120(SP), AX
	0x038e 00910 (/usr/local/go/test/codegen/mapaccess.go:325)	MOVQ	AX, (DI)
	0x0391 00913 (/usr/local/go/test/codegen/mapaccess.go:331)	PCDATA	$0, $-1
	0x0391 00913 (/usr/local/go/test/codegen/mapaccess.go:331)	LEAQ	type.map[int32][]int32(SB), AX
	0x0398 00920 (/usr/local/go/test/codegen/mapaccess.go:331)	MOVQ	AX, (SP)
	0x039c 00924 (/usr/local/go/test/codegen/mapaccess.go:331)	LEAQ	""..autotmp_7+136(SP), CX
	0x03a4 00932 (/usr/local/go/test/codegen/mapaccess.go:331)	MOVQ	CX, 8(SP)
	0x03a9 00937 (/usr/local/go/test/codegen/mapaccess.go:331)	MOVL	$0, 16(SP)
	0x03b1 00945 (/usr/local/go/test/codegen/mapaccess.go:331)	PCDATA	$1, $1
	0x03b1 00945 (/usr/local/go/test/codegen/mapaccess.go:331)	CALL	runtime.mapaccess1_fast32(SB)
	0x03b6 00950 (/usr/local/go/test/codegen/mapaccess.go:331)	MOVQ	24(SP), AX
	0x03bb 00955 (/usr/local/go/test/codegen/mapaccess.go:331)	MOVQ	8(AX), CX
	0x03bf 00959 (/usr/local/go/test/codegen/mapaccess.go:331)	LEAQ	1(CX), DX
	0x03c3 00963 (/usr/local/go/test/codegen/mapaccess.go:331)	MOVQ	16(AX), BX
	0x03c7 00967 (/usr/local/go/test/codegen/mapaccess.go:331)	MOVQ	(AX), AX
	0x03ca 00970 (/usr/local/go/test/codegen/mapaccess.go:331)	CMPQ	DX, BX
	0x03cd 00973 (/usr/local/go/test/codegen/mapaccess.go:331)	JHI	1381
	0x03d3 00979 (/usr/local/go/test/codegen/mapaccess.go:331)	MOVQ	AX, ""..autotmp_48+120(SP)
	0x03d8 00984 (/usr/local/go/test/codegen/mapaccess.go:331)	MOVQ	DX, ""..autotmp_46+72(SP)
	0x03dd 00989 (/usr/local/go/test/codegen/mapaccess.go:331)	MOVQ	BX, ""..autotmp_47+64(SP)
	0x03e2 00994 (/usr/local/go/test/codegen/mapaccess.go:331)	MOVL	$99, (AX)(CX*4)
	0x03e9 01001 (/usr/local/go/test/codegen/mapaccess.go:331)	MOVBLZX	"".sinkAppend(SB), CX
	0x03f0 01008 (/usr/local/go/test/codegen/mapaccess.go:331)	XORL	$1, CX
	0x03f3 01011 (/usr/local/go/test/codegen/mapaccess.go:331)	MOVB	CL, "".sinkAppend(SB)
	0x03f9 01017 (/usr/local/go/test/codegen/mapaccess.go:331)	LEAQ	type.map[int32][]int32(SB), CX
	0x0400 01024 (/usr/local/go/test/codegen/mapaccess.go:331)	MOVQ	CX, (SP)
	0x0404 01028 (/usr/local/go/test/codegen/mapaccess.go:331)	LEAQ	""..autotmp_7+136(SP), SI
	0x040c 01036 (/usr/local/go/test/codegen/mapaccess.go:331)	MOVQ	SI, 8(SP)
	0x0411 01041 (/usr/local/go/test/codegen/mapaccess.go:331)	MOVL	$0, 16(SP)
	0x0419 01049 (/usr/local/go/test/codegen/mapaccess.go:331)	PCDATA	$1, $3
	0x0419 01049 (/usr/local/go/test/codegen/mapaccess.go:331)	CALL	runtime.mapassign_fast32(SB)
	0x041e 01054 (/usr/local/go/test/codegen/mapaccess.go:331)	MOVQ	24(SP), DI
	0x0423 01059 (/usr/local/go/test/codegen/mapaccess.go:331)	MOVQ	""..autotmp_46+72(SP), AX
	0x0428 01064 (/usr/local/go/test/codegen/mapaccess.go:331)	MOVQ	AX, 8(DI)
	0x042c 01068 (/usr/local/go/test/codegen/mapaccess.go:331)	MOVQ	""..autotmp_47+64(SP), AX
	0x0431 01073 (/usr/local/go/test/codegen/mapaccess.go:331)	MOVQ	AX, 16(DI)
	0x0435 01077 (/usr/local/go/test/codegen/mapaccess.go:331)	PCDATA	$0, $-2
	0x0435 01077 (/usr/local/go/test/codegen/mapaccess.go:331)	CMPL	runtime.writeBarrier(SB), $0
	0x043c 01084 (/usr/local/go/test/codegen/mapaccess.go:331)	NOP
	0x0440 01088 (/usr/local/go/test/codegen/mapaccess.go:331)	JNE	1365
	0x0446 01094 (/usr/local/go/test/codegen/mapaccess.go:331)	MOVQ	""..autotmp_48+120(SP), AX
	0x044b 01099 (/usr/local/go/test/codegen/mapaccess.go:331)	MOVQ	AX, (DI)
	0x044e 01102 (/usr/local/go/test/codegen/mapaccess.go:337)	PCDATA	$0, $-1
	0x044e 01102 (/usr/local/go/test/codegen/mapaccess.go:337)	LEAQ	type.map[int32][]int32(SB), AX
	0x0455 01109 (/usr/local/go/test/codegen/mapaccess.go:337)	MOVQ	AX, (SP)
	0x0459 01113 (/usr/local/go/test/codegen/mapaccess.go:337)	LEAQ	""..autotmp_7+136(SP), CX
	0x0461 01121 (/usr/local/go/test/codegen/mapaccess.go:337)	MOVQ	CX, 8(SP)
	0x0466 01126 (/usr/local/go/test/codegen/mapaccess.go:337)	MOVL	$1, 16(SP)
	0x046e 01134 (/usr/local/go/test/codegen/mapaccess.go:337)	PCDATA	$1, $1
	0x046e 01134 (/usr/local/go/test/codegen/mapaccess.go:337)	CALL	runtime.mapaccess1_fast32(SB)
	0x0473 01139 (/usr/local/go/test/codegen/mapaccess.go:337)	MOVQ	24(SP), AX
	0x0478 01144 (/usr/local/go/test/codegen/mapaccess.go:337)	MOVQ	8(AX), CX
	0x047c 01148 (/usr/local/go/test/codegen/mapaccess.go:337)	LEAQ	1(CX), DX
	0x0480 01152 (/usr/local/go/test/codegen/mapaccess.go:337)	MOVQ	16(AX), BX
	0x0484 01156 (/usr/local/go/test/codegen/mapaccess.go:337)	MOVQ	(AX), AX
	0x0487 01159 (/usr/local/go/test/codegen/mapaccess.go:337)	CMPQ	BX, DX
	0x048a 01162 (/usr/local/go/test/codegen/mapaccess.go:337)	JCS	1295
	0x0490 01168 (/usr/local/go/test/codegen/mapaccess.go:337)	MOVQ	AX, ""..autotmp_48+120(SP)
	0x0495 01173 (/usr/local/go/test/codegen/mapaccess.go:337)	MOVQ	DX, ""..autotmp_46+72(SP)
	0x049a 01178 (/usr/local/go/test/codegen/mapaccess.go:337)	MOVQ	BX, ""..autotmp_47+64(SP)
	0x049f 01183 (/usr/local/go/test/codegen/mapaccess.go:337)	MOVL	$100, (AX)(CX*4)
	0x04a6 01190 (/usr/local/go/test/codegen/mapaccess.go:337)	LEAQ	type.map[int32][]int32(SB), CX
	0x04ad 01197 (/usr/local/go/test/codegen/mapaccess.go:337)	MOVQ	CX, (SP)
	0x04b1 01201 (/usr/local/go/test/codegen/mapaccess.go:337)	LEAQ	""..autotmp_7+136(SP), CX
	0x04b9 01209 (/usr/local/go/test/codegen/mapaccess.go:337)	MOVQ	CX, 8(SP)
	0x04be 01214 (/usr/local/go/test/codegen/mapaccess.go:337)	MOVL	$0, 16(SP)
	0x04c6 01222 (/usr/local/go/test/codegen/mapaccess.go:337)	PCDATA	$1, $4
	0x04c6 01222 (/usr/local/go/test/codegen/mapaccess.go:337)	CALL	runtime.mapassign_fast32(SB)
	0x04cb 01227 (/usr/local/go/test/codegen/mapaccess.go:337)	MOVQ	24(SP), DI
	0x04d0 01232 (/usr/local/go/test/codegen/mapaccess.go:337)	MOVQ	""..autotmp_46+72(SP), AX
	0x04d5 01237 (/usr/local/go/test/codegen/mapaccess.go:337)	MOVQ	AX, 8(DI)
	0x04d9 01241 (/usr/local/go/test/codegen/mapaccess.go:337)	MOVQ	""..autotmp_47+64(SP), AX
	0x04de 01246 (/usr/local/go/test/codegen/mapaccess.go:337)	MOVQ	AX, 16(DI)
	0x04e2 01250 (/usr/local/go/test/codegen/mapaccess.go:337)	PCDATA	$0, $-2
	0x04e2 01250 (/usr/local/go/test/codegen/mapaccess.go:337)	CMPL	runtime.writeBarrier(SB), $0
	0x04e9 01257 (/usr/local/go/test/codegen/mapaccess.go:337)	JNE	1283
	0x04eb 01259 (/usr/local/go/test/codegen/mapaccess.go:337)	MOVQ	""..autotmp_48+120(SP), AX
	0x04f0 01264 (/usr/local/go/test/codegen/mapaccess.go:337)	MOVQ	AX, (DI)
	0x04f3 01267 (/usr/local/go/test/codegen/mapaccess.go:338)	PCDATA	$0, $-1
	0x04f3 01267 (/usr/local/go/test/codegen/mapaccess.go:338)	PCDATA	$1, $-1
	0x04f3 01267 (/usr/local/go/test/codegen/mapaccess.go:338)	MOVQ	424(SP), BP
	0x04fb 01275 (/usr/local/go/test/codegen/mapaccess.go:338)	ADDQ	$432, SP
	0x0502 01282 (/usr/local/go/test/codegen/mapaccess.go:338)	RET
	0x0503 01283 (/usr/local/go/test/codegen/mapaccess.go:337)	PCDATA	$0, $-2
	0x0503 01283 (/usr/local/go/test/codegen/mapaccess.go:337)	MOVQ	""..autotmp_48+120(SP), AX
	0x0508 01288 (/usr/local/go/test/codegen/mapaccess.go:337)	CALL	runtime.gcWriteBarrier(SB)
	0x050d 01293 (/usr/local/go/test/codegen/mapaccess.go:337)	JMP	1267
	0x050f 01295 (/usr/local/go/test/codegen/mapaccess.go:337)	PCDATA	$0, $-1
	0x050f 01295 (/usr/local/go/test/codegen/mapaccess.go:337)	MOVQ	CX, ""..autotmp_46+72(SP)
	0x0514 01300 (/usr/local/go/test/codegen/mapaccess.go:337)	LEAQ	type.int32(SB), SI
	0x051b 01307 (/usr/local/go/test/codegen/mapaccess.go:337)	MOVQ	SI, (SP)
	0x051f 01311 (/usr/local/go/test/codegen/mapaccess.go:337)	MOVQ	AX, 8(SP)
	0x0524 01316 (/usr/local/go/test/codegen/mapaccess.go:337)	MOVQ	CX, 16(SP)
	0x0529 01321 (/usr/local/go/test/codegen/mapaccess.go:337)	MOVQ	BX, 24(SP)
	0x052e 01326 (/usr/local/go/test/codegen/mapaccess.go:337)	MOVQ	DX, 32(SP)
	0x0533 01331 (/usr/local/go/test/codegen/mapaccess.go:337)	PCDATA	$1, $1
	0x0533 01331 (/usr/local/go/test/codegen/mapaccess.go:337)	CALL	runtime.growslice(SB)
	0x0538 01336 (/usr/local/go/test/codegen/mapaccess.go:337)	MOVQ	40(SP), AX
	0x053d 01341 (/usr/local/go/test/codegen/mapaccess.go:337)	MOVQ	48(SP), CX
	0x0542 01346 (/usr/local/go/test/codegen/mapaccess.go:337)	MOVQ	56(SP), BX
	0x0547 01351 (/usr/local/go/test/codegen/mapaccess.go:337)	LEAQ	1(CX), DX
	0x054b 01355 (/usr/local/go/test/codegen/mapaccess.go:337)	MOVQ	""..autotmp_46+72(SP), CX
	0x0550 01360 (/usr/local/go/test/codegen/mapaccess.go:337)	JMP	1168
	0x0555 01365 (/usr/local/go/test/codegen/mapaccess.go:331)	PCDATA	$0, $-2
	0x0555 01365 (/usr/local/go/test/codegen/mapaccess.go:331)	MOVQ	""..autotmp_48+120(SP), AX
	0x055a 01370 (/usr/local/go/test/codegen/mapaccess.go:331)	CALL	runtime.gcWriteBarrier(SB)
	0x055f 01375 (/usr/local/go/test/codegen/mapaccess.go:331)	NOP
	0x0560 01376 (/usr/local/go/test/codegen/mapaccess.go:331)	JMP	1102
	0x0565 01381 (/usr/local/go/test/codegen/mapaccess.go:331)	PCDATA	$0, $-1
	0x0565 01381 (/usr/local/go/test/codegen/mapaccess.go:331)	MOVQ	CX, ""..autotmp_46+72(SP)
	0x056a 01386 (/usr/local/go/test/codegen/mapaccess.go:331)	LEAQ	type.int32(SB), SI
	0x0571 01393 (/usr/local/go/test/codegen/mapaccess.go:331)	MOVQ	SI, (SP)
	0x0575 01397 (/usr/local/go/test/codegen/mapaccess.go:331)	MOVQ	AX, 8(SP)
	0x057a 01402 (/usr/local/go/test/codegen/mapaccess.go:331)	MOVQ	CX, 16(SP)
	0x057f 01407 (/usr/local/go/test/codegen/mapaccess.go:331)	MOVQ	BX, 24(SP)
	0x0584 01412 (/usr/local/go/test/codegen/mapaccess.go:331)	MOVQ	DX, 32(SP)
	0x0589 01417 (/usr/local/go/test/codegen/mapaccess.go:331)	CALL	runtime.growslice(SB)
	0x058e 01422 (/usr/local/go/test/codegen/mapaccess.go:331)	MOVQ	40(SP), AX
	0x0593 01427 (/usr/local/go/test/codegen/mapaccess.go:331)	MOVQ	48(SP), CX
	0x0598 01432 (/usr/local/go/test/codegen/mapaccess.go:331)	MOVQ	56(SP), BX
	0x059d 01437 (/usr/local/go/test/codegen/mapaccess.go:331)	LEAQ	1(CX), DX
	0x05a1 01441 (/usr/local/go/test/codegen/mapaccess.go:331)	MOVQ	""..autotmp_46+72(SP), CX
	0x05a6 01446 (/usr/local/go/test/codegen/mapaccess.go:331)	JMP	979
	0x05ab 01451 (/usr/local/go/test/codegen/mapaccess.go:325)	PCDATA	$0, $-2
	0x05ab 01451 (/usr/local/go/test/codegen/mapaccess.go:325)	MOVQ	""..autotmp_48+120(SP), AX
	0x05b0 01456 (/usr/local/go/test/codegen/mapaccess.go:325)	CALL	runtime.gcWriteBarrier(SB)
	0x05b5 01461 (/usr/local/go/test/codegen/mapaccess.go:325)	JMP	913
	0x05ba 01466 (/usr/local/go/test/codegen/mapaccess.go:325)	PCDATA	$0, $-1
	0x05ba 01466 (/usr/local/go/test/codegen/mapaccess.go:325)	MOVQ	AX, ""..autotmp_48+120(SP)
	0x05bf 01471 (/usr/local/go/test/codegen/mapaccess.go:325)	MOVQ	CX, ""..autotmp_47+64(SP)
	0x05c4 01476 (/usr/local/go/test/codegen/mapaccess.go:325)	LEAQ	type.int32(SB), AX
	0x05cb 01483 (/usr/local/go/test/codegen/mapaccess.go:325)	MOVQ	AX, (SP)
	0x05cf 01487 (/usr/local/go/test/codegen/mapaccess.go:325)	MOVQ	""..autotmp_45+128(SP), CX
	0x05d7 01495 (/usr/local/go/test/codegen/mapaccess.go:325)	MOVQ	CX, 8(SP)
	0x05dc 01500 (/usr/local/go/test/codegen/mapaccess.go:325)	MOVQ	$4, 16(SP)
	0x05e5 01509 (/usr/local/go/test/codegen/mapaccess.go:325)	MOVQ	$4, 24(SP)
	0x05ee 01518 (/usr/local/go/test/codegen/mapaccess.go:325)	MOVQ	DX, 32(SP)
	0x05f3 01523 (/usr/local/go/test/codegen/mapaccess.go:325)	PCDATA	$1, $3
	0x05f3 01523 (/usr/local/go/test/codegen/mapaccess.go:325)	CALL	runtime.growslice(SB)
	0x05f8 01528 (/usr/local/go/test/codegen/mapaccess.go:325)	MOVQ	40(SP), BX
	0x05fd 01533 (/usr/local/go/test/codegen/mapaccess.go:325)	MOVQ	56(SP), SI
	0x0602 01538 (/usr/local/go/test/codegen/mapaccess.go:325)	MOVQ	""..autotmp_48+120(SP), AX
	0x0607 01543 (/usr/local/go/test/codegen/mapaccess.go:325)	MOVQ	""..autotmp_47+64(SP), CX
	0x060c 01548 (/usr/local/go/test/codegen/mapaccess.go:325)	JMP	791
	0x0611 01553 (/usr/local/go/test/codegen/mapaccess.go:317)	PCDATA	$0, $-2
	0x0611 01553 (/usr/local/go/test/codegen/mapaccess.go:317)	CALL	runtime.gcWriteBarrierDX(SB)
	0x0616 01558 (/usr/local/go/test/codegen/mapaccess.go:317)	JMP	705
	0x061b 01563 (/usr/local/go/test/codegen/mapaccess.go:317)	PCDATA	$0, $-1
	0x061b 01563 (/usr/local/go/test/codegen/mapaccess.go:317)	MOVQ	DI, ""..autotmp_49+112(SP)
	0x0620 01568 (/usr/local/go/test/codegen/mapaccess.go:317)	MOVQ	AX, ""..autotmp_46+72(SP)
	0x0625 01573 (/usr/local/go/test/codegen/mapaccess.go:317)	MOVQ	BX, ""..autotmp_47+64(SP)
	0x062a 01578 (/usr/local/go/test/codegen/mapaccess.go:317)	LEAQ	type.int32(SB), SI
	0x0631 01585 (/usr/local/go/test/codegen/mapaccess.go:317)	MOVQ	SI, (SP)
	0x0635 01589 (/usr/local/go/test/codegen/mapaccess.go:317)	MOVQ	DX, 8(SP)
	0x063a 01594 (/usr/local/go/test/codegen/mapaccess.go:317)	MOVQ	AX, 16(SP)
	0x063f 01599 (/usr/local/go/test/codegen/mapaccess.go:317)	MOVQ	CX, 24(SP)
	0x0644 01604 (/usr/local/go/test/codegen/mapaccess.go:317)	MOVQ	BX, 32(SP)
	0x0649 01609 (/usr/local/go/test/codegen/mapaccess.go:317)	PCDATA	$1, $5
	0x0649 01609 (/usr/local/go/test/codegen/mapaccess.go:317)	CALL	runtime.growslice(SB)
	0x064e 01614 (/usr/local/go/test/codegen/mapaccess.go:317)	MOVQ	40(SP), DX
	0x0653 01619 (/usr/local/go/test/codegen/mapaccess.go:317)	MOVQ	56(SP), CX
	0x0658 01624 (/usr/local/go/test/codegen/mapaccess.go:317)	MOVQ	""..autotmp_46+72(SP), AX
	0x065d 01629 (/usr/local/go/test/codegen/mapaccess.go:317)	MOVQ	""..autotmp_47+64(SP), BX
	0x0662 01634 (/usr/local/go/test/codegen/mapaccess.go:317)	MOVQ	""..autotmp_49+112(SP), DI
	0x0667 01639 (/usr/local/go/test/codegen/mapaccess.go:317)	JMP	663
	0x066c 01644 (/usr/local/go/test/codegen/mapaccess.go:311)	PCDATA	$0, $-2
	0x066c 01644 (/usr/local/go/test/codegen/mapaccess.go:311)	CALL	runtime.gcWriteBarrierDX(SB)
	0x0671 01649 (/usr/local/go/test/codegen/mapaccess.go:311)	JMP	597
	0x0676 01654 (/usr/local/go/test/codegen/mapaccess.go:311)	PCDATA	$0, $-1
	0x0676 01654 (/usr/local/go/test/codegen/mapaccess.go:311)	MOVQ	DI, ""..autotmp_50+104(SP)
	0x067b 01659 (/usr/local/go/test/codegen/mapaccess.go:311)	MOVQ	BX, ""..autotmp_46+72(SP)
	0x0680 01664 (/usr/local/go/test/codegen/mapaccess.go:311)	MOVQ	AX, ""..autotmp_47+64(SP)
	0x0685 01669 (/usr/local/go/test/codegen/mapaccess.go:311)	LEAQ	type.int32(SB), SI
	0x068c 01676 (/usr/local/go/test/codegen/mapaccess.go:311)	MOVQ	SI, (SP)
	0x0690 01680 (/usr/local/go/test/codegen/mapaccess.go:311)	MOVQ	DX, 8(SP)
	0x0695 01685 (/usr/local/go/test/codegen/mapaccess.go:311)	MOVQ	AX, 16(SP)
	0x069a 01690 (/usr/local/go/test/codegen/mapaccess.go:311)	MOVQ	CX, 24(SP)
	0x069f 01695 (/usr/local/go/test/codegen/mapaccess.go:311)	MOVQ	BX, 32(SP)
	0x06a4 01700 (/usr/local/go/test/codegen/mapaccess.go:311)	PCDATA	$1, $6
	0x06a4 01700 (/usr/local/go/test/codegen/mapaccess.go:311)	CALL	runtime.growslice(SB)
	0x06a9 01705 (/usr/local/go/test/codegen/mapaccess.go:311)	MOVQ	40(SP), DX
	0x06ae 01710 (/usr/local/go/test/codegen/mapaccess.go:311)	MOVQ	56(SP), CX
	0x06b3 01715 (/usr/local/go/test/codegen/mapaccess.go:311)	MOVQ	""..autotmp_47+64(SP), AX
	0x06b8 01720 (/usr/local/go/test/codegen/mapaccess.go:311)	MOVQ	""..autotmp_46+72(SP), BX
	0x06bd 01725 (/usr/local/go/test/codegen/mapaccess.go:311)	MOVQ	""..autotmp_50+104(SP), DI
	0x06c2 01730 (/usr/local/go/test/codegen/mapaccess.go:311)	JMP	555
	0x06c7 01735 (/usr/local/go/test/codegen/mapaccess.go:305)	PCDATA	$0, $-2
	0x06c7 01735 (/usr/local/go/test/codegen/mapaccess.go:305)	CALL	runtime.gcWriteBarrierDX(SB)
	0x06cc 01740 (/usr/local/go/test/codegen/mapaccess.go:305)	JMP	489
	0x06d1 01745 (/usr/local/go/test/codegen/mapaccess.go:305)	PCDATA	$0, $-1
	0x06d1 01745 (/usr/local/go/test/codegen/mapaccess.go:305)	MOVQ	DI, ""..autotmp_51+96(SP)
	0x06d6 01750 (/usr/local/go/test/codegen/mapaccess.go:305)	MOVQ	BX, ""..autotmp_46+72(SP)
	0x06db 01755 (/usr/local/go/test/codegen/mapaccess.go:305)	MOVQ	AX, ""..autotmp_47+64(SP)
	0x06e0 01760 (/usr/local/go/test/codegen/mapaccess.go:305)	LEAQ	type.int32(SB), SI
	0x06e7 01767 (/usr/local/go/test/codegen/mapaccess.go:305)	MOVQ	SI, (SP)
	0x06eb 01771 (/usr/local/go/test/codegen/mapaccess.go:305)	MOVQ	DX, 8(SP)
	0x06f0 01776 (/usr/local/go/test/codegen/mapaccess.go:305)	MOVQ	AX, 16(SP)
	0x06f5 01781 (/usr/local/go/test/codegen/mapaccess.go:305)	MOVQ	CX, 24(SP)
	0x06fa 01786 (/usr/local/go/test/codegen/mapaccess.go:305)	MOVQ	BX, 32(SP)
	0x06ff 01791 (/usr/local/go/test/codegen/mapaccess.go:305)	PCDATA	$1, $7
	0x06ff 01791 (/usr/local/go/test/codegen/mapaccess.go:305)	NOP
	0x0700 01792 (/usr/local/go/test/codegen/mapaccess.go:305)	CALL	runtime.growslice(SB)
	0x0705 01797 (/usr/local/go/test/codegen/mapaccess.go:305)	MOVQ	40(SP), DX
	0x070a 01802 (/usr/local/go/test/codegen/mapaccess.go:305)	MOVQ	56(SP), CX
	0x070f 01807 (/usr/local/go/test/codegen/mapaccess.go:305)	MOVQ	""..autotmp_47+64(SP), AX
	0x0714 01812 (/usr/local/go/test/codegen/mapaccess.go:305)	MOVQ	""..autotmp_46+72(SP), BX
	0x0719 01817 (/usr/local/go/test/codegen/mapaccess.go:305)	MOVQ	""..autotmp_51+96(SP), DI
	0x071e 01822 (/usr/local/go/test/codegen/mapaccess.go:305)	NOP
	0x0720 01824 (/usr/local/go/test/codegen/mapaccess.go:305)	JMP	444
	0x0725 01829 (/usr/local/go/test/codegen/mapaccess.go:297)	MOVQ	AX, ""..autotmp_52+88(SP)
	0x072a 01834 (/usr/local/go/test/codegen/mapaccess.go:297)	LEAQ	type.int32(SB), AX
	0x0731 01841 (/usr/local/go/test/codegen/mapaccess.go:297)	MOVQ	AX, (SP)
	0x0735 01845 (/usr/local/go/test/codegen/mapaccess.go:297)	MOVQ	DX, 8(SP)
	0x073a 01850 (/usr/local/go/test/codegen/mapaccess.go:297)	MOVQ	CX, 16(SP)
	0x073f 01855 (/usr/local/go/test/codegen/mapaccess.go:297)	MOVQ	BX, 24(SP)
	0x0744 01860 (/usr/local/go/test/codegen/mapaccess.go:297)	MOVQ	SI, 32(SP)
	0x0749 01865 (/usr/local/go/test/codegen/mapaccess.go:297)	PCDATA	$1, $8
	0x0749 01865 (/usr/local/go/test/codegen/mapaccess.go:297)	CALL	runtime.growslice(SB)
	0x074e 01870 (/usr/local/go/test/codegen/mapaccess.go:297)	MOVQ	40(SP), AX
	0x0753 01875 (/usr/local/go/test/codegen/mapaccess.go:297)	MOVQ	48(SP), CX
	0x0758 01880 (/usr/local/go/test/codegen/mapaccess.go:297)	MOVQ	56(SP), DX
	0x075d 01885 (/usr/local/go/test/codegen/mapaccess.go:297)	MOVQ	""..autotmp_52+88(SP), DI
	0x0762 01890 (/usr/local/go/test/codegen/mapaccess.go:297)	MOVQ	DX, 16(DI)
	0x0766 01894 (/usr/local/go/test/codegen/mapaccess.go:297)	PCDATA	$0, $-2
	0x0766 01894 (/usr/local/go/test/codegen/mapaccess.go:297)	CMPL	runtime.writeBarrier(SB), $0
	0x076d 01901 (/usr/local/go/test/codegen/mapaccess.go:297)	JNE	1917
	0x076f 01903 (/usr/local/go/test/codegen/mapaccess.go:297)	MOVQ	AX, (DI)
	0x0772 01906 (/usr/local/go/test/codegen/mapaccess.go:297)	PCDATA	$0, $-1
	0x0772 01906 (/usr/local/go/test/codegen/mapaccess.go:297)	MOVQ	AX, DX
	0x0775 01909 (/usr/local/go/test/codegen/mapaccess.go:297)	MOVQ	DI, AX
	0x0778 01912 (/usr/local/go/test/codegen/mapaccess.go:297)	JMP	297
	0x077d 01917 (/usr/local/go/test/codegen/mapaccess.go:297)	PCDATA	$0, $-2
	0x077d 01917 (/usr/local/go/test/codegen/mapaccess.go:297)	NOP
	0x0780 01920 (/usr/local/go/test/codegen/mapaccess.go:297)	CALL	runtime.gcWriteBarrier(SB)
	0x0785 01925 (/usr/local/go/test/codegen/mapaccess.go:297)	JMP	1906
	0x0787 01927 (/usr/local/go/test/codegen/mapaccess.go:291)	PCDATA	$0, $-1
	0x0787 01927 (/usr/local/go/test/codegen/mapaccess.go:291)	MOVQ	AX, ""..autotmp_53+80(SP)
	0x078c 01932 (/usr/local/go/test/codegen/mapaccess.go:291)	LEAQ	type.int32(SB), AX
	0x0793 01939 (/usr/local/go/test/codegen/mapaccess.go:291)	MOVQ	AX, (SP)
	0x0797 01943 (/usr/local/go/test/codegen/mapaccess.go:291)	MOVQ	DX, 8(SP)
	0x079c 01948 (/usr/local/go/test/codegen/mapaccess.go:291)	MOVQ	CX, 16(SP)
	0x07a1 01953 (/usr/local/go/test/codegen/mapaccess.go:291)	MOVQ	BX, 24(SP)
	0x07a6 01958 (/usr/local/go/test/codegen/mapaccess.go:291)	MOVQ	SI, 32(SP)
	0x07ab 01963 (/usr/local/go/test/codegen/mapaccess.go:291)	PCDATA	$1, $9
	0x07ab 01963 (/usr/local/go/test/codegen/mapaccess.go:291)	CALL	runtime.growslice(SB)
	0x07b0 01968 (/usr/local/go/test/codegen/mapaccess.go:291)	MOVQ	40(SP), AX
	0x07b5 01973 (/usr/local/go/test/codegen/mapaccess.go:291)	MOVQ	48(SP), CX
	0x07ba 01978 (/usr/local/go/test/codegen/mapaccess.go:291)	MOVQ	56(SP), DX
	0x07bf 01983 (/usr/local/go/test/codegen/mapaccess.go:291)	MOVQ	""..autotmp_53+80(SP), DI
	0x07c4 01988 (/usr/local/go/test/codegen/mapaccess.go:291)	MOVQ	DX, 16(DI)
	0x07c8 01992 (/usr/local/go/test/codegen/mapaccess.go:291)	PCDATA	$0, $-2
	0x07c8 01992 (/usr/local/go/test/codegen/mapaccess.go:291)	CMPL	runtime.writeBarrier(SB), $0
	0x07cf 01999 (/usr/local/go/test/codegen/mapaccess.go:291)	JNE	2015
	0x07d1 02001 (/usr/local/go/test/codegen/mapaccess.go:291)	MOVQ	AX, (DI)
	0x07d4 02004 (/usr/local/go/test/codegen/mapaccess.go:291)	PCDATA	$0, $-1
	0x07d4 02004 (/usr/local/go/test/codegen/mapaccess.go:291)	MOVQ	AX, DX
	0x07d7 02007 (/usr/local/go/test/codegen/mapaccess.go:291)	MOVQ	DI, AX
	0x07da 02010 (/usr/local/go/test/codegen/mapaccess.go:291)	JMP	212
	0x07df 02015 (/usr/local/go/test/codegen/mapaccess.go:291)	PCDATA	$0, $-2
	0x07df 02015 (/usr/local/go/test/codegen/mapaccess.go:291)	NOP
	0x07e0 02016 (/usr/local/go/test/codegen/mapaccess.go:291)	CALL	runtime.gcWriteBarrier(SB)
	0x07e5 02021 (/usr/local/go/test/codegen/mapaccess.go:291)	JMP	2004
	0x07e7 02023 (/usr/local/go/test/codegen/mapaccess.go:291)	NOP
	0x07e7 02023 (/usr/local/go/test/codegen/mapaccess.go:283)	PCDATA	$1, $-1
	0x07e7 02023 (/usr/local/go/test/codegen/mapaccess.go:283)	PCDATA	$0, $-2
	0x07e7 02023 (/usr/local/go/test/codegen/mapaccess.go:283)	CALL	runtime.morestack_noctxt(SB)
	0x07ec 02028 (/usr/local/go/test/codegen/mapaccess.go:283)	PCDATA	$0, $-1
	0x07ec 02028 (/usr/local/go/test/codegen/mapaccess.go:283)	JMP	0
	0x0000 64 48 8b 0c 25 00 00 00 00 48 8d 84 24 d0 fe ff  dH..%....H..$...
	0x0010 ff 48 3b 41 10 0f 86 cc 07 00 00 48 81 ec b0 01  .H;A.......H....
	0x0020 00 00 48 89 ac 24 a8 01 00 00 48 8d ac 24 a8 01  ..H..$....H..$..
	0x0030 00 00 0f 57 c0 0f 11 84 24 88 00 00 00 0f 11 84  ...W....$.......
	0x0040 24 98 00 00 00 0f 11 84 24 a8 00 00 00 48 8d bc  $.......$....H..
	0x0050 24 b8 00 00 00 48 8d 7f f0 0f 1f 80 00 00 00 00  $....H..........
	0x0060 48 89 6c 24 f0 48 8d 6c 24 f0 e8 00 00 00 00 48  H.l$.H.l$......H
	0x0070 8b 6d 00 48 8d 84 24 b8 00 00 00 48 89 84 24 98  .m.H..$....H..$.
	0x0080 00 00 00 e8 00 00 00 00 8b 04 24 89 84 24 94 00  ..........$..$..
	0x0090 00 00 48 8d 05 00 00 00 00 48 89 04 24 48 8d 8c  ..H......H..$H..
	0x00a0 24 88 00 00 00 48 89 4c 24 08 c7 44 24 10 00 00  $....H.L$..D$...
	0x00b0 00 00 e8 00 00 00 00 48 8b 44 24 18 48 8b 48 08  .......H.D$.H.H.
	0x00c0 48 8b 10 48 8b 58 10 48 8d 71 01 48 39 de 0f 87  H..H.X.H.q.H9...
	0x00d0 b3 06 00 00 48 8d 59 01 48 89 58 08 c7 04 8a 01  ....H.Y.H.X.....
	0x00e0 00 00 00 48 8d 05 00 00 00 00 48 89 04 24 48 8d  ...H......H..$H.
	0x00f0 8c 24 88 00 00 00 48 89 4c 24 08 c7 44 24 10 00  .$....H.L$..D$..
	0x0100 00 00 00 e8 00 00 00 00 48 8b 44 24 18 48 8b 48  ........H.D$.H.H
	0x0110 08 48 8b 10 48 8b 58 10 48 8d 71 03 0f 1f 40 00  .H..H.X.H.q...@.
	0x0120 48 39 de 0f 87 fc 05 00 00 48 8d 59 03 48 89 58  H9.......H.Y.H.X
	0x0130 08 c7 04 8a 01 00 00 00 c7 44 8a 04 02 00 00 00  .........D......
	0x0140 c7 44 8a 08 03 00 00 00 48 8d 05 00 00 00 00 48  .D......H......H
	0x0150 89 04 24 e8 00 00 00 00 48 8b 44 24 08 48 89 84  ..$.....H.D$.H..
	0x0160 24 80 00 00 00 48 b9 07 00 00 00 08 00 00 00 48  $....H.........H
	0x0170 89 08 48 c7 40 08 09 00 00 00 48 8d 0d 00 00 00  ..H.@.....H.....
	0x0180 00 48 89 0c 24 48 8d 94 24 88 00 00 00 48 89 54  .H..$H..$....H.T
	0x0190 24 08 c7 44 24 10 00 00 00 00 e8 00 00 00 00 48  $..D$..........H
	0x01a0 8b 7c 24 18 48 8b 47 08 48 8b 4f 10 48 8b 17 48  .|$.H.G.H.O.H..H
	0x01b0 8d 58 04 48 39 cb 0f 87 15 05 00 00 48 8d 04 82  .X.H9.......H...
	0x01c0 48 8b b4 24 80 00 00 00 0f 10 06 0f 11 00 48 89  H..$..........H.
	0x01d0 5f 08 48 89 4f 10 83 3d 00 00 00 00 00 0f 1f 00  _.H.O..=........
	0x01e0 0f 85 e1 04 00 00 48 89 17 48 8d 05 00 00 00 00  ......H..H......
	0x01f0 48 89 04 24 48 8d 8c 24 88 00 00 00 48 89 4c 24  H..$H..$....H.L$
	0x0200 08 c7 44 24 10 01 00 00 00 e8 00 00 00 00 48 8b  ..D$..........H.
	0x0210 7c 24 18 48 8b 47 08 48 8b 4f 10 48 8b 17 48 8d  |$.H.G.H.O.H..H.
	0x0220 58 04 48 39 cb 0f 87 4b 04 00 00 48 8d 04 82 48  X.H9...K...H...H
	0x0230 8b b4 24 80 00 00 00 0f 10 06 0f 11 00 48 89 5f  ..$..........H._
	0x0240 08 48 89 4f 10 83 3d 00 00 00 00 00 0f 85 1a 04  .H.O..=.........
	0x0250 00 00 48 89 17 48 8d 05 00 00 00 00 48 89 04 24  ..H..H......H..$
	0x0260 48 8d 8c 24 88 00 00 00 48 89 4c 24 08 c7 44 24  H..$....H.L$..D$
	0x0270 10 00 00 00 00 e8 00 00 00 00 48 8b 7c 24 18 48  ..........H.|$.H
	0x0280 8b 47 08 48 8b 4f 10 48 8b 17 48 8d 58 04 48 39  .G.H.O.H..H.X.H9
	0x0290 d9 0f 82 84 03 00 00 48 8d 04 82 48 8b b4 24 80  .......H...H..$.
	0x02a0 00 00 00 0f 10 06 0f 11 00 48 89 5f 08 48 89 4f  .........H._.H.O
	0x02b0 10 83 3d 00 00 00 00 00 0f 85 53 03 00 00 48 89  ..=.......S...H.
	0x02c0 17 48 8d 05 00 00 00 00 48 89 04 24 48 8d 8c 24  .H......H..$H..$
	0x02d0 88 00 00 00 48 89 4c 24 08 c7 44 24 10 00 00 00  ....H.L$..D$....
	0x02e0 00 e8 00 00 00 00 48 8b 44 24 18 48 8b 48 08 48  ......H.D$.H.H.H
	0x02f0 8d 51 04 48 89 54 24 48 48 8b 00 0f 1f 44 00 00  .Q.H.T$HH....D..
	0x0300 48 83 fa 04 0f 87 b0 02 00 00 48 8b 9c 24 80 00  H.........H..$..
	0x0310 00 00 be 04 00 00 00 48 89 74 24 40 48 89 5c 24  .......H.t$@H.\$
	0x0320 78 48 8d 53 10 48 89 14 24 48 89 44 24 08 48 c1  xH.S.H..$H.D$.H.
	0x0330 e1 02 48 89 4c 24 10 e8 00 00 00 00 48 8d 05 00  ..H.L$......H...
	0x0340 00 00 00 48 89 04 24 48 8d 8c 24 88 00 00 00 48  ...H..$H..$....H
	0x0350 89 4c 24 08 c7 44 24 10 00 00 00 00 0f 1f 40 00  .L$..D$.......@.
	0x0360 e8 00 00 00 00 48 8b 7c 24 18 48 8b 44 24 48 48  .....H.|$.H.D$HH
	0x0370 89 47 08 48 8b 44 24 40 48 89 47 10 83 3d 00 00  .G.H.D$@H.G..=..
	0x0380 00 00 00 0f 85 22 02 00 00 48 8b 44 24 78 48 89  ....."...H.D$xH.
	0x0390 07 48 8d 05 00 00 00 00 48 89 04 24 48 8d 8c 24  .H......H..$H..$
	0x03a0 88 00 00 00 48 89 4c 24 08 c7 44 24 10 00 00 00  ....H.L$..D$....
	0x03b0 00 e8 00 00 00 00 48 8b 44 24 18 48 8b 48 08 48  ......H.D$.H.H.H
	0x03c0 8d 51 01 48 8b 58 10 48 8b 00 48 39 da 0f 87 92  .Q.H.X.H..H9....
	0x03d0 01 00 00 48 89 44 24 78 48 89 54 24 48 48 89 5c  ...H.D$xH.T$HH.\
	0x03e0 24 40 c7 04 88 63 00 00 00 0f b6 0d 00 00 00 00  $@...c..........
	0x03f0 83 f1 01 88 0d 00 00 00 00 48 8d 0d 00 00 00 00  .........H......
	0x0400 48 89 0c 24 48 8d b4 24 88 00 00 00 48 89 74 24  H..$H..$....H.t$
	0x0410 08 c7 44 24 10 00 00 00 00 e8 00 00 00 00 48 8b  ..D$..........H.
	0x0420 7c 24 18 48 8b 44 24 48 48 89 47 08 48 8b 44 24  |$.H.D$HH.G.H.D$
	0x0430 40 48 89 47 10 83 3d 00 00 00 00 00 0f 1f 40 00  @H.G..=.......@.
	0x0440 0f 85 0f 01 00 00 48 8b 44 24 78 48 89 07 48 8d  ......H.D$xH..H.
	0x0450 05 00 00 00 00 48 89 04 24 48 8d 8c 24 88 00 00  .....H..$H..$...
	0x0460 00 48 89 4c 24 08 c7 44 24 10 01 00 00 00 e8 00  .H.L$..D$.......
	0x0470 00 00 00 48 8b 44 24 18 48 8b 48 08 48 8d 51 01  ...H.D$.H.H.H.Q.
	0x0480 48 8b 58 10 48 8b 00 48 39 d3 0f 82 7f 00 00 00  H.X.H..H9.......
	0x0490 48 89 44 24 78 48 89 54 24 48 48 89 5c 24 40 c7  H.D$xH.T$HH.\$@.
	0x04a0 04 88 64 00 00 00 48 8d 0d 00 00 00 00 48 89 0c  ..d...H......H..
	0x04b0 24 48 8d 8c 24 88 00 00 00 48 89 4c 24 08 c7 44  $H..$....H.L$..D
	0x04c0 24 10 00 00 00 00 e8 00 00 00 00 48 8b 7c 24 18  $..........H.|$.
	0x04d0 48 8b 44 24 48 48 89 47 08 48 8b 44 24 40 48 89  H.D$HH.G.H.D$@H.
	0x04e0 47 10 83 3d 00 00 00 00 00 75 18 48 8b 44 24 78  G..=.....u.H.D$x
	0x04f0 48 89 07 48 8b ac 24 a8 01 00 00 48 81 c4 b0 01  H..H..$....H....
	0x0500 00 00 c3 48 8b 44 24 78 e8 00 00 00 00 eb e4 48  ...H.D$x.......H
	0x0510 89 4c 24 48 48 8d 35 00 00 00 00 48 89 34 24 48  .L$HH.5....H.4$H
	0x0520 89 44 24 08 48 89 4c 24 10 48 89 5c 24 18 48 89  .D$.H.L$.H.\$.H.
	0x0530 54 24 20 e8 00 00 00 00 48 8b 44 24 28 48 8b 4c  T$ .....H.D$(H.L
	0x0540 24 30 48 8b 5c 24 38 48 8d 51 01 48 8b 4c 24 48  $0H.\$8H.Q.H.L$H
	0x0550 e9 3b ff ff ff 48 8b 44 24 78 e8 00 00 00 00 90  .;...H.D$x......
	0x0560 e9 e9 fe ff ff 48 89 4c 24 48 48 8d 35 00 00 00  .....H.L$HH.5...
	0x0570 00 48 89 34 24 48 89 44 24 08 48 89 4c 24 10 48  .H.4$H.D$.H.L$.H
	0x0580 89 5c 24 18 48 89 54 24 20 e8 00 00 00 00 48 8b  .\$.H.T$ .....H.
	0x0590 44 24 28 48 8b 4c 24 30 48 8b 5c 24 38 48 8d 51  D$(H.L$0H.\$8H.Q
	0x05a0 01 48 8b 4c 24 48 e9 28 fe ff ff 48 8b 44 24 78  .H.L$H.(...H.D$x
	0x05b0 e8 00 00 00 00 e9 d7 fd ff ff 48 89 44 24 78 48  ..........H.D$xH
	0x05c0 89 4c 24 40 48 8d 05 00 00 00 00 48 89 04 24 48  .L$@H......H..$H
	0x05d0 8b 8c 24 80 00 00 00 48 89 4c 24 08 48 c7 44 24  ..$....H.L$.H.D$
	0x05e0 10 04 00 00 00 48 c7 44 24 18 04 00 00 00 48 89  .....H.D$.....H.
	0x05f0 54 24 20 e8 00 00 00 00 48 8b 5c 24 28 48 8b 74  T$ .....H.\$(H.t
	0x0600 24 38 48 8b 44 24 78 48 8b 4c 24 40 e9 06 fd ff  $8H.D$xH.L$@....
	0x0610 ff e8 00 00 00 00 e9 a6 fc ff ff 48 89 7c 24 70  ...........H.|$p
	0x0620 48 89 44 24 48 48 89 5c 24 40 48 8d 35 00 00 00  H.D$HH.\$@H.5...
	0x0630 00 48 89 34 24 48 89 54 24 08 48 89 44 24 10 48  .H.4$H.T$.H.D$.H
	0x0640 89 4c 24 18 48 89 5c 24 20 e8 00 00 00 00 48 8b  .L$.H.\$ .....H.
	0x0650 54 24 28 48 8b 4c 24 38 48 8b 44 24 48 48 8b 5c  T$(H.L$8H.D$HH.\
	0x0660 24 40 48 8b 7c 24 70 e9 2b fc ff ff e8 00 00 00  $@H.|$p.+.......
	0x0670 00 e9 df fb ff ff 48 89 7c 24 68 48 89 5c 24 48  ......H.|$hH.\$H
	0x0680 48 89 44 24 40 48 8d 35 00 00 00 00 48 89 34 24  H.D$@H.5....H.4$
	0x0690 48 89 54 24 08 48 89 44 24 10 48 89 4c 24 18 48  H.T$.H.D$.H.L$.H
	0x06a0 89 5c 24 20 e8 00 00 00 00 48 8b 54 24 28 48 8b  .\$ .....H.T$(H.
	0x06b0 4c 24 38 48 8b 44 24 40 48 8b 5c 24 48 48 8b 7c  L$8H.D$@H.\$HH.|
	0x06c0 24 68 e9 64 fb ff ff e8 00 00 00 00 e9 18 fb ff  $h.d............
	0x06d0 ff 48 89 7c 24 60 48 89 5c 24 48 48 89 44 24 40  .H.|$`H.\$HH.D$@
	0x06e0 48 8d 35 00 00 00 00 48 89 34 24 48 89 54 24 08  H.5....H.4$H.T$.
	0x06f0 48 89 44 24 10 48 89 4c 24 18 48 89 5c 24 20 90  H.D$.H.L$.H.\$ .
	0x0700 e8 00 00 00 00 48 8b 54 24 28 48 8b 4c 24 38 48  .....H.T$(H.L$8H
	0x0710 8b 44 24 40 48 8b 5c 24 48 48 8b 7c 24 60 66 90  .D$@H.\$HH.|$`f.
	0x0720 e9 97 fa ff ff 48 89 44 24 58 48 8d 05 00 00 00  .....H.D$XH.....
	0x0730 00 48 89 04 24 48 89 54 24 08 48 89 4c 24 10 48  .H..$H.T$.H.L$.H
	0x0740 89 5c 24 18 48 89 74 24 20 e8 00 00 00 00 48 8b  .\$.H.t$ .....H.
	0x0750 44 24 28 48 8b 4c 24 30 48 8b 54 24 38 48 8b 7c  D$(H.L$0H.T$8H.|
	0x0760 24 58 48 89 57 10 83 3d 00 00 00 00 00 75 0e 48  $XH.W..=.....u.H
	0x0770 89 07 48 89 c2 48 89 f8 e9 ac f9 ff ff 0f 1f 00  ..H..H..........
	0x0780 e8 00 00 00 00 eb eb 48 89 44 24 50 48 8d 05 00  .......H.D$PH...
	0x0790 00 00 00 48 89 04 24 48 89 54 24 08 48 89 4c 24  ...H..$H.T$.H.L$
	0x07a0 10 48 89 5c 24 18 48 89 74 24 20 e8 00 00 00 00  .H.\$.H.t$ .....
	0x07b0 48 8b 44 24 28 48 8b 4c 24 30 48 8b 54 24 38 48  H.D$(H.L$0H.T$8H
	0x07c0 8b 7c 24 50 48 89 57 10 83 3d 00 00 00 00 00 75  .|$PH.W..=.....u
	0x07d0 0e 48 89 07 48 89 c2 48 89 f8 e9 f5 f8 ff ff 90  .H..H..H........
	0x07e0 e8 00 00 00 00 eb ed e8 00 00 00 00 e9 0f f8 ff  ................
	0x07f0 ff                                               .
	rel 5+4 t=17 TLS+0
	rel 107+4 t=8 runtime.duffzero+231
	rel 132+4 t=8 runtime.fastrand+0
	rel 149+4 t=16 type.map[int32][]int32+0
	rel 179+4 t=8 runtime.mapassign_fast32+0
	rel 230+4 t=16 type.map[int32][]int32+0
	rel 260+4 t=8 runtime.mapassign_fast32+0
	rel 331+4 t=16 type.[4]int32+0
	rel 340+4 t=8 runtime.newobject+0
	rel 381+4 t=16 type.map[int32][]int32+0
	rel 411+4 t=8 runtime.mapassign_fast32+0
	rel 472+4 t=16 runtime.writeBarrier+-1
	rel 492+4 t=16 type.map[int32][]int32+0
	rel 522+4 t=8 runtime.mapassign_fast32+0
	rel 583+4 t=16 runtime.writeBarrier+-1
	rel 600+4 t=16 type.map[int32][]int32+0
	rel 630+4 t=8 runtime.mapassign_fast32+0
	rel 691+4 t=16 runtime.writeBarrier+-1
	rel 708+4 t=16 type.map[int32][]int32+0
	rel 738+4 t=8 runtime.mapaccess1_fast32+0
	rel 824+4 t=8 runtime.memmove+0
	rel 831+4 t=16 type.map[int32][]int32+0
	rel 865+4 t=8 runtime.mapassign_fast32+0
	rel 894+4 t=16 runtime.writeBarrier+-1
	rel 916+4 t=16 type.map[int32][]int32+0
	rel 946+4 t=8 runtime.mapaccess1_fast32+0
	rel 1004+4 t=16 "".sinkAppend+0
	rel 1013+4 t=16 "".sinkAppend+0
	rel 1020+4 t=16 type.map[int32][]int32+0
	rel 1050+4 t=8 runtime.mapassign_fast32+0
	rel 1079+4 t=16 runtime.writeBarrier+-1
	rel 1105+4 t=16 type.map[int32][]int32+0
	rel 1135+4 t=8 runtime.mapaccess1_fast32+0
	rel 1193+4 t=16 type.map[int32][]int32+0
	rel 1223+4 t=8 runtime.mapassign_fast32+0
	rel 1252+4 t=16 runtime.writeBarrier+-1
	rel 1289+4 t=8 runtime.gcWriteBarrier+0
	rel 1303+4 t=16 type.int32+0
	rel 1332+4 t=8 runtime.growslice+0
	rel 1371+4 t=8 runtime.gcWriteBarrier+0
	rel 1389+4 t=16 type.int32+0
	rel 1418+4 t=8 runtime.growslice+0
	rel 1457+4 t=8 runtime.gcWriteBarrier+0
	rel 1479+4 t=16 type.int32+0
	rel 1524+4 t=8 runtime.growslice+0
	rel 1554+4 t=8 runtime.gcWriteBarrierDX+0
	rel 1581+4 t=16 type.int32+0
	rel 1610+4 t=8 runtime.growslice+0
	rel 1645+4 t=8 runtime.gcWriteBarrierDX+0
	rel 1672+4 t=16 type.int32+0
	rel 1701+4 t=8 runtime.growslice+0
	rel 1736+4 t=8 runtime.gcWriteBarrierDX+0
	rel 1763+4 t=16 type.int32+0
	rel 1793+4 t=8 runtime.growslice+0
	rel 1837+4 t=16 type.int32+0
	rel 1866+4 t=8 runtime.growslice+0
	rel 1896+4 t=16 runtime.writeBarrier+-1
	rel 1921+4 t=8 runtime.gcWriteBarrier+0
	rel 1935+4 t=16 type.int32+0
	rel 1964+4 t=8 runtime.growslice+0
	rel 1994+4 t=16 runtime.writeBarrier+-1
	rel 2017+4 t=8 runtime.gcWriteBarrier+0
	rel 2024+4 t=8 runtime.morestack_noctxt+0
"".mapAppendAssignmentInt64 STEXT size=2193 args=0x0 locals=0x1d0
	0x0000 00000 (/usr/local/go/test/codegen/mapaccess.go:340)	TEXT	"".mapAppendAssignmentInt64(SB), ABIInternal, $464-0
	0x0000 00000 (/usr/local/go/test/codegen/mapaccess.go:340)	MOVQ	(TLS), CX
	0x0009 00009 (/usr/local/go/test/codegen/mapaccess.go:340)	LEAQ	-336(SP), AX
	0x0011 00017 (/usr/local/go/test/codegen/mapaccess.go:340)	CMPQ	AX, 16(CX)
	0x0015 00021 (/usr/local/go/test/codegen/mapaccess.go:340)	PCDATA	$0, $-2
	0x0015 00021 (/usr/local/go/test/codegen/mapaccess.go:340)	JLS	2183
	0x001b 00027 (/usr/local/go/test/codegen/mapaccess.go:340)	PCDATA	$0, $-1
	0x001b 00027 (/usr/local/go/test/codegen/mapaccess.go:340)	SUBQ	$464, SP
	0x0022 00034 (/usr/local/go/test/codegen/mapaccess.go:340)	MOVQ	BP, 456(SP)
	0x002a 00042 (/usr/local/go/test/codegen/mapaccess.go:340)	LEAQ	456(SP), BP
	0x0032 00050 (/usr/local/go/test/codegen/mapaccess.go:340)	FUNCDATA	$0, gclocals·e8db777ce92139db987e9ac3a2e92eec(SB)
	0x0032 00050 (/usr/local/go/test/codegen/mapaccess.go:340)	FUNCDATA	$1, gclocals·5c1c843c20f598b50cb7e23096597f5d(SB)
	0x0032 00050 (/usr/local/go/test/codegen/mapaccess.go:340)	FUNCDATA	$3, "".mapAppendAssignmentInt64.stkobj(SB)
	0x0032 00050 (/usr/local/go/test/codegen/mapaccess.go:341)	XORPS	X0, X0
	0x0035 00053 (/usr/local/go/test/codegen/mapaccess.go:341)	MOVUPS	X0, ""..autotmp_7+136(SP)
	0x003d 00061 (/usr/local/go/test/codegen/mapaccess.go:341)	MOVUPS	X0, ""..autotmp_7+152(SP)
	0x0045 00069 (/usr/local/go/test/codegen/mapaccess.go:341)	MOVUPS	X0, ""..autotmp_7+168(SP)
	0x004d 00077 (/usr/local/go/test/codegen/mapaccess.go:341)	LEAQ	""..autotmp_8+184(SP), DI
	0x0055 00085 (/usr/local/go/test/codegen/mapaccess.go:341)	LEAQ	-48(DI), DI
	0x0059 00089 (/usr/local/go/test/codegen/mapaccess.go:341)	NOP
	0x0060 00096 (/usr/local/go/test/codegen/mapaccess.go:341)	DUFFZERO	$220
	0x0073 00115 (/usr/local/go/test/codegen/mapaccess.go:341)	LEAQ	""..autotmp_8+184(SP), AX
	0x007b 00123 (/usr/local/go/test/codegen/mapaccess.go:341)	MOVQ	AX, ""..autotmp_7+152(SP)
	0x0083 00131 (/usr/local/go/test/codegen/mapaccess.go:341)	PCDATA	$1, $1
	0x0083 00131 (/usr/local/go/test/codegen/mapaccess.go:341)	CALL	runtime.fastrand(SB)
	0x0088 00136 (/usr/local/go/test/codegen/mapaccess.go:341)	MOVL	(SP), AX
	0x008b 00139 (/usr/local/go/test/codegen/mapaccess.go:341)	MOVL	AX, ""..autotmp_7+148(SP)
	0x0092 00146 (/usr/local/go/test/codegen/mapaccess.go:348)	LEAQ	type.map[int64][]int64(SB), AX
	0x0099 00153 (/usr/local/go/test/codegen/mapaccess.go:348)	MOVQ	AX, (SP)
	0x009d 00157 (/usr/local/go/test/codegen/mapaccess.go:348)	LEAQ	""..autotmp_7+136(SP), CX
	0x00a5 00165 (/usr/local/go/test/codegen/mapaccess.go:348)	MOVQ	CX, 8(SP)
	0x00aa 00170 (/usr/local/go/test/codegen/mapaccess.go:348)	MOVQ	$0, 16(SP)
	0x00b3 00179 (/usr/local/go/test/codegen/mapaccess.go:348)	CALL	runtime.mapassign_fast64(SB)
	0x00b8 00184 (/usr/local/go/test/codegen/mapaccess.go:348)	MOVQ	24(SP), AX
	0x00bd 00189 (/usr/local/go/test/codegen/mapaccess.go:348)	MOVQ	8(AX), CX
	0x00c1 00193 (/usr/local/go/test/codegen/mapaccess.go:348)	MOVQ	(AX), DX
	0x00c4 00196 (/usr/local/go/test/codegen/mapaccess.go:348)	MOVQ	16(AX), BX
	0x00c8 00200 (/usr/local/go/test/codegen/mapaccess.go:348)	LEAQ	1(CX), SI
	0x00cc 00204 (/usr/local/go/test/codegen/mapaccess.go:348)	CMPQ	SI, BX
	0x00cf 00207 (/usr/local/go/test/codegen/mapaccess.go:348)	JHI	2087
	0x00d5 00213 (/usr/local/go/test/codegen/mapaccess.go:348)	LEAQ	1(CX), BX
	0x00d9 00217 (/usr/local/go/test/codegen/mapaccess.go:348)	MOVQ	BX, 8(AX)
	0x00dd 00221 (/usr/local/go/test/codegen/mapaccess.go:348)	MOVQ	$1, (DX)(CX*8)
	0x00e5 00229 (/usr/local/go/test/codegen/mapaccess.go:354)	LEAQ	type.map[int64][]int64(SB), AX
	0x00ec 00236 (/usr/local/go/test/codegen/mapaccess.go:354)	MOVQ	AX, (SP)
	0x00f0 00240 (/usr/local/go/test/codegen/mapaccess.go:354)	LEAQ	""..autotmp_7+136(SP), CX
	0x00f8 00248 (/usr/local/go/test/codegen/mapaccess.go:354)	MOVQ	CX, 8(SP)
	0x00fd 00253 (/usr/local/go/test/codegen/mapaccess.go:354)	MOVQ	$0, 16(SP)
	0x0106 00262 (/usr/local/go/test/codegen/mapaccess.go:354)	CALL	runtime.mapassign_fast64(SB)
	0x010b 00267 (/usr/local/go/test/codegen/mapaccess.go:354)	MOVQ	24(SP), AX
	0x0110 00272 (/usr/local/go/test/codegen/mapaccess.go:354)	MOVQ	8(AX), CX
	0x0114 00276 (/usr/local/go/test/codegen/mapaccess.go:354)	MOVQ	(AX), DX
	0x0117 00279 (/usr/local/go/test/codegen/mapaccess.go:354)	MOVQ	16(AX), BX
	0x011b 00283 (/usr/local/go/test/codegen/mapaccess.go:354)	LEAQ	3(CX), SI
	0x011f 00287 (/usr/local/go/test/codegen/mapaccess.go:354)	NOP
	0x0120 00288 (/usr/local/go/test/codegen/mapaccess.go:354)	CMPQ	SI, BX
	0x0123 00291 (/usr/local/go/test/codegen/mapaccess.go:354)	JHI	1989
	0x0129 00297 (/usr/local/go/test/codegen/mapaccess.go:354)	LEAQ	3(CX), BX
	0x012d 00301 (/usr/local/go/test/codegen/mapaccess.go:354)	MOVQ	BX, 8(AX)
	0x0131 00305 (/usr/local/go/test/codegen/mapaccess.go:354)	MOVQ	$1, (DX)(CX*8)
	0x0139 00313 (/usr/local/go/test/codegen/mapaccess.go:354)	MOVQ	$2, 8(DX)(CX*8)
	0x0142 00322 (/usr/local/go/test/codegen/mapaccess.go:354)	MOVQ	$3, 16(DX)(CX*8)
	0x014b 00331 (/usr/local/go/test/codegen/mapaccess.go:356)	LEAQ	type.[4]int64(SB), AX
	0x0152 00338 (/usr/local/go/test/codegen/mapaccess.go:356)	MOVQ	AX, (SP)
	0x0156 00342 (/usr/local/go/test/codegen/mapaccess.go:356)	CALL	runtime.newobject(SB)
	0x015b 00347 (/usr/local/go/test/codegen/mapaccess.go:356)	MOVQ	8(SP), AX
	0x0160 00352 (/usr/local/go/test/codegen/mapaccess.go:356)	MOVQ	AX, ""..autotmp_45+128(SP)
	0x0168 00360 (/usr/local/go/test/codegen/mapaccess.go:356)	MOVQ	$7, (AX)
	0x016f 00367 (/usr/local/go/test/codegen/mapaccess.go:356)	MOVQ	$8, 8(AX)
	0x0177 00375 (/usr/local/go/test/codegen/mapaccess.go:356)	MOVQ	$9, 16(AX)
	0x017f 00383 (/usr/local/go/test/codegen/mapaccess.go:356)	MOVQ	$0, 24(AX)
	0x0187 00391 (/usr/local/go/test/codegen/mapaccess.go:362)	LEAQ	type.map[int64][]int64(SB), CX
	0x018e 00398 (/usr/local/go/test/codegen/mapaccess.go:362)	MOVQ	CX, (SP)
	0x0192 00402 (/usr/local/go/test/codegen/mapaccess.go:362)	LEAQ	""..autotmp_7+136(SP), DX
	0x019a 00410 (/usr/local/go/test/codegen/mapaccess.go:362)	MOVQ	DX, 8(SP)
	0x019f 00415 (/usr/local/go/test/codegen/mapaccess.go:362)	MOVQ	$0, 16(SP)
	0x01a8 00424 (/usr/local/go/test/codegen/mapaccess.go:362)	PCDATA	$1, $2
	0x01a8 00424 (/usr/local/go/test/codegen/mapaccess.go:362)	CALL	runtime.mapassign_fast64(SB)
	0x01ad 00429 (/usr/local/go/test/codegen/mapaccess.go:362)	MOVQ	24(SP), AX
	0x01b2 00434 (/usr/local/go/test/codegen/mapaccess.go:362)	MOVQ	AX, ""..autotmp_46+120(SP)
	0x01b7 00439 (/usr/local/go/test/codegen/mapaccess.go:362)	MOVQ	8(AX), CX
	0x01bb 00443 (/usr/local/go/test/codegen/mapaccess.go:362)	MOVQ	16(AX), DX
	0x01bf 00447 (/usr/local/go/test/codegen/mapaccess.go:362)	MOVQ	(AX), BX
	0x01c2 00450 (/usr/local/go/test/codegen/mapaccess.go:362)	LEAQ	4(CX), SI
	0x01c6 00454 (/usr/local/go/test/codegen/mapaccess.go:362)	MOVQ	SI, ""..autotmp_47+72(SP)
	0x01cb 00459 (/usr/local/go/test/codegen/mapaccess.go:362)	CMPQ	SI, DX
	0x01ce 00462 (/usr/local/go/test/codegen/mapaccess.go:362)	JHI	1925
	0x01d4 00468 (/usr/local/go/test/codegen/mapaccess.go:362)	MOVQ	DX, ""..autotmp_48+64(SP)
	0x01d9 00473 (/usr/local/go/test/codegen/mapaccess.go:362)	MOVQ	BX, ""..autotmp_49+112(SP)
	0x01de 00478 (/usr/local/go/test/codegen/mapaccess.go:362)	LEAQ	(BX)(CX*8), AX
	0x01e2 00482 (/usr/local/go/test/codegen/mapaccess.go:362)	MOVQ	AX, (SP)
	0x01e6 00486 (/usr/local/go/test/codegen/mapaccess.go:362)	MOVQ	""..autotmp_45+128(SP), AX
	0x01ee 00494 (/usr/local/go/test/codegen/mapaccess.go:362)	MOVQ	AX, 8(SP)
	0x01f3 00499 (/usr/local/go/test/codegen/mapaccess.go:362)	MOVQ	$32, 16(SP)
	0x01fc 00508 (/usr/local/go/test/codegen/mapaccess.go:362)	PCDATA	$1, $3
	0x01fc 00508 (/usr/local/go/test/codegen/mapaccess.go:362)	NOP
	0x0200 00512 (/usr/local/go/test/codegen/mapaccess.go:362)	CALL	runtime.memmove(SB)
	0x0205 00517 (/usr/local/go/test/codegen/mapaccess.go:362)	MOVQ	""..autotmp_47+72(SP), AX
	0x020a 00522 (/usr/local/go/test/codegen/mapaccess.go:362)	MOVQ	""..autotmp_46+120(SP), DI
	0x020f 00527 (/usr/local/go/test/codegen/mapaccess.go:362)	MOVQ	AX, 8(DI)
	0x0213 00531 (/usr/local/go/test/codegen/mapaccess.go:362)	MOVQ	""..autotmp_48+64(SP), AX
	0x0218 00536 (/usr/local/go/test/codegen/mapaccess.go:362)	MOVQ	AX, 16(DI)
	0x021c 00540 (/usr/local/go/test/codegen/mapaccess.go:362)	PCDATA	$0, $-2
	0x021c 00540 (/usr/local/go/test/codegen/mapaccess.go:362)	CMPL	runtime.writeBarrier(SB), $0
	0x0223 00547 (/usr/local/go/test/codegen/mapaccess.go:362)	JNE	1907
	0x0229 00553 (/usr/local/go/test/codegen/mapaccess.go:362)	MOVQ	""..autotmp_49+112(SP), AX
	0x022e 00558 (/usr/local/go/test/codegen/mapaccess.go:362)	MOVQ	AX, (DI)
	0x0231 00561 (/usr/local/go/test/codegen/mapaccess.go:368)	PCDATA	$0, $-1
	0x0231 00561 (/usr/local/go/test/codegen/mapaccess.go:368)	LEAQ	type.map[int64][]int64(SB), AX
	0x0238 00568 (/usr/local/go/test/codegen/mapaccess.go:368)	MOVQ	AX, (SP)
	0x023c 00572 (/usr/local/go/test/codegen/mapaccess.go:368)	LEAQ	""..autotmp_7+136(SP), CX
	0x0244 00580 (/usr/local/go/test/codegen/mapaccess.go:368)	MOVQ	CX, 8(SP)
	0x0249 00585 (/usr/local/go/test/codegen/mapaccess.go:368)	MOVQ	$1, 16(SP)
	0x0252 00594 (/usr/local/go/test/codegen/mapaccess.go:368)	PCDATA	$1, $2
	0x0252 00594 (/usr/local/go/test/codegen/mapaccess.go:368)	CALL	runtime.mapassign_fast64(SB)
	0x0257 00599 (/usr/local/go/test/codegen/mapaccess.go:368)	MOVQ	24(SP), AX
	0x025c 00604 (/usr/local/go/test/codegen/mapaccess.go:368)	MOVQ	AX, ""..autotmp_50+104(SP)
	0x0261 00609 (/usr/local/go/test/codegen/mapaccess.go:368)	MOVQ	8(AX), CX
	0x0265 00613 (/usr/local/go/test/codegen/mapaccess.go:368)	MOVQ	16(AX), DX
	0x0269 00617 (/usr/local/go/test/codegen/mapaccess.go:368)	MOVQ	(AX), BX
	0x026c 00620 (/usr/local/go/test/codegen/mapaccess.go:368)	LEAQ	4(CX), SI
	0x0270 00624 (/usr/local/go/test/codegen/mapaccess.go:368)	MOVQ	SI, ""..autotmp_47+72(SP)
	0x0275 00629 (/usr/local/go/test/codegen/mapaccess.go:368)	CMPQ	SI, DX
	0x0278 00632 (/usr/local/go/test/codegen/mapaccess.go:368)	JHI	1846
	0x027e 00638 (/usr/local/go/test/codegen/mapaccess.go:368)	MOVQ	DX, ""..autotmp_48+64(SP)
	0x0283 00643 (/usr/local/go/test/codegen/mapaccess.go:368)	MOVQ	BX, ""..autotmp_49+112(SP)
	0x0288 00648 (/usr/local/go/test/codegen/mapaccess.go:368)	LEAQ	(BX)(CX*8), AX
	0x028c 00652 (/usr/local/go/test/codegen/mapaccess.go:368)	MOVQ	AX, (SP)
	0x0290 00656 (/usr/local/go/test/codegen/mapaccess.go:368)	MOVQ	""..autotmp_45+128(SP), AX
	0x0298 00664 (/usr/local/go/test/codegen/mapaccess.go:368)	MOVQ	AX, 8(SP)
	0x029d 00669 (/usr/local/go/test/codegen/mapaccess.go:368)	MOVQ	$32, 16(SP)
	0x02a6 00678 (/usr/local/go/test/codegen/mapaccess.go:368)	PCDATA	$1, $4
	0x02a6 00678 (/usr/local/go/test/codegen/mapaccess.go:368)	CALL	runtime.memmove(SB)
	0x02ab 00683 (/usr/local/go/test/codegen/mapaccess.go:368)	MOVQ	""..autotmp_47+72(SP), AX
	0x02b0 00688 (/usr/local/go/test/codegen/mapaccess.go:368)	MOVQ	""..autotmp_50+104(SP), DI
	0x02b5 00693 (/usr/local/go/test/codegen/mapaccess.go:368)	MOVQ	AX, 8(DI)
	0x02b9 00697 (/usr/local/go/test/codegen/mapaccess.go:368)	MOVQ	""..autotmp_48+64(SP), AX
	0x02be 00702 (/usr/local/go/test/codegen/mapaccess.go:368)	MOVQ	AX, 16(DI)
	0x02c2 00706 (/usr/local/go/test/codegen/mapaccess.go:368)	PCDATA	$0, $-2
	0x02c2 00706 (/usr/local/go/test/codegen/mapaccess.go:368)	CMPL	runtime.writeBarrier(SB), $0
	0x02c9 00713 (/usr/local/go/test/codegen/mapaccess.go:368)	JNE	1831
	0x02cf 00719 (/usr/local/go/test/codegen/mapaccess.go:368)	MOVQ	""..autotmp_49+112(SP), AX
	0x02d4 00724 (/usr/local/go/test/codegen/mapaccess.go:368)	MOVQ	AX, (DI)
	0x02d7 00727 (/usr/local/go/test/codegen/mapaccess.go:374)	PCDATA	$0, $-1
	0x02d7 00727 (/usr/local/go/test/codegen/mapaccess.go:374)	LEAQ	type.map[int64][]int64(SB), AX
	0x02de 00734 (/usr/local/go/test/codegen/mapaccess.go:374)	MOVQ	AX, (SP)
	0x02e2 00738 (/usr/local/go/test/codegen/mapaccess.go:374)	LEAQ	""..autotmp_7+136(SP), CX
	0x02ea 00746 (/usr/local/go/test/codegen/mapaccess.go:374)	MOVQ	CX, 8(SP)
	0x02ef 00751 (/usr/local/go/test/codegen/mapaccess.go:374)	MOVQ	$0, 16(SP)
	0x02f8 00760 (/usr/local/go/test/codegen/mapaccess.go:374)	PCDATA	$1, $2
	0x02f8 00760 (/usr/local/go/test/codegen/mapaccess.go:374)	CALL	runtime.mapassign_fast64(SB)
	0x02fd 00765 (/usr/local/go/test/codegen/mapaccess.go:374)	MOVQ	24(SP), AX
	0x0302 00770 (/usr/local/go/test/codegen/mapaccess.go:374)	MOVQ	AX, ""..autotmp_51+96(SP)
	0x0307 00775 (/usr/local/go/test/codegen/mapaccess.go:374)	MOVQ	8(AX), CX
	0x030b 00779 (/usr/local/go/test/codegen/mapaccess.go:374)	MOVQ	16(AX), DX
	0x030f 00783 (/usr/local/go/test/codegen/mapaccess.go:374)	MOVQ	(AX), BX
	0x0312 00786 (/usr/local/go/test/codegen/mapaccess.go:374)	LEAQ	4(CX), SI
	0x0316 00790 (/usr/local/go/test/codegen/mapaccess.go:374)	MOVQ	SI, ""..autotmp_47+72(SP)
	0x031b 00795 (/usr/local/go/test/codegen/mapaccess.go:374)	NOP
	0x0320 00800 (/usr/local/go/test/codegen/mapaccess.go:374)	CMPQ	DX, SI
	0x0323 00803 (/usr/local/go/test/codegen/mapaccess.go:374)	JCS	1770
	0x0329 00809 (/usr/local/go/test/codegen/mapaccess.go:374)	MOVQ	DX, ""..autotmp_48+64(SP)
	0x032e 00814 (/usr/local/go/test/codegen/mapaccess.go:374)	MOVQ	BX, ""..autotmp_49+112(SP)
	0x0333 00819 (/usr/local/go/test/codegen/mapaccess.go:374)	LEAQ	(BX)(CX*8), AX
	0x0337 00823 (/usr/local/go/test/codegen/mapaccess.go:374)	MOVQ	AX, (SP)
	0x033b 00827 (/usr/local/go/test/codegen/mapaccess.go:374)	MOVQ	""..autotmp_45+128(SP), AX
	0x0343 00835 (/usr/local/go/test/codegen/mapaccess.go:374)	MOVQ	AX, 8(SP)
	0x0348 00840 (/usr/local/go/test/codegen/mapaccess.go:374)	MOVQ	$32, 16(SP)
	0x0351 00849 (/usr/local/go/test/codegen/mapaccess.go:374)	PCDATA	$1, $5
	0x0351 00849 (/usr/local/go/test/codegen/mapaccess.go:374)	CALL	runtime.memmove(SB)
	0x0356 00854 (/usr/local/go/test/codegen/mapaccess.go:374)	MOVQ	""..autotmp_47+72(SP), AX
	0x035b 00859 (/usr/local/go/test/codegen/mapaccess.go:374)	MOVQ	""..autotmp_51+96(SP), DI
	0x0360 00864 (/usr/local/go/test/codegen/mapaccess.go:374)	MOVQ	AX, 8(DI)
	0x0364 00868 (/usr/local/go/test/codegen/mapaccess.go:374)	MOVQ	""..autotmp_48+64(SP), AX
	0x0369 00873 (/usr/local/go/test/codegen/mapaccess.go:374)	MOVQ	AX, 16(DI)
	0x036d 00877 (/usr/local/go/test/codegen/mapaccess.go:374)	PCDATA	$0, $-2
	0x036d 00877 (/usr/local/go/test/codegen/mapaccess.go:374)	CMPL	runtime.writeBarrier(SB), $0
	0x0374 00884 (/usr/local/go/test/codegen/mapaccess.go:374)	JNE	1750
	0x037a 00890 (/usr/local/go/test/codegen/mapaccess.go:374)	MOVQ	""..autotmp_49+112(SP), AX
	0x037f 00895 (/usr/local/go/test/codegen/mapaccess.go:374)	MOVQ	AX, (DI)
	0x0382 00898 (/usr/local/go/test/codegen/mapaccess.go:382)	PCDATA	$0, $-1
	0x0382 00898 (/usr/local/go/test/codegen/mapaccess.go:382)	LEAQ	type.map[int64][]int64(SB), AX
	0x0389 00905 (/usr/local/go/test/codegen/mapaccess.go:382)	MOVQ	AX, (SP)
	0x038d 00909 (/usr/local/go/test/codegen/mapaccess.go:382)	LEAQ	""..autotmp_7+136(SP), CX
	0x0395 00917 (/usr/local/go/test/codegen/mapaccess.go:382)	MOVQ	CX, 8(SP)
	0x039a 00922 (/usr/local/go/test/codegen/mapaccess.go:382)	MOVQ	$0, 16(SP)
	0x03a3 00931 (/usr/local/go/test/codegen/mapaccess.go:382)	PCDATA	$1, $2
	0x03a3 00931 (/usr/local/go/test/codegen/mapaccess.go:382)	CALL	runtime.mapaccess1_fast64(SB)
	0x03a8 00936 (/usr/local/go/test/codegen/mapaccess.go:382)	MOVQ	24(SP), AX
	0x03ad 00941 (/usr/local/go/test/codegen/mapaccess.go:382)	MOVQ	8(AX), CX
	0x03b1 00945 (/usr/local/go/test/codegen/mapaccess.go:382)	LEAQ	4(CX), DX
	0x03b5 00949 (/usr/local/go/test/codegen/mapaccess.go:382)	MOVQ	DX, ""..autotmp_47+72(SP)
	0x03ba 00954 (/usr/local/go/test/codegen/mapaccess.go:382)	MOVQ	(AX), AX
	0x03bd 00957 (/usr/local/go/test/codegen/mapaccess.go:382)	NOP
	0x03c0 00960 (/usr/local/go/test/codegen/mapaccess.go:382)	CMPQ	DX, $4
	0x03c4 00964 (/usr/local/go/test/codegen/mapaccess.go:382)	JHI	1663
	0x03ca 00970 (/usr/local/go/test/codegen/mapaccess.go:382)	MOVQ	""..autotmp_45+128(SP), BX
	0x03d2 00978 (/usr/local/go/test/codegen/mapaccess.go:382)	MOVL	$4, SI
	0x03d7 00983 (/usr/local/go/test/codegen/mapaccess.go:382)	MOVQ	SI, ""..autotmp_48+64(SP)
	0x03dc 00988 (/usr/local/go/test/codegen/mapaccess.go:382)	MOVQ	BX, ""..autotmp_49+112(SP)
	0x03e1 00993 (/usr/local/go/test/codegen/mapaccess.go:382)	LEAQ	32(BX), DX
	0x03e5 00997 (/usr/local/go/test/codegen/mapaccess.go:382)	MOVQ	DX, (SP)
	0x03e9 01001 (/usr/local/go/test/codegen/mapaccess.go:382)	MOVQ	AX, 8(SP)
	0x03ee 01006 (/usr/local/go/test/codegen/mapaccess.go:382)	SHLQ	$3, CX
	0x03f2 01010 (/usr/local/go/test/codegen/mapaccess.go:382)	MOVQ	CX, 16(SP)
	0x03f7 01015 (/usr/local/go/test/codegen/mapaccess.go:382)	PCDATA	$1, $6
	0x03f7 01015 (/usr/local/go/test/codegen/mapaccess.go:382)	CALL	runtime.memmove(SB)
	0x03fc 01020 (/usr/local/go/test/codegen/mapaccess.go:382)	LEAQ	type.map[int64][]int64(SB), AX
	0x0403 01027 (/usr/local/go/test/codegen/mapaccess.go:382)	MOVQ	AX, (SP)
	0x0407 01031 (/usr/local/go/test/codegen/mapaccess.go:382)	LEAQ	""..autotmp_7+136(SP), CX
	0x040f 01039 (/usr/local/go/test/codegen/mapaccess.go:382)	MOVQ	CX, 8(SP)
	0x0414 01044 (/usr/local/go/test/codegen/mapaccess.go:382)	MOVQ	$0, 16(SP)
	0x041d 01053 (/usr/local/go/test/codegen/mapaccess.go:382)	NOP
	0x0420 01056 (/usr/local/go/test/codegen/mapaccess.go:382)	CALL	runtime.mapassign_fast64(SB)
	0x0425 01061 (/usr/local/go/test/codegen/mapaccess.go:382)	MOVQ	24(SP), DI
	0x042a 01066 (/usr/local/go/test/codegen/mapaccess.go:382)	MOVQ	""..autotmp_47+72(SP), AX
	0x042f 01071 (/usr/local/go/test/codegen/mapaccess.go:382)	MOVQ	AX, 8(DI)
	0x0433 01075 (/usr/local/go/test/codegen/mapaccess.go:382)	MOVQ	""..autotmp_48+64(SP), AX
	0x0438 01080 (/usr/local/go/test/codegen/mapaccess.go:382)	MOVQ	AX, 16(DI)
	0x043c 01084 (/usr/local/go/test/codegen/mapaccess.go:382)	PCDATA	$0, $-2
	0x043c 01084 (/usr/local/go/test/codegen/mapaccess.go:382)	CMPL	runtime.writeBarrier(SB), $0
	0x0443 01091 (/usr/local/go/test/codegen/mapaccess.go:382)	JNE	1648
	0x0449 01097 (/usr/local/go/test/codegen/mapaccess.go:382)	MOVQ	""..autotmp_49+112(SP), AX
	0x044e 01102 (/usr/local/go/test/codegen/mapaccess.go:382)	MOVQ	AX, (DI)
	0x0451 01105 (/usr/local/go/test/codegen/mapaccess.go:388)	PCDATA	$0, $-1
	0x0451 01105 (/usr/local/go/test/codegen/mapaccess.go:388)	LEAQ	type.map[int64][]int64(SB), AX
	0x0458 01112 (/usr/local/go/test/codegen/mapaccess.go:388)	MOVQ	AX, (SP)
	0x045c 01116 (/usr/local/go/test/codegen/mapaccess.go:388)	LEAQ	""..autotmp_7+136(SP), CX
	0x0464 01124 (/usr/local/go/test/codegen/mapaccess.go:388)	MOVQ	CX, 8(SP)
	0x0469 01129 (/usr/local/go/test/codegen/mapaccess.go:388)	MOVQ	$0, 16(SP)
	0x0472 01138 (/usr/local/go/test/codegen/mapaccess.go:388)	PCDATA	$1, $1
	0x0472 01138 (/usr/local/go/test/codegen/mapaccess.go:388)	CALL	runtime.mapaccess1_fast64(SB)
	0x0477 01143 (/usr/local/go/test/codegen/mapaccess.go:388)	MOVQ	24(SP), AX
	0x047c 01148 (/usr/local/go/test/codegen/mapaccess.go:388)	MOVQ	8(AX), CX
	0x0480 01152 (/usr/local/go/test/codegen/mapaccess.go:388)	LEAQ	1(CX), DX
	0x0484 01156 (/usr/local/go/test/codegen/mapaccess.go:388)	MOVQ	16(AX), BX
	0x0488 01160 (/usr/local/go/test/codegen/mapaccess.go:388)	MOVQ	(AX), AX
	0x048b 01163 (/usr/local/go/test/codegen/mapaccess.go:388)	CMPQ	DX, BX
	0x048e 01166 (/usr/local/go/test/codegen/mapaccess.go:388)	JHI	1578
	0x0494 01172 (/usr/local/go/test/codegen/mapaccess.go:388)	MOVQ	AX, ""..autotmp_49+112(SP)
	0x0499 01177 (/usr/local/go/test/codegen/mapaccess.go:388)	MOVQ	DX, ""..autotmp_47+72(SP)
	0x049e 01182 (/usr/local/go/test/codegen/mapaccess.go:388)	MOVQ	BX, ""..autotmp_48+64(SP)
	0x04a3 01187 (/usr/local/go/test/codegen/mapaccess.go:388)	MOVQ	$99, (AX)(CX*8)
	0x04ab 01195 (/usr/local/go/test/codegen/mapaccess.go:388)	MOVBLZX	"".sinkAppend(SB), CX
	0x04b2 01202 (/usr/local/go/test/codegen/mapaccess.go:388)	XORL	$1, CX
	0x04b5 01205 (/usr/local/go/test/codegen/mapaccess.go:388)	MOVB	CL, "".sinkAppend(SB)
	0x04bb 01211 (/usr/local/go/test/codegen/mapaccess.go:388)	LEAQ	type.map[int64][]int64(SB), CX
	0x04c2 01218 (/usr/local/go/test/codegen/mapaccess.go:388)	MOVQ	CX, (SP)
	0x04c6 01222 (/usr/local/go/test/codegen/mapaccess.go:388)	LEAQ	""..autotmp_7+136(SP), SI
	0x04ce 01230 (/usr/local/go/test/codegen/mapaccess.go:388)	MOVQ	SI, 8(SP)
	0x04d3 01235 (/usr/local/go/test/codegen/mapaccess.go:388)	MOVQ	$0, 16(SP)
	0x04dc 01244 (/usr/local/go/test/codegen/mapaccess.go:388)	PCDATA	$1, $6
	0x04dc 01244 (/usr/local/go/test/codegen/mapaccess.go:388)	NOP
	0x04e0 01248 (/usr/local/go/test/codegen/mapaccess.go:388)	CALL	runtime.mapassign_fast64(SB)
	0x04e5 01253 (/usr/local/go/test/codegen/mapaccess.go:388)	MOVQ	24(SP), DI
	0x04ea 01258 (/usr/local/go/test/codegen/mapaccess.go:388)	MOVQ	""..autotmp_47+72(SP), AX
	0x04ef 01263 (/usr/local/go/test/codegen/mapaccess.go:388)	MOVQ	AX, 8(DI)
	0x04f3 01267 (/usr/local/go/test/codegen/mapaccess.go:388)	MOVQ	""..autotmp_48+64(SP), AX
	0x04f8 01272 (/usr/local/go/test/codegen/mapaccess.go:388)	MOVQ	AX, 16(DI)
	0x04fc 01276 (/usr/local/go/test/codegen/mapaccess.go:388)	PCDATA	$0, $-2
	0x04fc 01276 (/usr/local/go/test/codegen/mapaccess.go:388)	CMPL	runtime.writeBarrier(SB), $0
	0x0503 01283 (/usr/local/go/test/codegen/mapaccess.go:388)	JNE	1563
	0x0509 01289 (/usr/local/go/test/codegen/mapaccess.go:388)	MOVQ	""..autotmp_49+112(SP), AX
	0x050e 01294 (/usr/local/go/test/codegen/mapaccess.go:388)	MOVQ	AX, (DI)
	0x0511 01297 (/usr/local/go/test/codegen/mapaccess.go:394)	PCDATA	$0, $-1
	0x0511 01297 (/usr/local/go/test/codegen/mapaccess.go:394)	LEAQ	type.map[int64][]int64(SB), AX
	0x0518 01304 (/usr/local/go/test/codegen/mapaccess.go:394)	MOVQ	AX, (SP)
	0x051c 01308 (/usr/local/go/test/codegen/mapaccess.go:394)	LEAQ	""..autotmp_7+136(SP), CX
	0x0524 01316 (/usr/local/go/test/codegen/mapaccess.go:394)	MOVQ	CX, 8(SP)
	0x0529 01321 (/usr/local/go/test/codegen/mapaccess.go:394)	MOVQ	$1, 16(SP)
	0x0532 01330 (/usr/local/go/test/codegen/mapaccess.go:394)	PCDATA	$1, $1
	0x0532 01330 (/usr/local/go/test/codegen/mapaccess.go:394)	CALL	runtime.mapaccess1_fast64(SB)
	0x0537 01335 (/usr/local/go/test/codegen/mapaccess.go:394)	MOVQ	24(SP), AX
	0x053c 01340 (/usr/local/go/test/codegen/mapaccess.go:394)	MOVQ	8(AX), CX
	0x0540 01344 (/usr/local/go/test/codegen/mapaccess.go:394)	LEAQ	1(CX), DX
	0x0544 01348 (/usr/local/go/test/codegen/mapaccess.go:394)	MOVQ	16(AX), BX
	0x0548 01352 (/usr/local/go/test/codegen/mapaccess.go:394)	MOVQ	(AX), AX
	0x054b 01355 (/usr/local/go/test/codegen/mapaccess.go:394)	CMPQ	BX, DX
	0x054e 01358 (/usr/local/go/test/codegen/mapaccess.go:394)	JCS	1493
	0x0554 01364 (/usr/local/go/test/codegen/mapaccess.go:394)	MOVQ	AX, ""..autotmp_49+112(SP)
	0x0559 01369 (/usr/local/go/test/codegen/mapaccess.go:394)	MOVQ	DX, ""..autotmp_47+72(SP)
	0x055e 01374 (/usr/local/go/test/codegen/mapaccess.go:394)	MOVQ	BX, ""..autotmp_48+64(SP)
	0x0563 01379 (/usr/local/go/test/codegen/mapaccess.go:394)	MOVQ	$100, (AX)(CX*8)
	0x056b 01387 (/usr/local/go/test/codegen/mapaccess.go:394)	LEAQ	type.map[int64][]int64(SB), CX
	0x0572 01394 (/usr/local/go/test/codegen/mapaccess.go:394)	MOVQ	CX, (SP)
	0x0576 01398 (/usr/local/go/test/codegen/mapaccess.go:394)	LEAQ	""..autotmp_7+136(SP), CX
	0x057e 01406 (/usr/local/go/test/codegen/mapaccess.go:394)	MOVQ	CX, 8(SP)
	0x0583 01411 (/usr/local/go/test/codegen/mapaccess.go:394)	MOVQ	$0, 16(SP)
	0x058c 01420 (/usr/local/go/test/codegen/mapaccess.go:394)	PCDATA	$1, $7
	0x058c 01420 (/usr/local/go/test/codegen/mapaccess.go:394)	CALL	runtime.mapassign_fast64(SB)
	0x0591 01425 (/usr/local/go/test/codegen/mapaccess.go:394)	MOVQ	24(SP), DI
	0x0596 01430 (/usr/local/go/test/codegen/mapaccess.go:394)	MOVQ	""..autotmp_47+72(SP), AX
	0x059b 01435 (/usr/local/go/test/codegen/mapaccess.go:394)	MOVQ	AX, 8(DI)
	0x059f 01439 (/usr/local/go/test/codegen/mapaccess.go:394)	MOVQ	""..autotmp_48+64(SP), AX
	0x05a4 01444 (/usr/local/go/test/codegen/mapaccess.go:394)	MOVQ	AX, 16(DI)
	0x05a8 01448 (/usr/local/go/test/codegen/mapaccess.go:394)	PCDATA	$0, $-2
	0x05a8 01448 (/usr/local/go/test/codegen/mapaccess.go:394)	CMPL	runtime.writeBarrier(SB), $0
	0x05af 01455 (/usr/local/go/test/codegen/mapaccess.go:394)	JNE	1481
	0x05b1 01457 (/usr/local/go/test/codegen/mapaccess.go:394)	MOVQ	""..autotmp_49+112(SP), AX
	0x05b6 01462 (/usr/local/go/test/codegen/mapaccess.go:394)	MOVQ	AX, (DI)
	0x05b9 01465 (/usr/local/go/test/codegen/mapaccess.go:395)	PCDATA	$0, $-1
	0x05b9 01465 (/usr/local/go/test/codegen/mapaccess.go:395)	PCDATA	$1, $-1
	0x05b9 01465 (/usr/local/go/test/codegen/mapaccess.go:395)	MOVQ	456(SP), BP
	0x05c1 01473 (/usr/local/go/test/codegen/mapaccess.go:395)	ADDQ	$464, SP
	0x05c8 01480 (/usr/local/go/test/codegen/mapaccess.go:395)	RET
	0x05c9 01481 (/usr/local/go/test/codegen/mapaccess.go:394)	PCDATA	$0, $-2
	0x05c9 01481 (/usr/local/go/test/codegen/mapaccess.go:394)	MOVQ	""..autotmp_49+112(SP), AX
	0x05ce 01486 (/usr/local/go/test/codegen/mapaccess.go:394)	CALL	runtime.gcWriteBarrier(SB)
	0x05d3 01491 (/usr/local/go/test/codegen/mapaccess.go:394)	JMP	1465
	0x05d5 01493 (/usr/local/go/test/codegen/mapaccess.go:394)	PCDATA	$0, $-1
	0x05d5 01493 (/usr/local/go/test/codegen/mapaccess.go:394)	MOVQ	CX, ""..autotmp_47+72(SP)
	0x05da 01498 (/usr/local/go/test/codegen/mapaccess.go:394)	LEAQ	type.int64(SB), SI
	0x05e1 01505 (/usr/local/go/test/codegen/mapaccess.go:394)	MOVQ	SI, (SP)
	0x05e5 01509 (/usr/local/go/test/codegen/mapaccess.go:394)	MOVQ	AX, 8(SP)
	0x05ea 01514 (/usr/local/go/test/codegen/mapaccess.go:394)	MOVQ	CX, 16(SP)
	0x05ef 01519 (/usr/local/go/test/codegen/mapaccess.go:394)	MOVQ	BX, 24(SP)
	0x05f4 01524 (/usr/local/go/test/codegen/mapaccess.go:394)	MOVQ	DX, 32(SP)
	0x05f9 01529 (/usr/local/go/test/codegen/mapaccess.go:394)	PCDATA	$1, $1
	0x05f9 01529 (/usr/local/go/test/codegen/mapaccess.go:394)	CALL	runtime.growslice(SB)
	0x05fe 01534 (/usr/local/go/test/codegen/mapaccess.go:394)	MOVQ	40(SP), AX
	0x0603 01539 (/usr/local/go/test/codegen/mapaccess.go:394)	MOVQ	48(SP), CX
	0x0608 01544 (/usr/local/go/test/codegen/mapaccess.go:394)	MOVQ	56(SP), BX
	0x060d 01549 (/usr/local/go/test/codegen/mapaccess.go:394)	LEAQ	1(CX), DX
	0x0611 01553 (/usr/local/go/test/codegen/mapaccess.go:394)	MOVQ	""..autotmp_47+72(SP), CX
	0x0616 01558 (/usr/local/go/test/codegen/mapaccess.go:394)	JMP	1364
	0x061b 01563 (/usr/local/go/test/codegen/mapaccess.go:388)	PCDATA	$0, $-2
	0x061b 01563 (/usr/local/go/test/codegen/mapaccess.go:388)	MOVQ	""..autotmp_49+112(SP), AX
	0x0620 01568 (/usr/local/go/test/codegen/mapaccess.go:388)	CALL	runtime.gcWriteBarrier(SB)
	0x0625 01573 (/usr/local/go/test/codegen/mapaccess.go:388)	JMP	1297
	0x062a 01578 (/usr/local/go/test/codegen/mapaccess.go:388)	PCDATA	$0, $-1
	0x062a 01578 (/usr/local/go/test/codegen/mapaccess.go:388)	MOVQ	CX, ""..autotmp_47+72(SP)
	0x062f 01583 (/usr/local/go/test/codegen/mapaccess.go:388)	LEAQ	type.int64(SB), SI
	0x0636 01590 (/usr/local/go/test/codegen/mapaccess.go:388)	MOVQ	SI, (SP)
	0x063a 01594 (/usr/local/go/test/codegen/mapaccess.go:388)	MOVQ	AX, 8(SP)
	0x063f 01599 (/usr/local/go/test/codegen/mapaccess.go:388)	MOVQ	CX, 16(SP)
	0x0644 01604 (/usr/local/go/test/codegen/mapaccess.go:388)	MOVQ	BX, 24(SP)
	0x0649 01609 (/usr/local/go/test/codegen/mapaccess.go:388)	MOVQ	DX, 32(SP)
	0x064e 01614 (/usr/local/go/test/codegen/mapaccess.go:388)	CALL	runtime.growslice(SB)
	0x0653 01619 (/usr/local/go/test/codegen/mapaccess.go:388)	MOVQ	40(SP), AX
	0x0658 01624 (/usr/local/go/test/codegen/mapaccess.go:388)	MOVQ	48(SP), CX
	0x065d 01629 (/usr/local/go/test/codegen/mapaccess.go:388)	MOVQ	56(SP), BX
	0x0662 01634 (/usr/local/go/test/codegen/mapaccess.go:388)	LEAQ	1(CX), DX
	0x0666 01638 (/usr/local/go/test/codegen/mapaccess.go:388)	MOVQ	""..autotmp_47+72(SP), CX
	0x066b 01643 (/usr/local/go/test/codegen/mapaccess.go:388)	JMP	1172
	0x0670 01648 (/usr/local/go/test/codegen/mapaccess.go:382)	PCDATA	$0, $-2
	0x0670 01648 (/usr/local/go/test/codegen/mapaccess.go:382)	MOVQ	""..autotmp_49+112(SP), AX
	0x0675 01653 (/usr/local/go/test/codegen/mapaccess.go:382)	CALL	runtime.gcWriteBarrier(SB)
	0x067a 01658 (/usr/local/go/test/codegen/mapaccess.go:382)	JMP	1105
	0x067f 01663 (/usr/local/go/test/codegen/mapaccess.go:382)	PCDATA	$0, $-1
	0x067f 01663 (/usr/local/go/test/codegen/mapaccess.go:382)	MOVQ	CX, ""..autotmp_48+64(SP)
	0x0684 01668 (/usr/local/go/test/codegen/mapaccess.go:382)	MOVQ	AX, ""..autotmp_49+112(SP)
	0x0689 01673 (/usr/local/go/test/codegen/mapaccess.go:382)	LEAQ	type.int64(SB), AX
	0x0690 01680 (/usr/local/go/test/codegen/mapaccess.go:382)	MOVQ	AX, (SP)
	0x0694 01684 (/usr/local/go/test/codegen/mapaccess.go:382)	MOVQ	""..autotmp_45+128(SP), CX
	0x069c 01692 (/usr/local/go/test/codegen/mapaccess.go:382)	MOVQ	CX, 8(SP)
	0x06a1 01697 (/usr/local/go/test/codegen/mapaccess.go:382)	MOVQ	$4, 16(SP)
	0x06aa 01706 (/usr/local/go/test/codegen/mapaccess.go:382)	MOVQ	$4, 24(SP)
	0x06b3 01715 (/usr/local/go/test/codegen/mapaccess.go:382)	MOVQ	DX, 32(SP)
	0x06b8 01720 (/usr/local/go/test/codegen/mapaccess.go:382)	PCDATA	$1, $6
	0x06b8 01720 (/usr/local/go/test/codegen/mapaccess.go:382)	CALL	runtime.growslice(SB)
	0x06bd 01725 (/usr/local/go/test/codegen/mapaccess.go:382)	MOVQ	40(SP), BX
	0x06c2 01730 (/usr/local/go/test/codegen/mapaccess.go:382)	MOVQ	56(SP), SI
	0x06c7 01735 (/usr/local/go/test/codegen/mapaccess.go:382)	MOVQ	""..autotmp_49+112(SP), AX
	0x06cc 01740 (/usr/local/go/test/codegen/mapaccess.go:382)	MOVQ	""..autotmp_48+64(SP), CX
	0x06d1 01745 (/usr/local/go/test/codegen/mapaccess.go:382)	JMP	983
	0x06d6 01750 (/usr/local/go/test/codegen/mapaccess.go:374)	PCDATA	$0, $-2
	0x06d6 01750 (/usr/local/go/test/codegen/mapaccess.go:374)	MOVQ	""..autotmp_49+112(SP), AX
	0x06db 01755 (/usr/local/go/test/codegen/mapaccess.go:374)	NOP
	0x06e0 01760 (/usr/local/go/test/codegen/mapaccess.go:374)	CALL	runtime.gcWriteBarrier(SB)
	0x06e5 01765 (/usr/local/go/test/codegen/mapaccess.go:374)	JMP	898
	0x06ea 01770 (/usr/local/go/test/codegen/mapaccess.go:374)	PCDATA	$0, $-1
	0x06ea 01770 (/usr/local/go/test/codegen/mapaccess.go:374)	MOVQ	CX, ""..autotmp_48+64(SP)
	0x06ef 01775 (/usr/local/go/test/codegen/mapaccess.go:374)	LEAQ	type.int64(SB), AX
	0x06f6 01782 (/usr/local/go/test/codegen/mapaccess.go:374)	MOVQ	AX, (SP)
	0x06fa 01786 (/usr/local/go/test/codegen/mapaccess.go:374)	MOVQ	BX, 8(SP)
	0x06ff 01791 (/usr/local/go/test/codegen/mapaccess.go:374)	MOVQ	CX, 16(SP)
	0x0704 01796 (/usr/local/go/test/codegen/mapaccess.go:374)	MOVQ	DX, 24(SP)
	0x0709 01801 (/usr/local/go/test/codegen/mapaccess.go:374)	MOVQ	SI, 32(SP)
	0x070e 01806 (/usr/local/go/test/codegen/mapaccess.go:374)	PCDATA	$1, $8
	0x070e 01806 (/usr/local/go/test/codegen/mapaccess.go:374)	CALL	runtime.growslice(SB)
	0x0713 01811 (/usr/local/go/test/codegen/mapaccess.go:374)	MOVQ	40(SP), BX
	0x0718 01816 (/usr/local/go/test/codegen/mapaccess.go:374)	MOVQ	56(SP), DX
	0x071d 01821 (/usr/local/go/test/codegen/mapaccess.go:374)	MOVQ	""..autotmp_48+64(SP), CX
	0x0722 01826 (/usr/local/go/test/codegen/mapaccess.go:374)	JMP	809
	0x0727 01831 (/usr/local/go/test/codegen/mapaccess.go:368)	PCDATA	$0, $-2
	0x0727 01831 (/usr/local/go/test/codegen/mapaccess.go:368)	MOVQ	""..autotmp_49+112(SP), AX
	0x072c 01836 (/usr/local/go/test/codegen/mapaccess.go:368)	CALL	runtime.gcWriteBarrier(SB)
	0x0731 01841 (/usr/local/go/test/codegen/mapaccess.go:368)	JMP	727
	0x0736 01846 (/usr/local/go/test/codegen/mapaccess.go:368)	PCDATA	$0, $-1
	0x0736 01846 (/usr/local/go/test/codegen/mapaccess.go:368)	MOVQ	CX, ""..autotmp_48+64(SP)
	0x073b 01851 (/usr/local/go/test/codegen/mapaccess.go:368)	LEAQ	type.int64(SB), AX
	0x0742 01858 (/usr/local/go/test/codegen/mapaccess.go:368)	MOVQ	AX, (SP)
	0x0746 01862 (/usr/local/go/test/codegen/mapaccess.go:368)	MOVQ	BX, 8(SP)
	0x074b 01867 (/usr/local/go/test/codegen/mapaccess.go:368)	MOVQ	CX, 16(SP)
	0x0750 01872 (/usr/local/go/test/codegen/mapaccess.go:368)	MOVQ	DX, 24(SP)
	0x0755 01877 (/usr/local/go/test/codegen/mapaccess.go:368)	MOVQ	SI, 32(SP)
	0x075a 01882 (/usr/local/go/test/codegen/mapaccess.go:368)	PCDATA	$1, $9
	0x075a 01882 (/usr/local/go/test/codegen/mapaccess.go:368)	CALL	runtime.growslice(SB)
	0x075f 01887 (/usr/local/go/test/codegen/mapaccess.go:368)	MOVQ	40(SP), BX
	0x0764 01892 (/usr/local/go/test/codegen/mapaccess.go:368)	MOVQ	56(SP), DX
	0x0769 01897 (/usr/local/go/test/codegen/mapaccess.go:368)	MOVQ	""..autotmp_48+64(SP), CX
	0x076e 01902 (/usr/local/go/test/codegen/mapaccess.go:368)	JMP	638
	0x0773 01907 (/usr/local/go/test/codegen/mapaccess.go:362)	PCDATA	$0, $-2
	0x0773 01907 (/usr/local/go/test/codegen/mapaccess.go:362)	MOVQ	""..autotmp_49+112(SP), AX
	0x0778 01912 (/usr/local/go/test/codegen/mapaccess.go:362)	CALL	runtime.gcWriteBarrier(SB)
	0x077d 01917 (/usr/local/go/test/codegen/mapaccess.go:362)	NOP
	0x0780 01920 (/usr/local/go/test/codegen/mapaccess.go:362)	JMP	561
	0x0785 01925 (/usr/local/go/test/codegen/mapaccess.go:362)	PCDATA	$0, $-1
	0x0785 01925 (/usr/local/go/test/codegen/mapaccess.go:362)	MOVQ	CX, ""..autotmp_48+64(SP)
	0x078a 01930 (/usr/local/go/test/codegen/mapaccess.go:362)	LEAQ	type.int64(SB), AX
	0x0791 01937 (/usr/local/go/test/codegen/mapaccess.go:362)	MOVQ	AX, (SP)
	0x0795 01941 (/usr/local/go/test/codegen/mapaccess.go:362)	MOVQ	BX, 8(SP)
	0x079a 01946 (/usr/local/go/test/codegen/mapaccess.go:362)	MOVQ	CX, 16(SP)
	0x079f 01951 (/usr/local/go/test/codegen/mapaccess.go:362)	MOVQ	DX, 24(SP)
	0x07a4 01956 (/usr/local/go/test/codegen/mapaccess.go:362)	MOVQ	SI, 32(SP)
	0x07a9 01961 (/usr/local/go/test/codegen/mapaccess.go:362)	PCDATA	$1, $10
	0x07a9 01961 (/usr/local/go/test/codegen/mapaccess.go:362)	CALL	runtime.growslice(SB)
	0x07ae 01966 (/usr/local/go/test/codegen/mapaccess.go:362)	MOVQ	40(SP), BX
	0x07b3 01971 (/usr/local/go/test/codegen/mapaccess.go:362)	MOVQ	56(SP), DX
	0x07b8 01976 (/usr/local/go/test/codegen/mapaccess.go:362)	MOVQ	""..autotmp_48+64(SP), CX
	0x07bd 01981 (/usr/local/go/test/codegen/mapaccess.go:362)	NOP
	0x07c0 01984 (/usr/local/go/test/codegen/mapaccess.go:362)	JMP	468
	0x07c5 01989 (/usr/local/go/test/codegen/mapaccess.go:354)	MOVQ	AX, ""..autotmp_52+88(SP)
	0x07ca 01994 (/usr/local/go/test/codegen/mapaccess.go:354)	LEAQ	type.int64(SB), AX
	0x07d1 02001 (/usr/local/go/test/codegen/mapaccess.go:354)	MOVQ	AX, (SP)
	0x07d5 02005 (/usr/local/go/test/codegen/mapaccess.go:354)	MOVQ	DX, 8(SP)
	0x07da 02010 (/usr/local/go/test/codegen/mapaccess.go:354)	MOVQ	CX, 16(SP)
	0x07df 02015 (/usr/local/go/test/codegen/mapaccess.go:354)	MOVQ	BX, 24(SP)
	0x07e4 02020 (/usr/local/go/test/codegen/mapaccess.go:354)	MOVQ	SI, 32(SP)
	0x07e9 02025 (/usr/local/go/test/codegen/mapaccess.go:354)	PCDATA	$1, $11
	0x07e9 02025 (/usr/local/go/test/codegen/mapaccess.go:354)	CALL	runtime.growslice(SB)
	0x07ee 02030 (/usr/local/go/test/codegen/mapaccess.go:354)	MOVQ	40(SP), AX
	0x07f3 02035 (/usr/local/go/test/codegen/mapaccess.go:354)	MOVQ	48(SP), CX
	0x07f8 02040 (/usr/local/go/test/codegen/mapaccess.go:354)	MOVQ	56(SP), DX
	0x07fd 02045 (/usr/local/go/test/codegen/mapaccess.go:354)	MOVQ	""..autotmp_52+88(SP), DI
	0x0802 02050 (/usr/local/go/test/codegen/mapaccess.go:354)	MOVQ	DX, 16(DI)
	0x0806 02054 (/usr/local/go/test/codegen/mapaccess.go:354)	PCDATA	$0, $-2
	0x0806 02054 (/usr/local/go/test/codegen/mapaccess.go:354)	CMPL	runtime.writeBarrier(SB), $0
	0x080d 02061 (/usr/local/go/test/codegen/mapaccess.go:354)	JNE	2077
	0x080f 02063 (/usr/local/go/test/codegen/mapaccess.go:354)	MOVQ	AX, (DI)
	0x0812 02066 (/usr/local/go/test/codegen/mapaccess.go:354)	PCDATA	$0, $-1
	0x0812 02066 (/usr/local/go/test/codegen/mapaccess.go:354)	MOVQ	AX, DX
	0x0815 02069 (/usr/local/go/test/codegen/mapaccess.go:354)	MOVQ	DI, AX
	0x0818 02072 (/usr/local/go/test/codegen/mapaccess.go:354)	JMP	297
	0x081d 02077 (/usr/local/go/test/codegen/mapaccess.go:354)	PCDATA	$0, $-2
	0x081d 02077 (/usr/local/go/test/codegen/mapaccess.go:354)	NOP
	0x0820 02080 (/usr/local/go/test/codegen/mapaccess.go:354)	CALL	runtime.gcWriteBarrier(SB)
	0x0825 02085 (/usr/local/go/test/codegen/mapaccess.go:354)	JMP	2066
	0x0827 02087 (/usr/local/go/test/codegen/mapaccess.go:348)	PCDATA	$0, $-1
	0x0827 02087 (/usr/local/go/test/codegen/mapaccess.go:348)	MOVQ	AX, ""..autotmp_53+80(SP)
	0x082c 02092 (/usr/local/go/test/codegen/mapaccess.go:348)	LEAQ	type.int64(SB), AX
	0x0833 02099 (/usr/local/go/test/codegen/mapaccess.go:348)	MOVQ	AX, (SP)
	0x0837 02103 (/usr/local/go/test/codegen/mapaccess.go:348)	MOVQ	DX, 8(SP)
	0x083c 02108 (/usr/local/go/test/codegen/mapaccess.go:348)	MOVQ	CX, 16(SP)
	0x0841 02113 (/usr/local/go/test/codegen/mapaccess.go:348)	MOVQ	BX, 24(SP)
	0x0846 02118 (/usr/local/go/test/codegen/mapaccess.go:348)	MOVQ	SI, 32(SP)
	0x084b 02123 (/usr/local/go/test/codegen/mapaccess.go:348)	PCDATA	$1, $12
	0x084b 02123 (/usr/local/go/test/codegen/mapaccess.go:348)	CALL	runtime.growslice(SB)
	0x0850 02128 (/usr/local/go/test/codegen/mapaccess.go:348)	MOVQ	40(SP), AX
	0x0855 02133 (/usr/local/go/test/codegen/mapaccess.go:348)	MOVQ	48(SP), CX
	0x085a 02138 (/usr/local/go/test/codegen/mapaccess.go:348)	MOVQ	56(SP), DX
	0x085f 02143 (/usr/local/go/test/codegen/mapaccess.go:348)	MOVQ	""..autotmp_53+80(SP), DI
	0x0864 02148 (/usr/local/go/test/codegen/mapaccess.go:348)	MOVQ	DX, 16(DI)
	0x0868 02152 (/usr/local/go/test/codegen/mapaccess.go:348)	PCDATA	$0, $-2
	0x0868 02152 (/usr/local/go/test/codegen/mapaccess.go:348)	CMPL	runtime.writeBarrier(SB), $0
	0x086f 02159 (/usr/local/go/test/codegen/mapaccess.go:348)	JNE	2175
	0x0871 02161 (/usr/local/go/test/codegen/mapaccess.go:348)	MOVQ	AX, (DI)
	0x0874 02164 (/usr/local/go/test/codegen/mapaccess.go:348)	PCDATA	$0, $-1
	0x0874 02164 (/usr/local/go/test/codegen/mapaccess.go:348)	MOVQ	AX, DX
	0x0877 02167 (/usr/local/go/test/codegen/mapaccess.go:348)	MOVQ	DI, AX
	0x087a 02170 (/usr/local/go/test/codegen/mapaccess.go:348)	JMP	213
	0x087f 02175 (/usr/local/go/test/codegen/mapaccess.go:348)	PCDATA	$0, $-2
	0x087f 02175 (/usr/local/go/test/codegen/mapaccess.go:348)	NOP
	0x0880 02176 (/usr/local/go/test/codegen/mapaccess.go:348)	CALL	runtime.gcWriteBarrier(SB)
	0x0885 02181 (/usr/local/go/test/codegen/mapaccess.go:348)	JMP	2164
	0x0887 02183 (/usr/local/go/test/codegen/mapaccess.go:348)	NOP
	0x0887 02183 (/usr/local/go/test/codegen/mapaccess.go:340)	PCDATA	$1, $-1
	0x0887 02183 (/usr/local/go/test/codegen/mapaccess.go:340)	PCDATA	$0, $-2
	0x0887 02183 (/usr/local/go/test/codegen/mapaccess.go:340)	CALL	runtime.morestack_noctxt(SB)
	0x088c 02188 (/usr/local/go/test/codegen/mapaccess.go:340)	PCDATA	$0, $-1
	0x088c 02188 (/usr/local/go/test/codegen/mapaccess.go:340)	JMP	0
	0x0000 64 48 8b 0c 25 00 00 00 00 48 8d 84 24 b0 fe ff  dH..%....H..$...
	0x0010 ff 48 3b 41 10 0f 86 6c 08 00 00 48 81 ec d0 01  .H;A...l...H....
	0x0020 00 00 48 89 ac 24 c8 01 00 00 48 8d ac 24 c8 01  ..H..$....H..$..
	0x0030 00 00 0f 57 c0 0f 11 84 24 88 00 00 00 0f 11 84  ...W....$.......
	0x0040 24 98 00 00 00 0f 11 84 24 a8 00 00 00 48 8d bc  $.......$....H..
	0x0050 24 b8 00 00 00 48 8d 7f d0 0f 1f 80 00 00 00 00  $....H..........
	0x0060 48 89 6c 24 f0 48 8d 6c 24 f0 e8 00 00 00 00 48  H.l$.H.l$......H
	0x0070 8b 6d 00 48 8d 84 24 b8 00 00 00 48 89 84 24 98  .m.H..$....H..$.
	0x0080 00 00 00 e8 00 00 00 00 8b 04 24 89 84 24 94 00  ..........$..$..
	0x0090 00 00 48 8d 05 00 00 00 00 48 89 04 24 48 8d 8c  ..H......H..$H..
	0x00a0 24 88 00 00 00 48 89 4c 24 08 48 c7 44 24 10 00  $....H.L$.H.D$..
	0x00b0 00 00 00 e8 00 00 00 00 48 8b 44 24 18 48 8b 48  ........H.D$.H.H
	0x00c0 08 48 8b 10 48 8b 58 10 48 8d 71 01 48 39 de 0f  .H..H.X.H.q.H9..
	0x00d0 87 52 07 00 00 48 8d 59 01 48 89 58 08 48 c7 04  .R...H.Y.H.X.H..
	0x00e0 ca 01 00 00 00 48 8d 05 00 00 00 00 48 89 04 24  .....H......H..$
	0x00f0 48 8d 8c 24 88 00 00 00 48 89 4c 24 08 48 c7 44  H..$....H.L$.H.D
	0x0100 24 10 00 00 00 00 e8 00 00 00 00 48 8b 44 24 18  $..........H.D$.
	0x0110 48 8b 48 08 48 8b 10 48 8b 58 10 48 8d 71 03 90  H.H.H..H.X.H.q..
	0x0120 48 39 de 0f 87 9c 06 00 00 48 8d 59 03 48 89 58  H9.......H.Y.H.X
	0x0130 08 48 c7 04 ca 01 00 00 00 48 c7 44 ca 08 02 00  .H.......H.D....
	0x0140 00 00 48 c7 44 ca 10 03 00 00 00 48 8d 05 00 00  ..H.D......H....
	0x0150 00 00 48 89 04 24 e8 00 00 00 00 48 8b 44 24 08  ..H..$.....H.D$.
	0x0160 48 89 84 24 80 00 00 00 48 c7 00 07 00 00 00 48  H..$....H......H
	0x0170 c7 40 08 08 00 00 00 48 c7 40 10 09 00 00 00 48  .@.....H.@.....H
	0x0180 c7 40 18 00 00 00 00 48 8d 0d 00 00 00 00 48 89  .@.....H......H.
	0x0190 0c 24 48 8d 94 24 88 00 00 00 48 89 54 24 08 48  .$H..$....H.T$.H
	0x01a0 c7 44 24 10 00 00 00 00 e8 00 00 00 00 48 8b 44  .D$..........H.D
	0x01b0 24 18 48 89 44 24 78 48 8b 48 08 48 8b 50 10 48  $.H.D$xH.H.H.P.H
	0x01c0 8b 18 48 8d 71 04 48 89 74 24 48 48 39 d6 0f 87  ..H.q.H.t$HH9...
	0x01d0 b1 05 00 00 48 89 54 24 40 48 89 5c 24 70 48 8d  ....H.T$@H.\$pH.
	0x01e0 04 cb 48 89 04 24 48 8b 84 24 80 00 00 00 48 89  ..H..$H..$....H.
	0x01f0 44 24 08 48 c7 44 24 10 20 00 00 00 0f 1f 40 00  D$.H.D$. .....@.
	0x0200 e8 00 00 00 00 48 8b 44 24 48 48 8b 7c 24 78 48  .....H.D$HH.|$xH
	0x0210 89 47 08 48 8b 44 24 40 48 89 47 10 83 3d 00 00  .G.H.D$@H.G..=..
	0x0220 00 00 00 0f 85 4a 05 00 00 48 8b 44 24 70 48 89  .....J...H.D$pH.
	0x0230 07 48 8d 05 00 00 00 00 48 89 04 24 48 8d 8c 24  .H......H..$H..$
	0x0240 88 00 00 00 48 89 4c 24 08 48 c7 44 24 10 01 00  ....H.L$.H.D$...
	0x0250 00 00 e8 00 00 00 00 48 8b 44 24 18 48 89 44 24  .......H.D$.H.D$
	0x0260 68 48 8b 48 08 48 8b 50 10 48 8b 18 48 8d 71 04  hH.H.H.P.H..H.q.
	0x0270 48 89 74 24 48 48 39 d6 0f 87 b8 04 00 00 48 89  H.t$HH9.......H.
	0x0280 54 24 40 48 89 5c 24 70 48 8d 04 cb 48 89 04 24  T$@H.\$pH...H..$
	0x0290 48 8b 84 24 80 00 00 00 48 89 44 24 08 48 c7 44  H..$....H.D$.H.D
	0x02a0 24 10 20 00 00 00 e8 00 00 00 00 48 8b 44 24 48  $. ........H.D$H
	0x02b0 48 8b 7c 24 68 48 89 47 08 48 8b 44 24 40 48 89  H.|$hH.G.H.D$@H.
	0x02c0 47 10 83 3d 00 00 00 00 00 0f 85 58 04 00 00 48  G..=.......X...H
	0x02d0 8b 44 24 70 48 89 07 48 8d 05 00 00 00 00 48 89  .D$pH..H......H.
	0x02e0 04 24 48 8d 8c 24 88 00 00 00 48 89 4c 24 08 48  .$H..$....H.L$.H
	0x02f0 c7 44 24 10 00 00 00 00 e8 00 00 00 00 48 8b 44  .D$..........H.D
	0x0300 24 18 48 89 44 24 60 48 8b 48 08 48 8b 50 10 48  $.H.D$`H.H.H.P.H
	0x0310 8b 18 48 8d 71 04 48 89 74 24 48 0f 1f 44 00 00  ..H.q.H.t$H..D..
	0x0320 48 39 f2 0f 82 c1 03 00 00 48 89 54 24 40 48 89  H9.......H.T$@H.
	0x0330 5c 24 70 48 8d 04 cb 48 89 04 24 48 8b 84 24 80  \$pH...H..$H..$.
	0x0340 00 00 00 48 89 44 24 08 48 c7 44 24 10 20 00 00  ...H.D$.H.D$. ..
	0x0350 00 e8 00 00 00 00 48 8b 44 24 48 48 8b 7c 24 60  ......H.D$HH.|$`
	0x0360 48 89 47 08 48 8b 44 24 40 48 89 47 10 83 3d 00  H.G.H.D$@H.G..=.
	0x0370 00 00 00 00 0f 85 5c 03 00 00 48 8b 44 24 70 48  ......\...H.D$pH
	0x0380 89 07 48 8d 05 00 00 00 00 48 89 04 24 48 8d 8c  ..H......H..$H..
	0x0390 24 88 00 00 00 48 89 4c 24 08 48 c7 44 24 10 00  $....H.L$.H.D$..
	0x03a0 00 00 00 e8 00 00 00 00 48 8b 44 24 18 48 8b 48  ........H.D$.H.H
	0x03b0 08 48 8d 51 04 48 89 54 24 48 48 8b 00 0f 1f 00  .H.Q.H.T$HH.....
	0x03c0 48 83 fa 04 0f 87 b5 02 00 00 48 8b 9c 24 80 00  H.........H..$..
	0x03d0 00 00 be 04 00 00 00 48 89 74 24 40 48 89 5c 24  .......H.t$@H.\$
	0x03e0 70 48 8d 53 20 48 89 14 24 48 89 44 24 08 48 c1  pH.S H..$H.D$.H.
	0x03f0 e1 03 48 89 4c 24 10 e8 00 00 00 00 48 8d 05 00  ..H.L$......H...
	0x0400 00 00 00 48 89 04 24 48 8d 8c 24 88 00 00 00 48  ...H..$H..$....H
	0x0410 89 4c 24 08 48 c7 44 24 10 00 00 00 00 0f 1f 00  .L$.H.D$........
	0x0420 e8 00 00 00 00 48 8b 7c 24 18 48 8b 44 24 48 48  .....H.|$.H.D$HH
	0x0430 89 47 08 48 8b 44 24 40 48 89 47 10 83 3d 00 00  .G.H.D$@H.G..=..
	0x0440 00 00 00 0f 85 27 02 00 00 48 8b 44 24 70 48 89  .....'...H.D$pH.
	0x0450 07 48 8d 05 00 00 00 00 48 89 04 24 48 8d 8c 24  .H......H..$H..$
	0x0460 88 00 00 00 48 89 4c 24 08 48 c7 44 24 10 00 00  ....H.L$.H.D$...
	0x0470 00 00 e8 00 00 00 00 48 8b 44 24 18 48 8b 48 08  .......H.D$.H.H.
	0x0480 48 8d 51 01 48 8b 58 10 48 8b 00 48 39 da 0f 87  H.Q.H.X.H..H9...
	0x0490 96 01 00 00 48 89 44 24 70 48 89 54 24 48 48 89  ....H.D$pH.T$HH.
	0x04a0 5c 24 40 48 c7 04 c8 63 00 00 00 0f b6 0d 00 00  \$@H...c........
	0x04b0 00 00 83 f1 01 88 0d 00 00 00 00 48 8d 0d 00 00  ...........H....
	0x04c0 00 00 48 89 0c 24 48 8d b4 24 88 00 00 00 48 89  ..H..$H..$....H.
	0x04d0 74 24 08 48 c7 44 24 10 00 00 00 00 0f 1f 40 00  t$.H.D$.......@.
	0x04e0 e8 00 00 00 00 48 8b 7c 24 18 48 8b 44 24 48 48  .....H.|$.H.D$HH
	0x04f0 89 47 08 48 8b 44 24 40 48 89 47 10 83 3d 00 00  .G.H.D$@H.G..=..
	0x0500 00 00 00 0f 85 12 01 00 00 48 8b 44 24 70 48 89  .........H.D$pH.
	0x0510 07 48 8d 05 00 00 00 00 48 89 04 24 48 8d 8c 24  .H......H..$H..$
	0x0520 88 00 00 00 48 89 4c 24 08 48 c7 44 24 10 01 00  ....H.L$.H.D$...
	0x0530 00 00 e8 00 00 00 00 48 8b 44 24 18 48 8b 48 08  .......H.D$.H.H.
	0x0540 48 8d 51 01 48 8b 58 10 48 8b 00 48 39 d3 0f 82  H.Q.H.X.H..H9...
	0x0550 81 00 00 00 48 89 44 24 70 48 89 54 24 48 48 89  ....H.D$pH.T$HH.
	0x0560 5c 24 40 48 c7 04 c8 64 00 00 00 48 8d 0d 00 00  \$@H...d...H....
	0x0570 00 00 48 89 0c 24 48 8d 8c 24 88 00 00 00 48 89  ..H..$H..$....H.
	0x0580 4c 24 08 48 c7 44 24 10 00 00 00 00 e8 00 00 00  L$.H.D$.........
	0x0590 00 48 8b 7c 24 18 48 8b 44 24 48 48 89 47 08 48  .H.|$.H.D$HH.G.H
	0x05a0 8b 44 24 40 48 89 47 10 83 3d 00 00 00 00 00 75  .D$@H.G..=.....u
	0x05b0 18 48 8b 44 24 70 48 89 07 48 8b ac 24 c8 01 00  .H.D$pH..H..$...
	0x05c0 00 48 81 c4 d0 01 00 00 c3 48 8b 44 24 70 e8 00  .H.......H.D$p..
	0x05d0 00 00 00 eb e4 48 89 4c 24 48 48 8d 35 00 00 00  .....H.L$HH.5...
	0x05e0 00 48 89 34 24 48 89 44 24 08 48 89 4c 24 10 48  .H.4$H.D$.H.L$.H
	0x05f0 89 5c 24 18 48 89 54 24 20 e8 00 00 00 00 48 8b  .\$.H.T$ .....H.
	0x0600 44 24 28 48 8b 4c 24 30 48 8b 5c 24 38 48 8d 51  D$(H.L$0H.\$8H.Q
	0x0610 01 48 8b 4c 24 48 e9 39 ff ff ff 48 8b 44 24 70  .H.L$H.9...H.D$p
	0x0620 e8 00 00 00 00 e9 e7 fe ff ff 48 89 4c 24 48 48  ..........H.L$HH
	0x0630 8d 35 00 00 00 00 48 89 34 24 48 89 44 24 08 48  .5....H.4$H.D$.H
	0x0640 89 4c 24 10 48 89 5c 24 18 48 89 54 24 20 e8 00  .L$.H.\$.H.T$ ..
	0x0650 00 00 00 48 8b 44 24 28 48 8b 4c 24 30 48 8b 5c  ...H.D$(H.L$0H.\
	0x0660 24 38 48 8d 51 01 48 8b 4c 24 48 e9 24 fe ff ff  $8H.Q.H.L$H.$...
	0x0670 48 8b 44 24 70 e8 00 00 00 00 e9 d2 fd ff ff 48  H.D$p..........H
	0x0680 89 4c 24 40 48 89 44 24 70 48 8d 05 00 00 00 00  .L$@H.D$pH......
	0x0690 48 89 04 24 48 8b 8c 24 80 00 00 00 48 89 4c 24  H..$H..$....H.L$
	0x06a0 08 48 c7 44 24 10 04 00 00 00 48 c7 44 24 18 04  .H.D$.....H.D$..
	0x06b0 00 00 00 48 89 54 24 20 e8 00 00 00 00 48 8b 5c  ...H.T$ .....H.\
	0x06c0 24 28 48 8b 74 24 38 48 8b 44 24 70 48 8b 4c 24  $(H.t$8H.D$pH.L$
	0x06d0 40 e9 01 fd ff ff 48 8b 44 24 70 0f 1f 44 00 00  @.....H.D$p..D..
	0x06e0 e8 00 00 00 00 e9 98 fc ff ff 48 89 4c 24 40 48  ..........H.L$@H
	0x06f0 8d 05 00 00 00 00 48 89 04 24 48 89 5c 24 08 48  ......H..$H.\$.H
	0x0700 89 4c 24 10 48 89 54 24 18 48 89 74 24 20 e8 00  .L$.H.T$.H.t$ ..
	0x0710 00 00 00 48 8b 5c 24 28 48 8b 54 24 38 48 8b 4c  ...H.\$(H.T$8H.L
	0x0720 24 40 e9 02 fc ff ff 48 8b 44 24 70 e8 00 00 00  $@.....H.D$p....
	0x0730 00 e9 a1 fb ff ff 48 89 4c 24 40 48 8d 05 00 00  ......H.L$@H....
	0x0740 00 00 48 89 04 24 48 89 5c 24 08 48 89 4c 24 10  ..H..$H.\$.H.L$.
	0x0750 48 89 54 24 18 48 89 74 24 20 e8 00 00 00 00 48  H.T$.H.t$ .....H
	0x0760 8b 5c 24 28 48 8b 54 24 38 48 8b 4c 24 40 e9 0b  .\$(H.T$8H.L$@..
	0x0770 fb ff ff 48 8b 44 24 70 e8 00 00 00 00 0f 1f 00  ...H.D$p........
	0x0780 e9 ac fa ff ff 48 89 4c 24 40 48 8d 05 00 00 00  .....H.L$@H.....
	0x0790 00 48 89 04 24 48 89 5c 24 08 48 89 4c 24 10 48  .H..$H.\$.H.L$.H
	0x07a0 89 54 24 18 48 89 74 24 20 e8 00 00 00 00 48 8b  .T$.H.t$ .....H.
	0x07b0 5c 24 28 48 8b 54 24 38 48 8b 4c 24 40 0f 1f 00  \$(H.T$8H.L$@...
	0x07c0 e9 0f fa ff ff 48 89 44 24 58 48 8d 05 00 00 00  .....H.D$XH.....
	0x07d0 00 48 89 04 24 48 89 54 24 08 48 89 4c 24 10 48  .H..$H.T$.H.L$.H
	0x07e0 89 5c 24 18 48 89 74 24 20 e8 00 00 00 00 48 8b  .\$.H.t$ .....H.
	0x07f0 44 24 28 48 8b 4c 24 30 48 8b 54 24 38 48 8b 7c  D$(H.L$0H.T$8H.|
	0x0800 24 58 48 89 57 10 83 3d 00 00 00 00 00 75 0e 48  $XH.W..=.....u.H
	0x0810 89 07 48 89 c2 48 89 f8 e9 0c f9 ff ff 0f 1f 00  ..H..H..........
	0x0820 e8 00 00 00 00 eb eb 48 89 44 24 50 48 8d 05 00  .......H.D$PH...
	0x0830 00 00 00 48 89 04 24 48 89 54 24 08 48 89 4c 24  ...H..$H.T$.H.L$
	0x0840 10 48 89 5c 24 18 48 89 74 24 20 e8 00 00 00 00  .H.\$.H.t$ .....
	0x0850 48 8b 44 24 28 48 8b 4c 24 30 48 8b 54 24 38 48  H.D$(H.L$0H.T$8H
	0x0860 8b 7c 24 50 48 89 57 10 83 3d 00 00 00 00 00 75  .|$PH.W..=.....u
	0x0870 0e 48 89 07 48 89 c2 48 89 f8 e9 56 f8 ff ff 90  .H..H..H...V....
	0x0880 e8 00 00 00 00 eb ed e8 00 00 00 00 e9 6f f7 ff  .............o..
	0x0890 ff                                               .
	rel 5+4 t=17 TLS+0
	rel 107+4 t=8 runtime.duffzero+220
	rel 132+4 t=8 runtime.fastrand+0
	rel 149+4 t=16 type.map[int64][]int64+0
	rel 180+4 t=8 runtime.mapassign_fast64+0
	rel 232+4 t=16 type.map[int64][]int64+0
	rel 263+4 t=8 runtime.mapassign_fast64+0
	rel 334+4 t=16 type.[4]int64+0
	rel 343+4 t=8 runtime.newobject+0
	rel 394+4 t=16 type.map[int64][]int64+0
	rel 425+4 t=8 runtime.mapassign_fast64+0
	rel 513+4 t=8 runtime.memmove+0
	rel 542+4 t=16 runtime.writeBarrier+-1
	rel 564+4 t=16 type.map[int64][]int64+0
	rel 595+4 t=8 runtime.mapassign_fast64+0
	rel 679+4 t=8 runtime.memmove+0
	rel 708+4 t=16 runtime.writeBarrier+-1
	rel 730+4 t=16 type.map[int64][]int64+0
	rel 761+4 t=8 runtime.mapassign_fast64+0
	rel 850+4 t=8 runtime.memmove+0
	rel 879+4 t=16 runtime.writeBarrier+-1
	rel 901+4 t=16 type.map[int64][]int64+0
	rel 932+4 t=8 runtime.mapaccess1_fast64+0
	rel 1016+4 t=8 runtime.memmove+0
	rel 1023+4 t=16 type.map[int64][]int64+0
	rel 1057+4 t=8 runtime.mapassign_fast64+0
	rel 1086+4 t=16 runtime.writeBarrier+-1
	rel 1108+4 t=16 type.map[int64][]int64+0
	rel 1139+4 t=8 runtime.mapaccess1_fast64+0
	rel 1198+4 t=16 "".sinkAppend+0
	rel 1207+4 t=16 "".sinkAppend+0
	rel 1214+4 t=16 type.map[int64][]int64+0
	rel 1249+4 t=8 runtime.mapassign_fast64+0
	rel 1278+4 t=16 runtime.writeBarrier+-1
	rel 1300+4 t=16 type.map[int64][]int64+0
	rel 1331+4 t=8 runtime.mapaccess1_fast64+0
	rel 1390+4 t=16 type.map[int64][]int64+0
	rel 1421+4 t=8 runtime.mapassign_fast64+0
	rel 1450+4 t=16 runtime.writeBarrier+-1
	rel 1487+4 t=8 runtime.gcWriteBarrier+0
	rel 1501+4 t=16 type.int64+0
	rel 1530+4 t=8 runtime.growslice+0
	rel 1569+4 t=8 runtime.gcWriteBarrier+0
	rel 1586+4 t=16 type.int64+0
	rel 1615+4 t=8 runtime.growslice+0
	rel 1654+4 t=8 runtime.gcWriteBarrier+0
	rel 1676+4 t=16 type.int64+0
	rel 1721+4 t=8 runtime.growslice+0
	rel 1761+4 t=8 runtime.gcWriteBarrier+0
	rel 1778+4 t=16 type.int64+0
	rel 1807+4 t=8 runtime.growslice+0
	rel 1837+4 t=8 runtime.gcWriteBarrier+0
	rel 1854+4 t=16 type.int64+0
	rel 1883+4 t=8 runtime.growslice+0
	rel 1913+4 t=8 runtime.gcWriteBarrier+0
	rel 1933+4 t=16 type.int64+0
	rel 1962+4 t=8 runtime.growslice+0
	rel 1997+4 t=16 type.int64+0
	rel 2026+4 t=8 runtime.growslice+0
	rel 2056+4 t=16 runtime.writeBarrier+-1
	rel 2081+4 t=8 runtime.gcWriteBarrier+0
	rel 2095+4 t=16 type.int64+0
	rel 2124+4 t=8 runtime.growslice+0
	rel 2154+4 t=16 runtime.writeBarrier+-1
	rel 2177+4 t=8 runtime.gcWriteBarrier+0
	rel 2184+4 t=8 runtime.morestack_noctxt+0
"".mapAppendAssignmentComplex128 STEXT size=2255 args=0x0 locals=0x238
	0x0000 00000 (/usr/local/go/test/codegen/mapaccess.go:398)	TEXT	"".mapAppendAssignmentComplex128(SB), ABIInternal, $568-0
	0x0000 00000 (/usr/local/go/test/codegen/mapaccess.go:398)	MOVQ	(TLS), CX
	0x0009 00009 (/usr/local/go/test/codegen/mapaccess.go:398)	LEAQ	-440(SP), AX
	0x0011 00017 (/usr/local/go/test/codegen/mapaccess.go:398)	CMPQ	AX, 16(CX)
	0x0015 00021 (/usr/local/go/test/codegen/mapaccess.go:398)	PCDATA	$0, $-2
	0x0015 00021 (/usr/local/go/test/codegen/mapaccess.go:398)	JLS	2245
	0x001b 00027 (/usr/local/go/test/codegen/mapaccess.go:398)	PCDATA	$0, $-1
	0x001b 00027 (/usr/local/go/test/codegen/mapaccess.go:398)	SUBQ	$568, SP
	0x0022 00034 (/usr/local/go/test/codegen/mapaccess.go:398)	MOVQ	BP, 560(SP)
	0x002a 00042 (/usr/local/go/test/codegen/mapaccess.go:398)	LEAQ	560(SP), BP
	0x0032 00050 (/usr/local/go/test/codegen/mapaccess.go:398)	FUNCDATA	$0, gclocals·7be4bbacbfdb05fb3044e36c22b41e8b(SB)
	0x0032 00050 (/usr/local/go/test/codegen/mapaccess.go:398)	FUNCDATA	$1, gclocals·2823ac4e7cf6a2c67bb66256072bca1e(SB)
	0x0032 00050 (/usr/local/go/test/codegen/mapaccess.go:398)	FUNCDATA	$3, "".mapAppendAssignmentComplex128.stkobj(SB)
	0x0032 00050 (/usr/local/go/test/codegen/mapaccess.go:399)	XORPS	X0, X0
	0x0035 00053 (/usr/local/go/test/codegen/mapaccess.go:399)	MOVUPS	X0, ""..autotmp_8+176(SP)
	0x003d 00061 (/usr/local/go/test/codegen/mapaccess.go:399)	MOVUPS	X0, ""..autotmp_8+192(SP)
	0x0045 00069 (/usr/local/go/test/codegen/mapaccess.go:399)	MOVUPS	X0, ""..autotmp_8+208(SP)
	0x004d 00077 (/usr/local/go/test/codegen/mapaccess.go:399)	LEAQ	""..autotmp_9+224(SP), DI
	0x0055 00085 (/usr/local/go/test/codegen/mapaccess.go:399)	LEAQ	-48(DI), DI
	0x0059 00089 (/usr/local/go/test/codegen/mapaccess.go:399)	NOP
	0x0060 00096 (/usr/local/go/test/codegen/mapaccess.go:399)	DUFFZERO	$201
	0x0073 00115 (/usr/local/go/test/codegen/mapaccess.go:399)	LEAQ	""..autotmp_9+224(SP), AX
	0x007b 00123 (/usr/local/go/test/codegen/mapaccess.go:399)	MOVQ	AX, ""..autotmp_8+192(SP)
	0x0083 00131 (/usr/local/go/test/codegen/mapaccess.go:399)	PCDATA	$1, $1
	0x0083 00131 (/usr/local/go/test/codegen/mapaccess.go:399)	CALL	runtime.fastrand(SB)
	0x0088 00136 (/usr/local/go/test/codegen/mapaccess.go:399)	MOVL	(SP), AX
	0x008b 00139 (/usr/local/go/test/codegen/mapaccess.go:399)	MOVL	AX, ""..autotmp_8+188(SP)
	0x0092 00146 (/usr/local/go/test/codegen/mapaccess.go:406)	XORPS	X1, X1
	0x0095 00149 (/usr/local/go/test/codegen/mapaccess.go:406)	MOVSD	X1, ""..autotmp_3+96(SP)
	0x009b 00155 (/usr/local/go/test/codegen/mapaccess.go:406)	MOVSD	X1, ""..autotmp_3+104(SP)
	0x00a1 00161 (/usr/local/go/test/codegen/mapaccess.go:406)	MOVSD	X1, ""..autotmp_4+80(SP)
	0x00a7 00167 (/usr/local/go/test/codegen/mapaccess.go:406)	MOVSD	X1, ""..autotmp_4+88(SP)
	0x00ad 00173 (/usr/local/go/test/codegen/mapaccess.go:406)	LEAQ	type.map[complex128][]complex128(SB), AX
	0x00b4 00180 (/usr/local/go/test/codegen/mapaccess.go:406)	MOVQ	AX, (SP)
	0x00b8 00184 (/usr/local/go/test/codegen/mapaccess.go:406)	LEAQ	""..autotmp_8+176(SP), CX
	0x00c0 00192 (/usr/local/go/test/codegen/mapaccess.go:406)	MOVQ	CX, 8(SP)
	0x00c5 00197 (/usr/local/go/test/codegen/mapaccess.go:406)	LEAQ	""..autotmp_4+80(SP), DX
	0x00ca 00202 (/usr/local/go/test/codegen/mapaccess.go:406)	MOVQ	DX, 16(SP)
	0x00cf 00207 (/usr/local/go/test/codegen/mapaccess.go:406)	CALL	runtime.mapaccess1(SB)
	0x00d4 00212 (/usr/local/go/test/codegen/mapaccess.go:406)	MOVQ	24(SP), AX
	0x00d9 00217 (/usr/local/go/test/codegen/mapaccess.go:406)	MOVQ	8(AX), CX
	0x00dd 00221 (/usr/local/go/test/codegen/mapaccess.go:406)	LEAQ	1(CX), DX
	0x00e1 00225 (/usr/local/go/test/codegen/mapaccess.go:406)	MOVQ	16(AX), BX
	0x00e5 00229 (/usr/local/go/test/codegen/mapaccess.go:406)	MOVQ	(AX), AX
	0x00e8 00232 (/usr/local/go/test/codegen/mapaccess.go:406)	CMPQ	DX, BX
	0x00eb 00235 (/usr/local/go/test/codegen/mapaccess.go:406)	JHI	2167
	0x00f1 00241 (/usr/local/go/test/codegen/mapaccess.go:406)	MOVQ	AX, ""..autotmp_35+168(SP)
	0x00f9 00249 (/usr/local/go/test/codegen/mapaccess.go:406)	MOVQ	DX, ""..autotmp_36+72(SP)
	0x00fe 00254 (/usr/local/go/test/codegen/mapaccess.go:406)	MOVQ	BX, ""..autotmp_37+64(SP)
	0x0103 00259 (/usr/local/go/test/codegen/mapaccess.go:406)	SHLQ	$4, CX
	0x0107 00263 (/usr/local/go/test/codegen/mapaccess.go:406)	MOVSD	$f64.3ff0000000000000(SB), X0
	0x010f 00271 (/usr/local/go/test/codegen/mapaccess.go:406)	MOVSD	X0, (AX)(CX*1)
	0x0114 00276 (/usr/local/go/test/codegen/mapaccess.go:406)	XORPS	X1, X1
	0x0117 00279 (/usr/local/go/test/codegen/mapaccess.go:406)	MOVSD	X1, 8(AX)(CX*1)
	0x011d 00285 (/usr/local/go/test/codegen/mapaccess.go:406)	LEAQ	type.map[complex128][]complex128(SB), CX
	0x0124 00292 (/usr/local/go/test/codegen/mapaccess.go:406)	MOVQ	CX, (SP)
	0x0128 00296 (/usr/local/go/test/codegen/mapaccess.go:406)	LEAQ	""..autotmp_8+176(SP), SI
	0x0130 00304 (/usr/local/go/test/codegen/mapaccess.go:406)	MOVQ	SI, 8(SP)
	0x0135 00309 (/usr/local/go/test/codegen/mapaccess.go:406)	LEAQ	""..autotmp_3+96(SP), DI
	0x013a 00314 (/usr/local/go/test/codegen/mapaccess.go:406)	MOVQ	DI, 16(SP)
	0x013f 00319 (/usr/local/go/test/codegen/mapaccess.go:406)	PCDATA	$1, $2
	0x013f 00319 (/usr/local/go/test/codegen/mapaccess.go:406)	NOP
	0x0140 00320 (/usr/local/go/test/codegen/mapaccess.go:406)	CALL	runtime.mapassign(SB)
	0x0145 00325 (/usr/local/go/test/codegen/mapaccess.go:406)	MOVQ	24(SP), DI
	0x014a 00330 (/usr/local/go/test/codegen/mapaccess.go:406)	MOVQ	""..autotmp_36+72(SP), AX
	0x014f 00335 (/usr/local/go/test/codegen/mapaccess.go:406)	MOVQ	AX, 8(DI)
	0x0153 00339 (/usr/local/go/test/codegen/mapaccess.go:406)	MOVQ	""..autotmp_37+64(SP), AX
	0x0158 00344 (/usr/local/go/test/codegen/mapaccess.go:406)	MOVQ	AX, 16(DI)
	0x015c 00348 (/usr/local/go/test/codegen/mapaccess.go:406)	PCDATA	$0, $-2
	0x015c 00348 (/usr/local/go/test/codegen/mapaccess.go:406)	CMPL	runtime.writeBarrier(SB), $0
	0x0163 00355 (/usr/local/go/test/codegen/mapaccess.go:406)	JNE	2149
	0x0169 00361 (/usr/local/go/test/codegen/mapaccess.go:406)	MOVQ	""..autotmp_35+168(SP), AX
	0x0171 00369 (/usr/local/go/test/codegen/mapaccess.go:406)	MOVQ	AX, (DI)
	0x0174 00372 (/usr/local/go/test/codegen/mapaccess.go:412)	PCDATA	$0, $-1
	0x0174 00372 (/usr/local/go/test/codegen/mapaccess.go:412)	XORPS	X0, X0
	0x0177 00375 (/usr/local/go/test/codegen/mapaccess.go:412)	MOVSD	X0, ""..autotmp_3+96(SP)
	0x017d 00381 (/usr/local/go/test/codegen/mapaccess.go:412)	MOVSD	X0, ""..autotmp_3+104(SP)
	0x0183 00387 (/usr/local/go/test/codegen/mapaccess.go:412)	MOVSD	X0, ""..autotmp_4+80(SP)
	0x0189 00393 (/usr/local/go/test/codegen/mapaccess.go:412)	MOVSD	X0, ""..autotmp_4+88(SP)
	0x018f 00399 (/usr/local/go/test/codegen/mapaccess.go:412)	LEAQ	type.map[complex128][]complex128(SB), AX
	0x0196 00406 (/usr/local/go/test/codegen/mapaccess.go:412)	MOVQ	AX, (SP)
	0x019a 00410 (/usr/local/go/test/codegen/mapaccess.go:412)	LEAQ	""..autotmp_8+176(SP), CX
	0x01a2 00418 (/usr/local/go/test/codegen/mapaccess.go:412)	MOVQ	CX, 8(SP)
	0x01a7 00423 (/usr/local/go/test/codegen/mapaccess.go:412)	LEAQ	""..autotmp_4+80(SP), DX
	0x01ac 00428 (/usr/local/go/test/codegen/mapaccess.go:412)	MOVQ	DX, 16(SP)
	0x01b1 00433 (/usr/local/go/test/codegen/mapaccess.go:412)	PCDATA	$1, $1
	0x01b1 00433 (/usr/local/go/test/codegen/mapaccess.go:412)	CALL	runtime.mapaccess1(SB)
	0x01b6 00438 (/usr/local/go/test/codegen/mapaccess.go:412)	MOVQ	24(SP), AX
	0x01bb 00443 (/usr/local/go/test/codegen/mapaccess.go:412)	MOVQ	8(AX), CX
	0x01bf 00447 (/usr/local/go/test/codegen/mapaccess.go:412)	LEAQ	3(CX), DX
	0x01c3 00451 (/usr/local/go/test/codegen/mapaccess.go:412)	MOVQ	16(AX), BX
	0x01c7 00455 (/usr/local/go/test/codegen/mapaccess.go:412)	MOVQ	(AX), AX
	0x01ca 00458 (/usr/local/go/test/codegen/mapaccess.go:412)	CMPQ	DX, BX
	0x01cd 00461 (/usr/local/go/test/codegen/mapaccess.go:412)	JHI	2071
	0x01d3 00467 (/usr/local/go/test/codegen/mapaccess.go:412)	MOVQ	AX, ""..autotmp_38+160(SP)
	0x01db 00475 (/usr/local/go/test/codegen/mapaccess.go:412)	MOVQ	DX, ""..autotmp_36+72(SP)
	0x01e0 00480 (/usr/local/go/test/codegen/mapaccess.go:412)	MOVQ	BX, ""..autotmp_37+64(SP)
	0x01e5 00485 (/usr/local/go/test/codegen/mapaccess.go:412)	SHLQ	$4, CX
	0x01e9 00489 (/usr/local/go/test/codegen/mapaccess.go:412)	MOVSD	$f64.3ff0000000000000(SB), X0
	0x01f1 00497 (/usr/local/go/test/codegen/mapaccess.go:412)	MOVSD	X0, (AX)(CX*1)
	0x01f6 00502 (/usr/local/go/test/codegen/mapaccess.go:412)	XORPS	X1, X1
	0x01f9 00505 (/usr/local/go/test/codegen/mapaccess.go:412)	MOVSD	X1, 8(AX)(CX*1)
	0x01ff 00511 (/usr/local/go/test/codegen/mapaccess.go:412)	MOVSD	$f64.4000000000000000(SB), X2
	0x0207 00519 (/usr/local/go/test/codegen/mapaccess.go:412)	MOVSD	X2, 16(AX)(CX*1)
	0x020d 00525 (/usr/local/go/test/codegen/mapaccess.go:412)	MOVSD	X1, 24(AX)(CX*1)
	0x0213 00531 (/usr/local/go/test/codegen/mapaccess.go:412)	MOVSD	$f64.4008000000000000(SB), X2
	0x021b 00539 (/usr/local/go/test/codegen/mapaccess.go:412)	MOVSD	X2, 32(AX)(CX*1)
	0x0221 00545 (/usr/local/go/test/codegen/mapaccess.go:412)	MOVSD	X1, 40(AX)(CX*1)
	0x0227 00551 (/usr/local/go/test/codegen/mapaccess.go:412)	LEAQ	type.map[complex128][]complex128(SB), CX
	0x022e 00558 (/usr/local/go/test/codegen/mapaccess.go:412)	MOVQ	CX, (SP)
	0x0232 00562 (/usr/local/go/test/codegen/mapaccess.go:412)	LEAQ	""..autotmp_8+176(SP), SI
	0x023a 00570 (/usr/local/go/test/codegen/mapaccess.go:412)	MOVQ	SI, 8(SP)
	0x023f 00575 (/usr/local/go/test/codegen/mapaccess.go:412)	LEAQ	""..autotmp_3+96(SP), DI
	0x0244 00580 (/usr/local/go/test/codegen/mapaccess.go:412)	MOVQ	DI, 16(SP)
	0x0249 00585 (/usr/local/go/test/codegen/mapaccess.go:412)	PCDATA	$1, $3
	0x0249 00585 (/usr/local/go/test/codegen/mapaccess.go:412)	CALL	runtime.mapassign(SB)
	0x024e 00590 (/usr/local/go/test/codegen/mapaccess.go:412)	MOVQ	24(SP), DI
	0x0253 00595 (/usr/local/go/test/codegen/mapaccess.go:412)	MOVQ	""..autotmp_36+72(SP), AX
	0x0258 00600 (/usr/local/go/test/codegen/mapaccess.go:412)	MOVQ	AX, 8(DI)
	0x025c 00604 (/usr/local/go/test/codegen/mapaccess.go:412)	MOVQ	""..autotmp_37+64(SP), AX
	0x0261 00609 (/usr/local/go/test/codegen/mapaccess.go:412)	MOVQ	AX, 16(DI)
	0x0265 00613 (/usr/local/go/test/codegen/mapaccess.go:412)	PCDATA	$0, $-2
	0x0265 00613 (/usr/local/go/test/codegen/mapaccess.go:412)	CMPL	runtime.writeBarrier(SB), $0
	0x026c 00620 (/usr/local/go/test/codegen/mapaccess.go:412)	JNE	2053
	0x0272 00626 (/usr/local/go/test/codegen/mapaccess.go:412)	MOVQ	""..autotmp_38+160(SP), AX
	0x027a 00634 (/usr/local/go/test/codegen/mapaccess.go:412)	MOVQ	AX, (DI)
	0x027d 00637 (/usr/local/go/test/codegen/mapaccess.go:414)	PCDATA	$0, $-1
	0x027d 00637 (/usr/local/go/test/codegen/mapaccess.go:414)	LEAQ	type.[4]complex128(SB), AX
	0x0284 00644 (/usr/local/go/test/codegen/mapaccess.go:414)	MOVQ	AX, (SP)
	0x0288 00648 (/usr/local/go/test/codegen/mapaccess.go:414)	PCDATA	$1, $1
	0x0288 00648 (/usr/local/go/test/codegen/mapaccess.go:414)	CALL	runtime.newobject(SB)
	0x028d 00653 (/usr/local/go/test/codegen/mapaccess.go:414)	MOVQ	8(SP), AX
	0x0292 00658 (/usr/local/go/test/codegen/mapaccess.go:414)	MOVQ	AX, ""..autotmp_39+152(SP)
	0x029a 00666 (/usr/local/go/test/codegen/mapaccess.go:414)	MOVSD	$f64.401c000000000000(SB), X0
	0x02a2 00674 (/usr/local/go/test/codegen/mapaccess.go:414)	MOVSD	X0, (AX)
	0x02a6 00678 (/usr/local/go/test/codegen/mapaccess.go:414)	XORPS	X0, X0
	0x02a9 00681 (/usr/local/go/test/codegen/mapaccess.go:414)	MOVSD	X0, 8(AX)
	0x02ae 00686 (/usr/local/go/test/codegen/mapaccess.go:414)	MOVSD	$f64.4020000000000000(SB), X1
	0x02b6 00694 (/usr/local/go/test/codegen/mapaccess.go:414)	MOVSD	X1, 16(AX)
	0x02bb 00699 (/usr/local/go/test/codegen/mapaccess.go:414)	MOVSD	X0, 24(AX)
	0x02c0 00704 (/usr/local/go/test/codegen/mapaccess.go:414)	MOVSD	$f64.4022000000000000(SB), X1
	0x02c8 00712 (/usr/local/go/test/codegen/mapaccess.go:414)	MOVSD	X1, 32(AX)
	0x02cd 00717 (/usr/local/go/test/codegen/mapaccess.go:414)	MOVSD	X0, 40(AX)
	0x02d2 00722 (/usr/local/go/test/codegen/mapaccess.go:414)	MOVSD	X0, 48(AX)
	0x02d7 00727 (/usr/local/go/test/codegen/mapaccess.go:414)	MOVSD	X0, 56(AX)
	0x02dc 00732 (/usr/local/go/test/codegen/mapaccess.go:420)	MOVSD	X0, ""..autotmp_3+96(SP)
	0x02e2 00738 (/usr/local/go/test/codegen/mapaccess.go:420)	MOVSD	X0, ""..autotmp_3+104(SP)
	0x02e8 00744 (/usr/local/go/test/codegen/mapaccess.go:420)	MOVSD	X0, ""..autotmp_4+80(SP)
	0x02ee 00750 (/usr/local/go/test/codegen/mapaccess.go:420)	MOVSD	X0, ""..autotmp_4+88(SP)
	0x02f4 00756 (/usr/local/go/test/codegen/mapaccess.go:420)	LEAQ	type.map[complex128][]complex128(SB), CX
	0x02fb 00763 (/usr/local/go/test/codegen/mapaccess.go:420)	MOVQ	CX, (SP)
	0x02ff 00767 (/usr/local/go/test/codegen/mapaccess.go:420)	LEAQ	""..autotmp_8+176(SP), DX
	0x0307 00775 (/usr/local/go/test/codegen/mapaccess.go:420)	MOVQ	DX, 8(SP)
	0x030c 00780 (/usr/local/go/test/codegen/mapaccess.go:420)	LEAQ	""..autotmp_4+80(SP), BX
	0x0311 00785 (/usr/local/go/test/codegen/mapaccess.go:420)	MOVQ	BX, 16(SP)
	0x0316 00790 (/usr/local/go/test/codegen/mapaccess.go:420)	PCDATA	$1, $4
	0x0316 00790 (/usr/local/go/test/codegen/mapaccess.go:420)	CALL	runtime.mapaccess1(SB)
	0x031b 00795 (/usr/local/go/test/codegen/mapaccess.go:420)	MOVQ	24(SP), AX
	0x0320 00800 (/usr/local/go/test/codegen/mapaccess.go:420)	MOVQ	8(AX), CX
	0x0324 00804 (/usr/local/go/test/codegen/mapaccess.go:420)	LEAQ	4(CX), DX
	0x0328 00808 (/usr/local/go/test/codegen/mapaccess.go:420)	MOVQ	DX, ""..autotmp_36+72(SP)
	0x032d 00813 (/usr/local/go/test/codegen/mapaccess.go:420)	MOVQ	16(AX), BX
	0x0331 00817 (/usr/local/go/test/codegen/mapaccess.go:420)	MOVQ	(AX), AX
	0x0334 00820 (/usr/local/go/test/codegen/mapaccess.go:420)	CMPQ	DX, BX
	0x0337 00823 (/usr/local/go/test/codegen/mapaccess.go:420)	JHI	1989
	0x033d 00829 (/usr/local/go/test/codegen/mapaccess.go:420)	MOVQ	AX, ""..autotmp_40+144(SP)
	0x0345 00837 (/usr/local/go/test/codegen/mapaccess.go:420)	MOVQ	BX, ""..autotmp_37+64(SP)
	0x034a 00842 (/usr/local/go/test/codegen/mapaccess.go:420)	SHLQ	$4, CX
	0x034e 00846 (/usr/local/go/test/codegen/mapaccess.go:420)	ADDQ	AX, CX
	0x0351 00849 (/usr/local/go/test/codegen/mapaccess.go:420)	MOVQ	CX, (SP)
	0x0355 00853 (/usr/local/go/test/codegen/mapaccess.go:420)	MOVQ	""..autotmp_39+152(SP), CX
	0x035d 00861 (/usr/local/go/test/codegen/mapaccess.go:420)	MOVQ	CX, 8(SP)
	0x0362 00866 (/usr/local/go/test/codegen/mapaccess.go:420)	MOVQ	$64, 16(SP)
	0x036b 00875 (/usr/local/go/test/codegen/mapaccess.go:420)	PCDATA	$1, $5
	0x036b 00875 (/usr/local/go/test/codegen/mapaccess.go:420)	CALL	runtime.memmove(SB)
	0x0370 00880 (/usr/local/go/test/codegen/mapaccess.go:420)	LEAQ	type.map[complex128][]complex128(SB), AX
	0x0377 00887 (/usr/local/go/test/codegen/mapaccess.go:420)	MOVQ	AX, (SP)
	0x037b 00891 (/usr/local/go/test/codegen/mapaccess.go:420)	LEAQ	""..autotmp_8+176(SP), CX
	0x0383 00899 (/usr/local/go/test/codegen/mapaccess.go:420)	MOVQ	CX, 8(SP)
	0x0388 00904 (/usr/local/go/test/codegen/mapaccess.go:420)	LEAQ	""..autotmp_3+96(SP), DX
	0x038d 00909 (/usr/local/go/test/codegen/mapaccess.go:420)	MOVQ	DX, 16(SP)
	0x0392 00914 (/usr/local/go/test/codegen/mapaccess.go:420)	CALL	runtime.mapassign(SB)
	0x0397 00919 (/usr/local/go/test/codegen/mapaccess.go:420)	MOVQ	24(SP), DI
	0x039c 00924 (/usr/local/go/test/codegen/mapaccess.go:420)	MOVQ	""..autotmp_36+72(SP), AX
	0x03a1 00929 (/usr/local/go/test/codegen/mapaccess.go:420)	MOVQ	AX, 8(DI)
	0x03a5 00933 (/usr/local/go/test/codegen/mapaccess.go:420)	MOVQ	""..autotmp_37+64(SP), AX
	0x03aa 00938 (/usr/local/go/test/codegen/mapaccess.go:420)	MOVQ	AX, 16(DI)
	0x03ae 00942 (/usr/local/go/test/codegen/mapaccess.go:420)	PCDATA	$0, $-2
	0x03ae 00942 (/usr/local/go/test/codegen/mapaccess.go:420)	CMPL	runtime.writeBarrier(SB), $0
	0x03b5 00949 (/usr/local/go/test/codegen/mapaccess.go:420)	JNE	1966
	0x03bb 00955 (/usr/local/go/test/codegen/mapaccess.go:420)	MOVQ	""..autotmp_40+144(SP), AX
	0x03c3 00963 (/usr/local/go/test/codegen/mapaccess.go:420)	MOVQ	AX, (DI)
	0x03c6 00966 (/usr/local/go/test/codegen/mapaccess.go:428)	PCDATA	$0, $-1
	0x03c6 00966 (/usr/local/go/test/codegen/mapaccess.go:428)	XORPS	X0, X0
	0x03c9 00969 (/usr/local/go/test/codegen/mapaccess.go:428)	MOVSD	X0, ""..autotmp_3+96(SP)
	0x03cf 00975 (/usr/local/go/test/codegen/mapaccess.go:428)	MOVSD	X0, ""..autotmp_3+104(SP)
	0x03d5 00981 (/usr/local/go/test/codegen/mapaccess.go:428)	MOVSD	X0, ""..autotmp_4+80(SP)
	0x03db 00987 (/usr/local/go/test/codegen/mapaccess.go:428)	MOVSD	X0, ""..autotmp_4+88(SP)
	0x03e1 00993 (/usr/local/go/test/codegen/mapaccess.go:428)	LEAQ	type.map[complex128][]complex128(SB), AX
	0x03e8 01000 (/usr/local/go/test/codegen/mapaccess.go:428)	MOVQ	AX, (SP)
	0x03ec 01004 (/usr/local/go/test/codegen/mapaccess.go:428)	LEAQ	""..autotmp_8+176(SP), CX
	0x03f4 01012 (/usr/local/go/test/codegen/mapaccess.go:428)	MOVQ	CX, 8(SP)
	0x03f9 01017 (/usr/local/go/test/codegen/mapaccess.go:428)	LEAQ	""..autotmp_4+80(SP), DX
	0x03fe 01022 (/usr/local/go/test/codegen/mapaccess.go:428)	MOVQ	DX, 16(SP)
	0x0403 01027 (/usr/local/go/test/codegen/mapaccess.go:428)	PCDATA	$1, $4
	0x0403 01027 (/usr/local/go/test/codegen/mapaccess.go:428)	CALL	runtime.mapaccess1(SB)
	0x0408 01032 (/usr/local/go/test/codegen/mapaccess.go:428)	MOVQ	24(SP), AX
	0x040d 01037 (/usr/local/go/test/codegen/mapaccess.go:428)	MOVQ	8(AX), CX
	0x0411 01041 (/usr/local/go/test/codegen/mapaccess.go:428)	LEAQ	4(CX), DX
	0x0415 01045 (/usr/local/go/test/codegen/mapaccess.go:428)	MOVQ	DX, ""..autotmp_36+72(SP)
	0x041a 01050 (/usr/local/go/test/codegen/mapaccess.go:428)	MOVQ	(AX), AX
	0x041d 01053 (/usr/local/go/test/codegen/mapaccess.go:428)	NOP
	0x0420 01056 (/usr/local/go/test/codegen/mapaccess.go:428)	CMPQ	DX, $4
	0x0424 01060 (/usr/local/go/test/codegen/mapaccess.go:428)	JHI	1879
	0x042a 01066 (/usr/local/go/test/codegen/mapaccess.go:428)	MOVQ	""..autotmp_39+152(SP), BX
	0x0432 01074 (/usr/local/go/test/codegen/mapaccess.go:428)	MOVL	$4, SI
	0x0437 01079 (/usr/local/go/test/codegen/mapaccess.go:428)	MOVQ	SI, ""..autotmp_37+64(SP)
	0x043c 01084 (/usr/local/go/test/codegen/mapaccess.go:428)	MOVQ	BX, ""..autotmp_41+136(SP)
	0x0444 01092 (/usr/local/go/test/codegen/mapaccess.go:428)	LEAQ	64(BX), DX
	0x0448 01096 (/usr/local/go/test/codegen/mapaccess.go:428)	MOVQ	DX, (SP)
	0x044c 01100 (/usr/local/go/test/codegen/mapaccess.go:428)	MOVQ	AX, 8(SP)
	0x0451 01105 (/usr/local/go/test/codegen/mapaccess.go:428)	SHLQ	$4, CX
	0x0455 01109 (/usr/local/go/test/codegen/mapaccess.go:428)	MOVQ	CX, 16(SP)
	0x045a 01114 (/usr/local/go/test/codegen/mapaccess.go:428)	PCDATA	$1, $6
	0x045a 01114 (/usr/local/go/test/codegen/mapaccess.go:428)	CALL	runtime.memmove(SB)
	0x045f 01119 (/usr/local/go/test/codegen/mapaccess.go:428)	LEAQ	type.map[complex128][]complex128(SB), AX
	0x0466 01126 (/usr/local/go/test/codegen/mapaccess.go:428)	MOVQ	AX, (SP)
	0x046a 01130 (/usr/local/go/test/codegen/mapaccess.go:428)	LEAQ	""..autotmp_8+176(SP), CX
	0x0472 01138 (/usr/local/go/test/codegen/mapaccess.go:428)	MOVQ	CX, 8(SP)
	0x0477 01143 (/usr/local/go/test/codegen/mapaccess.go:428)	LEAQ	""..autotmp_3+96(SP), DX
	0x047c 01148 (/usr/local/go/test/codegen/mapaccess.go:428)	MOVQ	DX, 16(SP)
	0x0481 01153 (/usr/local/go/test/codegen/mapaccess.go:428)	CALL	runtime.mapassign(SB)
	0x0486 01158 (/usr/local/go/test/codegen/mapaccess.go:428)	MOVQ	24(SP), DI
	0x048b 01163 (/usr/local/go/test/codegen/mapaccess.go:428)	MOVQ	""..autotmp_36+72(SP), AX
	0x0490 01168 (/usr/local/go/test/codegen/mapaccess.go:428)	MOVQ	AX, 8(DI)
	0x0494 01172 (/usr/local/go/test/codegen/mapaccess.go:428)	MOVQ	""..autotmp_37+64(SP), AX
	0x0499 01177 (/usr/local/go/test/codegen/mapaccess.go:428)	MOVQ	AX, 16(DI)
	0x049d 01181 (/usr/local/go/test/codegen/mapaccess.go:428)	PCDATA	$0, $-2
	0x049d 01181 (/usr/local/go/test/codegen/mapaccess.go:428)	CMPL	runtime.writeBarrier(SB), $0
	0x04a4 01188 (/usr/local/go/test/codegen/mapaccess.go:428)	JNE	1861
	0x04aa 01194 (/usr/local/go/test/codegen/mapaccess.go:428)	MOVQ	""..autotmp_41+136(SP), AX
	0x04b2 01202 (/usr/local/go/test/codegen/mapaccess.go:428)	MOVQ	AX, (DI)
	0x04b5 01205 (/usr/local/go/test/codegen/mapaccess.go:434)	PCDATA	$0, $-1
	0x04b5 01205 (/usr/local/go/test/codegen/mapaccess.go:434)	XORPS	X0, X0
	0x04b8 01208 (/usr/local/go/test/codegen/mapaccess.go:434)	MOVSD	X0, ""..autotmp_3+96(SP)
	0x04be 01214 (/usr/local/go/test/codegen/mapaccess.go:434)	MOVSD	X0, ""..autotmp_3+104(SP)
	0x04c4 01220 (/usr/local/go/test/codegen/mapaccess.go:434)	MOVSD	X0, ""..autotmp_4+80(SP)
	0x04ca 01226 (/usr/local/go/test/codegen/mapaccess.go:434)	MOVSD	X0, ""..autotmp_4+88(SP)
	0x04d0 01232 (/usr/local/go/test/codegen/mapaccess.go:434)	LEAQ	type.map[complex128][]complex128(SB), AX
	0x04d7 01239 (/usr/local/go/test/codegen/mapaccess.go:434)	MOVQ	AX, (SP)
	0x04db 01243 (/usr/local/go/test/codegen/mapaccess.go:434)	LEAQ	""..autotmp_8+176(SP), CX
	0x04e3 01251 (/usr/local/go/test/codegen/mapaccess.go:434)	MOVQ	CX, 8(SP)
	0x04e8 01256 (/usr/local/go/test/codegen/mapaccess.go:434)	LEAQ	""..autotmp_4+80(SP), DX
	0x04ed 01261 (/usr/local/go/test/codegen/mapaccess.go:434)	MOVQ	DX, 16(SP)
	0x04f2 01266 (/usr/local/go/test/codegen/mapaccess.go:434)	PCDATA	$1, $1
	0x04f2 01266 (/usr/local/go/test/codegen/mapaccess.go:434)	CALL	runtime.mapaccess1(SB)
	0x04f7 01271 (/usr/local/go/test/codegen/mapaccess.go:434)	MOVQ	24(SP), AX
	0x04fc 01276 (/usr/local/go/test/codegen/mapaccess.go:434)	MOVQ	8(AX), CX
	0x0500 01280 (/usr/local/go/test/codegen/mapaccess.go:434)	LEAQ	1(CX), DX
	0x0504 01284 (/usr/local/go/test/codegen/mapaccess.go:434)	MOVQ	16(AX), BX
	0x0508 01288 (/usr/local/go/test/codegen/mapaccess.go:434)	MOVQ	(AX), AX
	0x050b 01291 (/usr/local/go/test/codegen/mapaccess.go:434)	CMPQ	BX, DX
	0x050e 01294 (/usr/local/go/test/codegen/mapaccess.go:434)	JCS	1786
	0x0514 01300 (/usr/local/go/test/codegen/mapaccess.go:434)	MOVQ	AX, ""..autotmp_42+128(SP)
	0x051c 01308 (/usr/local/go/test/codegen/mapaccess.go:434)	MOVQ	DX, ""..autotmp_36+72(SP)
	0x0521 01313 (/usr/local/go/test/codegen/mapaccess.go:434)	MOVQ	BX, ""..autotmp_37+64(SP)
	0x0526 01318 (/usr/local/go/test/codegen/mapaccess.go:434)	SHLQ	$4, CX
	0x052a 01322 (/usr/local/go/test/codegen/mapaccess.go:434)	MOVSD	$f64.4058c00000000000(SB), X0
	0x0532 01330 (/usr/local/go/test/codegen/mapaccess.go:434)	MOVSD	X0, (AX)(CX*1)
	0x0537 01335 (/usr/local/go/test/codegen/mapaccess.go:434)	XORPS	X0, X0
	0x053a 01338 (/usr/local/go/test/codegen/mapaccess.go:434)	MOVSD	X0, 8(AX)(CX*1)
	0x0540 01344 (/usr/local/go/test/codegen/mapaccess.go:434)	MOVBLZX	"".sinkAppend(SB), CX
	0x0547 01351 (/usr/local/go/test/codegen/mapaccess.go:434)	XORL	$1, CX
	0x054a 01354 (/usr/local/go/test/codegen/mapaccess.go:434)	MOVB	CL, "".sinkAppend(SB)
	0x0550 01360 (/usr/local/go/test/codegen/mapaccess.go:434)	LEAQ	type.map[complex128][]complex128(SB), CX
	0x0557 01367 (/usr/local/go/test/codegen/mapaccess.go:434)	MOVQ	CX, (SP)
	0x055b 01371 (/usr/local/go/test/codegen/mapaccess.go:434)	LEAQ	""..autotmp_8+176(SP), SI
	0x0563 01379 (/usr/local/go/test/codegen/mapaccess.go:434)	MOVQ	SI, 8(SP)
	0x0568 01384 (/usr/local/go/test/codegen/mapaccess.go:434)	LEAQ	""..autotmp_3+96(SP), DI
	0x056d 01389 (/usr/local/go/test/codegen/mapaccess.go:434)	MOVQ	DI, 16(SP)
	0x0572 01394 (/usr/local/go/test/codegen/mapaccess.go:434)	PCDATA	$1, $7
	0x0572 01394 (/usr/local/go/test/codegen/mapaccess.go:434)	CALL	runtime.mapassign(SB)
	0x0577 01399 (/usr/local/go/test/codegen/mapaccess.go:434)	MOVQ	24(SP), DI
	0x057c 01404 (/usr/local/go/test/codegen/mapaccess.go:434)	MOVQ	""..autotmp_36+72(SP), AX
	0x0581 01409 (/usr/local/go/test/codegen/mapaccess.go:434)	MOVQ	AX, 8(DI)
	0x0585 01413 (/usr/local/go/test/codegen/mapaccess.go:434)	MOVQ	""..autotmp_37+64(SP), AX
	0x058a 01418 (/usr/local/go/test/codegen/mapaccess.go:434)	MOVQ	AX, 16(DI)
	0x058e 01422 (/usr/local/go/test/codegen/mapaccess.go:434)	PCDATA	$0, $-2
	0x058e 01422 (/usr/local/go/test/codegen/mapaccess.go:434)	CMPL	runtime.writeBarrier(SB), $0
	0x0595 01429 (/usr/local/go/test/codegen/mapaccess.go:434)	JNE	1768
	0x059b 01435 (/usr/local/go/test/codegen/mapaccess.go:434)	MOVQ	""..autotmp_42+128(SP), AX
	0x05a3 01443 (/usr/local/go/test/codegen/mapaccess.go:434)	MOVQ	AX, (DI)
	0x05a6 01446 (/usr/local/go/test/codegen/mapaccess.go:440)	PCDATA	$0, $-1
	0x05a6 01446 (/usr/local/go/test/codegen/mapaccess.go:440)	XORPS	X0, X0
	0x05a9 01449 (/usr/local/go/test/codegen/mapaccess.go:440)	MOVSD	X0, ""..autotmp_3+96(SP)
	0x05af 01455 (/usr/local/go/test/codegen/mapaccess.go:440)	MOVSD	X0, ""..autotmp_3+104(SP)
	0x05b5 01461 (/usr/local/go/test/codegen/mapaccess.go:440)	MOVSD	$f64.3ff0000000000000(SB), X1
	0x05bd 01469 (/usr/local/go/test/codegen/mapaccess.go:440)	MOVSD	X1, ""..autotmp_4+80(SP)
	0x05c3 01475 (/usr/local/go/test/codegen/mapaccess.go:440)	MOVSD	X0, ""..autotmp_4+88(SP)
	0x05c9 01481 (/usr/local/go/test/codegen/mapaccess.go:440)	LEAQ	type.map[complex128][]complex128(SB), AX
	0x05d0 01488 (/usr/local/go/test/codegen/mapaccess.go:440)	MOVQ	AX, (SP)
	0x05d4 01492 (/usr/local/go/test/codegen/mapaccess.go:440)	LEAQ	""..autotmp_8+176(SP), CX
	0x05dc 01500 (/usr/local/go/test/codegen/mapaccess.go:440)	MOVQ	CX, 8(SP)
	0x05e1 01505 (/usr/local/go/test/codegen/mapaccess.go:440)	LEAQ	""..autotmp_4+80(SP), DX
	0x05e6 01510 (/usr/local/go/test/codegen/mapaccess.go:440)	MOVQ	DX, 16(SP)
	0x05eb 01515 (/usr/local/go/test/codegen/mapaccess.go:440)	PCDATA	$1, $1
	0x05eb 01515 (/usr/local/go/test/codegen/mapaccess.go:440)	CALL	runtime.mapaccess1(SB)
	0x05f0 01520 (/usr/local/go/test/codegen/mapaccess.go:440)	MOVQ	24(SP), AX
	0x05f5 01525 (/usr/local/go/test/codegen/mapaccess.go:440)	MOVQ	8(AX), CX
	0x05f9 01529 (/usr/local/go/test/codegen/mapaccess.go:440)	LEAQ	1(CX), DX
	0x05fd 01533 (/usr/local/go/test/codegen/mapaccess.go:440)	MOVQ	16(AX), BX
	0x0601 01537 (/usr/local/go/test/codegen/mapaccess.go:440)	MOVQ	(AX), AX
	0x0604 01540 (/usr/local/go/test/codegen/mapaccess.go:440)	CMPQ	DX, BX
	0x0607 01543 (/usr/local/go/test/codegen/mapaccess.go:440)	JHI	1698
	0x060d 01549 (/usr/local/go/test/codegen/mapaccess.go:440)	MOVQ	AX, ""..autotmp_43+120(SP)
	0x0612 01554 (/usr/local/go/test/codegen/mapaccess.go:440)	MOVQ	DX, ""..autotmp_36+72(SP)
	0x0617 01559 (/usr/local/go/test/codegen/mapaccess.go:440)	MOVQ	BX, ""..autotmp_37+64(SP)
	0x061c 01564 (/usr/local/go/test/codegen/mapaccess.go:440)	SHLQ	$4, CX
	0x0620 01568 (/usr/local/go/test/codegen/mapaccess.go:440)	MOVSD	$f64.4059000000000000(SB), X0
	0x0628 01576 (/usr/local/go/test/codegen/mapaccess.go:440)	MOVSD	X0, (AX)(CX*1)
	0x062d 01581 (/usr/local/go/test/codegen/mapaccess.go:440)	XORPS	X0, X0
	0x0630 01584 (/usr/local/go/test/codegen/mapaccess.go:440)	MOVSD	X0, 8(AX)(CX*1)
	0x0636 01590 (/usr/local/go/test/codegen/mapaccess.go:440)	LEAQ	type.map[complex128][]complex128(SB), CX
	0x063d 01597 (/usr/local/go/test/codegen/mapaccess.go:440)	MOVQ	CX, (SP)
	0x0641 01601 (/usr/local/go/test/codegen/mapaccess.go:440)	LEAQ	""..autotmp_8+176(SP), CX
	0x0649 01609 (/usr/local/go/test/codegen/mapaccess.go:440)	MOVQ	CX, 8(SP)
	0x064e 01614 (/usr/local/go/test/codegen/mapaccess.go:440)	LEAQ	""..autotmp_3+96(SP), CX
	0x0653 01619 (/usr/local/go/test/codegen/mapaccess.go:440)	MOVQ	CX, 16(SP)
	0x0658 01624 (/usr/local/go/test/codegen/mapaccess.go:440)	PCDATA	$1, $8
	0x0658 01624 (/usr/local/go/test/codegen/mapaccess.go:440)	CALL	runtime.mapassign(SB)
	0x065d 01629 (/usr/local/go/test/codegen/mapaccess.go:440)	MOVQ	24(SP), DI
	0x0662 01634 (/usr/local/go/test/codegen/mapaccess.go:440)	MOVQ	""..autotmp_36+72(SP), AX
	0x0667 01639 (/usr/local/go/test/codegen/mapaccess.go:440)	MOVQ	AX, 8(DI)
	0x066b 01643 (/usr/local/go/test/codegen/mapaccess.go:440)	MOVQ	""..autotmp_37+64(SP), AX
	0x0670 01648 (/usr/local/go/test/codegen/mapaccess.go:440)	MOVQ	AX, 16(DI)
	0x0674 01652 (/usr/local/go/test/codegen/mapaccess.go:440)	PCDATA	$0, $-2
	0x0674 01652 (/usr/local/go/test/codegen/mapaccess.go:440)	CMPL	runtime.writeBarrier(SB), $0
	0x067b 01659 (/usr/local/go/test/codegen/mapaccess.go:440)	JNE	1685
	0x067d 01661 (/usr/local/go/test/codegen/mapaccess.go:440)	MOVQ	""..autotmp_43+120(SP), AX
	0x0682 01666 (/usr/local/go/test/codegen/mapaccess.go:440)	MOVQ	AX, (DI)
	0x0685 01669 (/usr/local/go/test/codegen/mapaccess.go:441)	PCDATA	$0, $-1
	0x0685 01669 (/usr/local/go/test/codegen/mapaccess.go:441)	PCDATA	$1, $-1
	0x0685 01669 (/usr/local/go/test/codegen/mapaccess.go:441)	MOVQ	560(SP), BP
	0x068d 01677 (/usr/local/go/test/codegen/mapaccess.go:441)	ADDQ	$568, SP
	0x0694 01684 (/usr/local/go/test/codegen/mapaccess.go:441)	RET
	0x0695 01685 (/usr/local/go/test/codegen/mapaccess.go:440)	PCDATA	$0, $-2
	0x0695 01685 (/usr/local/go/test/codegen/mapaccess.go:440)	MOVQ	""..autotmp_43+120(SP), AX
	0x069a 01690 (/usr/local/go/test/codegen/mapaccess.go:440)	CALL	runtime.gcWriteBarrier(SB)
	0x069f 01695 (/usr/local/go/test/codegen/mapaccess.go:440)	NOP
	0x06a0 01696 (/usr/local/go/test/codegen/mapaccess.go:440)	JMP	1669
	0x06a2 01698 (/usr/local/go/test/codegen/mapaccess.go:440)	PCDATA	$0, $-1
	0x06a2 01698 (/usr/local/go/test/codegen/mapaccess.go:440)	MOVQ	CX, ""..autotmp_36+72(SP)
	0x06a7 01703 (/usr/local/go/test/codegen/mapaccess.go:440)	LEAQ	type.complex128(SB), SI
	0x06ae 01710 (/usr/local/go/test/codegen/mapaccess.go:440)	MOVQ	SI, (SP)
	0x06b2 01714 (/usr/local/go/test/codegen/mapaccess.go:440)	MOVQ	AX, 8(SP)
	0x06b7 01719 (/usr/local/go/test/codegen/mapaccess.go:440)	MOVQ	CX, 16(SP)
	0x06bc 01724 (/usr/local/go/test/codegen/mapaccess.go:440)	MOVQ	BX, 24(SP)
	0x06c1 01729 (/usr/local/go/test/codegen/mapaccess.go:440)	MOVQ	DX, 32(SP)
	0x06c6 01734 (/usr/local/go/test/codegen/mapaccess.go:440)	PCDATA	$1, $1
	0x06c6 01734 (/usr/local/go/test/codegen/mapaccess.go:440)	CALL	runtime.growslice(SB)
	0x06cb 01739 (/usr/local/go/test/codegen/mapaccess.go:440)	MOVQ	40(SP), AX
	0x06d0 01744 (/usr/local/go/test/codegen/mapaccess.go:440)	MOVQ	48(SP), CX
	0x06d5 01749 (/usr/local/go/test/codegen/mapaccess.go:440)	MOVQ	56(SP), BX
	0x06da 01754 (/usr/local/go/test/codegen/mapaccess.go:440)	LEAQ	1(CX), DX
	0x06de 01758 (/usr/local/go/test/codegen/mapaccess.go:440)	MOVQ	""..autotmp_36+72(SP), CX
	0x06e3 01763 (/usr/local/go/test/codegen/mapaccess.go:440)	JMP	1549
	0x06e8 01768 (/usr/local/go/test/codegen/mapaccess.go:434)	PCDATA	$0, $-2
	0x06e8 01768 (/usr/local/go/test/codegen/mapaccess.go:434)	MOVQ	""..autotmp_42+128(SP), AX
	0x06f0 01776 (/usr/local/go/test/codegen/mapaccess.go:434)	CALL	runtime.gcWriteBarrier(SB)
	0x06f5 01781 (/usr/local/go/test/codegen/mapaccess.go:434)	JMP	1446
	0x06fa 01786 (/usr/local/go/test/codegen/mapaccess.go:434)	PCDATA	$0, $-1
	0x06fa 01786 (/usr/local/go/test/codegen/mapaccess.go:434)	MOVQ	CX, ""..autotmp_36+72(SP)
	0x06ff 01791 (/usr/local/go/test/codegen/mapaccess.go:434)	LEAQ	type.complex128(SB), SI
	0x0706 01798 (/usr/local/go/test/codegen/mapaccess.go:434)	MOVQ	SI, (SP)
	0x070a 01802 (/usr/local/go/test/codegen/mapaccess.go:434)	MOVQ	AX, 8(SP)
	0x070f 01807 (/usr/local/go/test/codegen/mapaccess.go:434)	MOVQ	CX, 16(SP)
	0x0714 01812 (/usr/local/go/test/codegen/mapaccess.go:434)	MOVQ	BX, 24(SP)
	0x0719 01817 (/usr/local/go/test/codegen/mapaccess.go:434)	MOVQ	DX, 32(SP)
	0x071e 01822 (/usr/local/go/test/codegen/mapaccess.go:434)	NOP
	0x0720 01824 (/usr/local/go/test/codegen/mapaccess.go:434)	CALL	runtime.growslice(SB)
	0x0725 01829 (/usr/local/go/test/codegen/mapaccess.go:434)	MOVQ	40(SP), AX
	0x072a 01834 (/usr/local/go/test/codegen/mapaccess.go:434)	MOVQ	48(SP), CX
	0x072f 01839 (/usr/local/go/test/codegen/mapaccess.go:434)	MOVQ	56(SP), BX
	0x0734 01844 (/usr/local/go/test/codegen/mapaccess.go:434)	LEAQ	1(CX), DX
	0x0738 01848 (/usr/local/go/test/codegen/mapaccess.go:434)	MOVQ	""..autotmp_36+72(SP), CX
	0x073d 01853 (/usr/local/go/test/codegen/mapaccess.go:434)	NOP
	0x0740 01856 (/usr/local/go/test/codegen/mapaccess.go:434)	JMP	1300
	0x0745 01861 (/usr/local/go/test/codegen/mapaccess.go:428)	PCDATA	$0, $-2
	0x0745 01861 (/usr/local/go/test/codegen/mapaccess.go:428)	MOVQ	""..autotmp_41+136(SP), AX
	0x074d 01869 (/usr/local/go/test/codegen/mapaccess.go:428)	CALL	runtime.gcWriteBarrier(SB)
	0x0752 01874 (/usr/local/go/test/codegen/mapaccess.go:428)	JMP	1205
	0x0757 01879 (/usr/local/go/test/codegen/mapaccess.go:428)	PCDATA	$0, $-1
	0x0757 01879 (/usr/local/go/test/codegen/mapaccess.go:428)	MOVQ	AX, ""..autotmp_44+112(SP)
	0x075c 01884 (/usr/local/go/test/codegen/mapaccess.go:428)	MOVQ	CX, ""..autotmp_37+64(SP)
	0x0761 01889 (/usr/local/go/test/codegen/mapaccess.go:428)	LEAQ	type.complex128(SB), AX
	0x0768 01896 (/usr/local/go/test/codegen/mapaccess.go:428)	MOVQ	AX, (SP)
	0x076c 01900 (/usr/local/go/test/codegen/mapaccess.go:428)	MOVQ	""..autotmp_39+152(SP), CX
	0x0774 01908 (/usr/local/go/test/codegen/mapaccess.go:428)	MOVQ	CX, 8(SP)
	0x0779 01913 (/usr/local/go/test/codegen/mapaccess.go:428)	MOVQ	$4, 16(SP)
	0x0782 01922 (/usr/local/go/test/codegen/mapaccess.go:428)	MOVQ	$4, 24(SP)
	0x078b 01931 (/usr/local/go/test/codegen/mapaccess.go:428)	MOVQ	DX, 32(SP)
	0x0790 01936 (/usr/local/go/test/codegen/mapaccess.go:428)	PCDATA	$1, $9
	0x0790 01936 (/usr/local/go/test/codegen/mapaccess.go:428)	CALL	runtime.growslice(SB)
	0x0795 01941 (/usr/local/go/test/codegen/mapaccess.go:428)	MOVQ	40(SP), BX
	0x079a 01946 (/usr/local/go/test/codegen/mapaccess.go:428)	MOVQ	56(SP), SI
	0x079f 01951 (/usr/local/go/test/codegen/mapaccess.go:428)	MOVQ	""..autotmp_44+112(SP), AX
	0x07a4 01956 (/usr/local/go/test/codegen/mapaccess.go:428)	MOVQ	""..autotmp_37+64(SP), CX
	0x07a9 01961 (/usr/local/go/test/codegen/mapaccess.go:428)	JMP	1079
	0x07ae 01966 (/usr/local/go/test/codegen/mapaccess.go:420)	PCDATA	$0, $-2
	0x07ae 01966 (/usr/local/go/test/codegen/mapaccess.go:420)	MOVQ	""..autotmp_40+144(SP), AX
	0x07b6 01974 (/usr/local/go/test/codegen/mapaccess.go:420)	CALL	runtime.gcWriteBarrier(SB)
	0x07bb 01979 (/usr/local/go/test/codegen/mapaccess.go:420)	NOP
	0x07c0 01984 (/usr/local/go/test/codegen/mapaccess.go:420)	JMP	966
	0x07c5 01989 (/usr/local/go/test/codegen/mapaccess.go:420)	PCDATA	$0, $-1
	0x07c5 01989 (/usr/local/go/test/codegen/mapaccess.go:420)	MOVQ	CX, ""..autotmp_37+64(SP)
	0x07ca 01994 (/usr/local/go/test/codegen/mapaccess.go:420)	LEAQ	type.complex128(SB), SI
	0x07d1 02001 (/usr/local/go/test/codegen/mapaccess.go:420)	MOVQ	SI, (SP)
	0x07d5 02005 (/usr/local/go/test/codegen/mapaccess.go:420)	MOVQ	AX, 8(SP)
	0x07da 02010 (/usr/local/go/test/codegen/mapaccess.go:420)	MOVQ	CX, 16(SP)
	0x07df 02015 (/usr/local/go/test/codegen/mapaccess.go:420)	MOVQ	BX, 24(SP)
	0x07e4 02020 (/usr/local/go/test/codegen/mapaccess.go:420)	MOVQ	DX, 32(SP)
	0x07e9 02025 (/usr/local/go/test/codegen/mapaccess.go:420)	PCDATA	$1, $4
	0x07e9 02025 (/usr/local/go/test/codegen/mapaccess.go:420)	CALL	runtime.growslice(SB)
	0x07ee 02030 (/usr/local/go/test/codegen/mapaccess.go:420)	MOVQ	40(SP), AX
	0x07f3 02035 (/usr/local/go/test/codegen/mapaccess.go:420)	MOVQ	56(SP), BX
	0x07f8 02040 (/usr/local/go/test/codegen/mapaccess.go:420)	MOVQ	""..autotmp_37+64(SP), CX
	0x07fd 02045 (/usr/local/go/test/codegen/mapaccess.go:420)	NOP
	0x0800 02048 (/usr/local/go/test/codegen/mapaccess.go:420)	JMP	829
	0x0805 02053 (/usr/local/go/test/codegen/mapaccess.go:412)	PCDATA	$0, $-2
	0x0805 02053 (/usr/local/go/test/codegen/mapaccess.go:412)	MOVQ	""..autotmp_38+160(SP), AX
	0x080d 02061 (/usr/local/go/test/codegen/mapaccess.go:412)	CALL	runtime.gcWriteBarrier(SB)
	0x0812 02066 (/usr/local/go/test/codegen/mapaccess.go:412)	JMP	637
	0x0817 02071 (/usr/local/go/test/codegen/mapaccess.go:412)	PCDATA	$0, $-1
	0x0817 02071 (/usr/local/go/test/codegen/mapaccess.go:412)	MOVQ	CX, ""..autotmp_36+72(SP)
	0x081c 02076 (/usr/local/go/test/codegen/mapaccess.go:412)	LEAQ	type.complex128(SB), SI
	0x0823 02083 (/usr/local/go/test/codegen/mapaccess.go:412)	MOVQ	SI, (SP)
	0x0827 02087 (/usr/local/go/test/codegen/mapaccess.go:412)	MOVQ	AX, 8(SP)
	0x082c 02092 (/usr/local/go/test/codegen/mapaccess.go:412)	MOVQ	CX, 16(SP)
	0x0831 02097 (/usr/local/go/test/codegen/mapaccess.go:412)	MOVQ	BX, 24(SP)
	0x0836 02102 (/usr/local/go/test/codegen/mapaccess.go:412)	MOVQ	DX, 32(SP)
	0x083b 02107 (/usr/local/go/test/codegen/mapaccess.go:412)	PCDATA	$1, $1
	0x083b 02107 (/usr/local/go/test/codegen/mapaccess.go:412)	NOP
	0x0840 02112 (/usr/local/go/test/codegen/mapaccess.go:412)	CALL	runtime.growslice(SB)
	0x0845 02117 (/usr/local/go/test/codegen/mapaccess.go:412)	MOVQ	40(SP), AX
	0x084a 02122 (/usr/local/go/test/codegen/mapaccess.go:412)	MOVQ	48(SP), CX
	0x084f 02127 (/usr/local/go/test/codegen/mapaccess.go:412)	MOVQ	56(SP), BX
	0x0854 02132 (/usr/local/go/test/codegen/mapaccess.go:412)	LEAQ	3(CX), DX
	0x0858 02136 (/usr/local/go/test/codegen/mapaccess.go:412)	MOVQ	""..autotmp_36+72(SP), CX
	0x085d 02141 (/usr/local/go/test/codegen/mapaccess.go:412)	NOP
	0x0860 02144 (/usr/local/go/test/codegen/mapaccess.go:412)	JMP	467
	0x0865 02149 (/usr/local/go/test/codegen/mapaccess.go:406)	PCDATA	$0, $-2
	0x0865 02149 (/usr/local/go/test/codegen/mapaccess.go:406)	MOVQ	""..autotmp_35+168(SP), AX
	0x086d 02157 (/usr/local/go/test/codegen/mapaccess.go:406)	CALL	runtime.gcWriteBarrier(SB)
	0x0872 02162 (/usr/local/go/test/codegen/mapaccess.go:406)	JMP	372
	0x0877 02167 (/usr/local/go/test/codegen/mapaccess.go:406)	PCDATA	$0, $-1
	0x0877 02167 (/usr/local/go/test/codegen/mapaccess.go:406)	MOVQ	CX, ""..autotmp_36+72(SP)
	0x087c 02172 (/usr/local/go/test/codegen/mapaccess.go:406)	LEAQ	type.complex128(SB), SI
	0x0883 02179 (/usr/local/go/test/codegen/mapaccess.go:406)	MOVQ	SI, (SP)
	0x0887 02183 (/usr/local/go/test/codegen/mapaccess.go:406)	MOVQ	AX, 8(SP)
	0x088c 02188 (/usr/local/go/test/codegen/mapaccess.go:406)	MOVQ	CX, 16(SP)
	0x0891 02193 (/usr/local/go/test/codegen/mapaccess.go:406)	MOVQ	BX, 24(SP)
	0x0896 02198 (/usr/local/go/test/codegen/mapaccess.go:406)	MOVQ	DX, 32(SP)
	0x089b 02203 (/usr/local/go/test/codegen/mapaccess.go:406)	NOP
	0x08a0 02208 (/usr/local/go/test/codegen/mapaccess.go:406)	CALL	runtime.growslice(SB)
	0x08a5 02213 (/usr/local/go/test/codegen/mapaccess.go:406)	MOVQ	40(SP), AX
	0x08aa 02218 (/usr/local/go/test/codegen/mapaccess.go:406)	MOVQ	48(SP), CX
	0x08af 02223 (/usr/local/go/test/codegen/mapaccess.go:406)	MOVQ	56(SP), BX
	0x08b4 02228 (/usr/local/go/test/codegen/mapaccess.go:406)	LEAQ	1(CX), DX
	0x08b8 02232 (/usr/local/go/test/codegen/mapaccess.go:406)	MOVQ	""..autotmp_36+72(SP), CX
	0x08bd 02237 (/usr/local/go/test/codegen/mapaccess.go:406)	NOP
	0x08c0 02240 (/usr/local/go/test/codegen/mapaccess.go:406)	JMP	241
	0x08c5 02245 (/usr/local/go/test/codegen/mapaccess.go:406)	NOP
	0x08c5 02245 (/usr/local/go/test/codegen/mapaccess.go:398)	PCDATA	$1, $-1
	0x08c5 02245 (/usr/local/go/test/codegen/mapaccess.go:398)	PCDATA	$0, $-2
	0x08c5 02245 (/usr/local/go/test/codegen/mapaccess.go:398)	CALL	runtime.morestack_noctxt(SB)
	0x08ca 02250 (/usr/local/go/test/codegen/mapaccess.go:398)	PCDATA	$0, $-1
	0x08ca 02250 (/usr/local/go/test/codegen/mapaccess.go:398)	JMP	0
	0x0000 64 48 8b 0c 25 00 00 00 00 48 8d 84 24 48 fe ff  dH..%....H..$H..
	0x0010 ff 48 3b 41 10 0f 86 aa 08 00 00 48 81 ec 38 02  .H;A.......H..8.
	0x0020 00 00 48 89 ac 24 30 02 00 00 48 8d ac 24 30 02  ..H..$0...H..$0.
	0x0030 00 00 0f 57 c0 0f 11 84 24 b0 00 00 00 0f 11 84  ...W....$.......
	0x0040 24 c0 00 00 00 0f 11 84 24 d0 00 00 00 48 8d bc  $.......$....H..
	0x0050 24 e0 00 00 00 48 8d 7f d0 0f 1f 80 00 00 00 00  $....H..........
	0x0060 48 89 6c 24 f0 48 8d 6c 24 f0 e8 00 00 00 00 48  H.l$.H.l$......H
	0x0070 8b 6d 00 48 8d 84 24 e0 00 00 00 48 89 84 24 c0  .m.H..$....H..$.
	0x0080 00 00 00 e8 00 00 00 00 8b 04 24 89 84 24 bc 00  ..........$..$..
	0x0090 00 00 0f 57 c9 f2 0f 11 4c 24 60 f2 0f 11 4c 24  ...W....L$`...L$
	0x00a0 68 f2 0f 11 4c 24 50 f2 0f 11 4c 24 58 48 8d 05  h...L$P...L$XH..
	0x00b0 00 00 00 00 48 89 04 24 48 8d 8c 24 b0 00 00 00  ....H..$H..$....
	0x00c0 48 89 4c 24 08 48 8d 54 24 50 48 89 54 24 10 e8  H.L$.H.T$PH.T$..
	0x00d0 00 00 00 00 48 8b 44 24 18 48 8b 48 08 48 8d 51  ....H.D$.H.H.H.Q
	0x00e0 01 48 8b 58 10 48 8b 00 48 39 da 0f 87 86 07 00  .H.X.H..H9......
	0x00f0 00 48 89 84 24 a8 00 00 00 48 89 54 24 48 48 89  .H..$....H.T$HH.
	0x0100 5c 24 40 48 c1 e1 04 f2 0f 10 05 00 00 00 00 f2  \$@H............
	0x0110 0f 11 04 08 0f 57 c9 f2 0f 11 4c 08 08 48 8d 0d  .....W....L..H..
	0x0120 00 00 00 00 48 89 0c 24 48 8d b4 24 b0 00 00 00  ....H..$H..$....
	0x0130 48 89 74 24 08 48 8d 7c 24 60 48 89 7c 24 10 90  H.t$.H.|$`H.|$..
	0x0140 e8 00 00 00 00 48 8b 7c 24 18 48 8b 44 24 48 48  .....H.|$.H.D$HH
	0x0150 89 47 08 48 8b 44 24 40 48 89 47 10 83 3d 00 00  .G.H.D$@H.G..=..
	0x0160 00 00 00 0f 85 fc 06 00 00 48 8b 84 24 a8 00 00  .........H..$...
	0x0170 00 48 89 07 0f 57 c0 f2 0f 11 44 24 60 f2 0f 11  .H...W....D$`...
	0x0180 44 24 68 f2 0f 11 44 24 50 f2 0f 11 44 24 58 48  D$h...D$P...D$XH
	0x0190 8d 05 00 00 00 00 48 89 04 24 48 8d 8c 24 b0 00  ......H..$H..$..
	0x01a0 00 00 48 89 4c 24 08 48 8d 54 24 50 48 89 54 24  ..H.L$.H.T$PH.T$
	0x01b0 10 e8 00 00 00 00 48 8b 44 24 18 48 8b 48 08 48  ......H.D$.H.H.H
	0x01c0 8d 51 03 48 8b 58 10 48 8b 00 48 39 da 0f 87 44  .Q.H.X.H..H9...D
	0x01d0 06 00 00 48 89 84 24 a0 00 00 00 48 89 54 24 48  ...H..$....H.T$H
	0x01e0 48 89 5c 24 40 48 c1 e1 04 f2 0f 10 05 00 00 00  H.\$@H..........
	0x01f0 00 f2 0f 11 04 08 0f 57 c9 f2 0f 11 4c 08 08 f2  .......W....L...
	0x0200 0f 10 15 00 00 00 00 f2 0f 11 54 08 10 f2 0f 11  ..........T.....
	0x0210 4c 08 18 f2 0f 10 15 00 00 00 00 f2 0f 11 54 08  L.............T.
	0x0220 20 f2 0f 11 4c 08 28 48 8d 0d 00 00 00 00 48 89   ...L.(H......H.
	0x0230 0c 24 48 8d b4 24 b0 00 00 00 48 89 74 24 08 48  .$H..$....H.t$.H
	0x0240 8d 7c 24 60 48 89 7c 24 10 e8 00 00 00 00 48 8b  .|$`H.|$......H.
	0x0250 7c 24 18 48 8b 44 24 48 48 89 47 08 48 8b 44 24  |$.H.D$HH.G.H.D$
	0x0260 40 48 89 47 10 83 3d 00 00 00 00 00 0f 85 93 05  @H.G..=.........
	0x0270 00 00 48 8b 84 24 a0 00 00 00 48 89 07 48 8d 05  ..H..$....H..H..
	0x0280 00 00 00 00 48 89 04 24 e8 00 00 00 00 48 8b 44  ....H..$.....H.D
	0x0290 24 08 48 89 84 24 98 00 00 00 f2 0f 10 05 00 00  $.H..$..........
	0x02a0 00 00 f2 0f 11 00 0f 57 c0 f2 0f 11 40 08 f2 0f  .......W....@...
	0x02b0 10 0d 00 00 00 00 f2 0f 11 48 10 f2 0f 11 40 18  .........H....@.
	0x02c0 f2 0f 10 0d 00 00 00 00 f2 0f 11 48 20 f2 0f 11  ...........H ...
	0x02d0 40 28 f2 0f 11 40 30 f2 0f 11 40 38 f2 0f 11 44  @(...@0...@8...D
	0x02e0 24 60 f2 0f 11 44 24 68 f2 0f 11 44 24 50 f2 0f  $`...D$h...D$P..
	0x02f0 11 44 24 58 48 8d 0d 00 00 00 00 48 89 0c 24 48  .D$XH......H..$H
	0x0300 8d 94 24 b0 00 00 00 48 89 54 24 08 48 8d 5c 24  ..$....H.T$.H.\$
	0x0310 50 48 89 5c 24 10 e8 00 00 00 00 48 8b 44 24 18  PH.\$......H.D$.
	0x0320 48 8b 48 08 48 8d 51 04 48 89 54 24 48 48 8b 58  H.H.H.Q.H.T$HH.X
	0x0330 10 48 8b 00 48 39 da 0f 87 88 04 00 00 48 89 84  .H..H9.......H..
	0x0340 24 90 00 00 00 48 89 5c 24 40 48 c1 e1 04 48 01  $....H.\$@H...H.
	0x0350 c1 48 89 0c 24 48 8b 8c 24 98 00 00 00 48 89 4c  .H..$H..$....H.L
	0x0360 24 08 48 c7 44 24 10 40 00 00 00 e8 00 00 00 00  $.H.D$.@........
	0x0370 48 8d 05 00 00 00 00 48 89 04 24 48 8d 8c 24 b0  H......H..$H..$.
	0x0380 00 00 00 48 89 4c 24 08 48 8d 54 24 60 48 89 54  ...H.L$.H.T$`H.T
	0x0390 24 10 e8 00 00 00 00 48 8b 7c 24 18 48 8b 44 24  $......H.|$.H.D$
	0x03a0 48 48 89 47 08 48 8b 44 24 40 48 89 47 10 83 3d  HH.G.H.D$@H.G..=
	0x03b0 00 00 00 00 00 0f 85 f3 03 00 00 48 8b 84 24 90  ...........H..$.
	0x03c0 00 00 00 48 89 07 0f 57 c0 f2 0f 11 44 24 60 f2  ...H...W....D$`.
	0x03d0 0f 11 44 24 68 f2 0f 11 44 24 50 f2 0f 11 44 24  ..D$h...D$P...D$
	0x03e0 58 48 8d 05 00 00 00 00 48 89 04 24 48 8d 8c 24  XH......H..$H..$
	0x03f0 b0 00 00 00 48 89 4c 24 08 48 8d 54 24 50 48 89  ....H.L$.H.T$PH.
	0x0400 54 24 10 e8 00 00 00 00 48 8b 44 24 18 48 8b 48  T$......H.D$.H.H
	0x0410 08 48 8d 51 04 48 89 54 24 48 48 8b 00 0f 1f 00  .H.Q.H.T$HH.....
	0x0420 48 83 fa 04 0f 87 2d 03 00 00 48 8b 9c 24 98 00  H.....-...H..$..
	0x0430 00 00 be 04 00 00 00 48 89 74 24 40 48 89 9c 24  .......H.t$@H..$
	0x0440 88 00 00 00 48 8d 53 40 48 89 14 24 48 89 44 24  ....H.S@H..$H.D$
	0x0450 08 48 c1 e1 04 48 89 4c 24 10 e8 00 00 00 00 48  .H...H.L$......H
	0x0460 8d 05 00 00 00 00 48 89 04 24 48 8d 8c 24 b0 00  ......H..$H..$..
	0x0470 00 00 48 89 4c 24 08 48 8d 54 24 60 48 89 54 24  ..H.L$.H.T$`H.T$
	0x0480 10 e8 00 00 00 00 48 8b 7c 24 18 48 8b 44 24 48  ......H.|$.H.D$H
	0x0490 48 89 47 08 48 8b 44 24 40 48 89 47 10 83 3d 00  H.G.H.D$@H.G..=.
	0x04a0 00 00 00 00 0f 85 9b 02 00 00 48 8b 84 24 88 00  ..........H..$..
	0x04b0 00 00 48 89 07 0f 57 c0 f2 0f 11 44 24 60 f2 0f  ..H...W....D$`..
	0x04c0 11 44 24 68 f2 0f 11 44 24 50 f2 0f 11 44 24 58  .D$h...D$P...D$X
	0x04d0 48 8d 05 00 00 00 00 48 89 04 24 48 8d 8c 24 b0  H......H..$H..$.
	0x04e0 00 00 00 48 89 4c 24 08 48 8d 54 24 50 48 89 54  ...H.L$.H.T$PH.T
	0x04f0 24 10 e8 00 00 00 00 48 8b 44 24 18 48 8b 48 08  $......H.D$.H.H.
	0x0500 48 8d 51 01 48 8b 58 10 48 8b 00 48 39 d3 0f 82  H.Q.H.X.H..H9...
	0x0510 e6 01 00 00 48 89 84 24 80 00 00 00 48 89 54 24  ....H..$....H.T$
	0x0520 48 48 89 5c 24 40 48 c1 e1 04 f2 0f 10 05 00 00  HH.\$@H.........
	0x0530 00 00 f2 0f 11 04 08 0f 57 c0 f2 0f 11 44 08 08  ........W....D..
	0x0540 0f b6 0d 00 00 00 00 83 f1 01 88 0d 00 00 00 00  ................
	0x0550 48 8d 0d 00 00 00 00 48 89 0c 24 48 8d b4 24 b0  H......H..$H..$.
	0x0560 00 00 00 48 89 74 24 08 48 8d 7c 24 60 48 89 7c  ...H.t$.H.|$`H.|
	0x0570 24 10 e8 00 00 00 00 48 8b 7c 24 18 48 8b 44 24  $......H.|$.H.D$
	0x0580 48 48 89 47 08 48 8b 44 24 40 48 89 47 10 83 3d  HH.G.H.D$@H.G..=
	0x0590 00 00 00 00 00 0f 85 4d 01 00 00 48 8b 84 24 80  .......M...H..$.
	0x05a0 00 00 00 48 89 07 0f 57 c0 f2 0f 11 44 24 60 f2  ...H...W....D$`.
	0x05b0 0f 11 44 24 68 f2 0f 10 0d 00 00 00 00 f2 0f 11  ..D$h...........
	0x05c0 4c 24 50 f2 0f 11 44 24 58 48 8d 05 00 00 00 00  L$P...D$XH......
	0x05d0 48 89 04 24 48 8d 8c 24 b0 00 00 00 48 89 4c 24  H..$H..$....H.L$
	0x05e0 08 48 8d 54 24 50 48 89 54 24 10 e8 00 00 00 00  .H.T$PH.T$......
	0x05f0 48 8b 44 24 18 48 8b 48 08 48 8d 51 01 48 8b 58  H.D$.H.H.H.Q.H.X
	0x0600 10 48 8b 00 48 39 da 0f 87 95 00 00 00 48 89 44  .H..H9.......H.D
	0x0610 24 78 48 89 54 24 48 48 89 5c 24 40 48 c1 e1 04  $xH.T$HH.\$@H...
	0x0620 f2 0f 10 05 00 00 00 00 f2 0f 11 04 08 0f 57 c0  ..............W.
	0x0630 f2 0f 11 44 08 08 48 8d 0d 00 00 00 00 48 89 0c  ...D..H......H..
	0x0640 24 48 8d 8c 24 b0 00 00 00 48 89 4c 24 08 48 8d  $H..$....H.L$.H.
	0x0650 4c 24 60 48 89 4c 24 10 e8 00 00 00 00 48 8b 7c  L$`H.L$......H.|
	0x0660 24 18 48 8b 44 24 48 48 89 47 08 48 8b 44 24 40  $.H.D$HH.G.H.D$@
	0x0670 48 89 47 10 83 3d 00 00 00 00 00 75 18 48 8b 44  H.G..=.....u.H.D
	0x0680 24 78 48 89 07 48 8b ac 24 30 02 00 00 48 81 c4  $xH..H..$0...H..
	0x0690 38 02 00 00 c3 48 8b 44 24 78 e8 00 00 00 00 90  8....H.D$x......
	0x06a0 eb e3 48 89 4c 24 48 48 8d 35 00 00 00 00 48 89  ..H.L$HH.5....H.
	0x06b0 34 24 48 89 44 24 08 48 89 4c 24 10 48 89 5c 24  4$H.D$.H.L$.H.\$
	0x06c0 18 48 89 54 24 20 e8 00 00 00 00 48 8b 44 24 28  .H.T$ .....H.D$(
	0x06d0 48 8b 4c 24 30 48 8b 5c 24 38 48 8d 51 01 48 8b  H.L$0H.\$8H.Q.H.
	0x06e0 4c 24 48 e9 25 ff ff ff 48 8b 84 24 80 00 00 00  L$H.%...H..$....
	0x06f0 e8 00 00 00 00 e9 ac fe ff ff 48 89 4c 24 48 48  ..........H.L$HH
	0x0700 8d 35 00 00 00 00 48 89 34 24 48 89 44 24 08 48  .5....H.4$H.D$.H
	0x0710 89 4c 24 10 48 89 5c 24 18 48 89 54 24 20 66 90  .L$.H.\$.H.T$ f.
	0x0720 e8 00 00 00 00 48 8b 44 24 28 48 8b 4c 24 30 48  .....H.D$(H.L$0H
	0x0730 8b 5c 24 38 48 8d 51 01 48 8b 4c 24 48 0f 1f 00  .\$8H.Q.H.L$H...
	0x0740 e9 cf fd ff ff 48 8b 84 24 88 00 00 00 e8 00 00  .....H..$.......
	0x0750 00 00 e9 5e fd ff ff 48 89 44 24 70 48 89 4c 24  ...^...H.D$pH.L$
	0x0760 40 48 8d 05 00 00 00 00 48 89 04 24 48 8b 8c 24  @H......H..$H..$
	0x0770 98 00 00 00 48 89 4c 24 08 48 c7 44 24 10 04 00  ....H.L$.H.D$...
	0x0780 00 00 48 c7 44 24 18 04 00 00 00 48 89 54 24 20  ..H.D$.....H.T$ 
	0x0790 e8 00 00 00 00 48 8b 5c 24 28 48 8b 74 24 38 48  .....H.\$(H.t$8H
	0x07a0 8b 44 24 70 48 8b 4c 24 40 e9 89 fc ff ff 48 8b  .D$pH.L$@.....H.
	0x07b0 84 24 90 00 00 00 e8 00 00 00 00 0f 1f 44 00 00  .$...........D..
	0x07c0 e9 01 fc ff ff 48 89 4c 24 40 48 8d 35 00 00 00  .....H.L$@H.5...
	0x07d0 00 48 89 34 24 48 89 44 24 08 48 89 4c 24 10 48  .H.4$H.D$.H.L$.H
	0x07e0 89 5c 24 18 48 89 54 24 20 e8 00 00 00 00 48 8b  .\$.H.T$ .....H.
	0x07f0 44 24 28 48 8b 5c 24 38 48 8b 4c 24 40 0f 1f 00  D$(H.\$8H.L$@...
	0x0800 e9 38 fb ff ff 48 8b 84 24 a0 00 00 00 e8 00 00  .8...H..$.......
	0x0810 00 00 e9 66 fa ff ff 48 89 4c 24 48 48 8d 35 00  ...f...H.L$HH.5.
	0x0820 00 00 00 48 89 34 24 48 89 44 24 08 48 89 4c 24  ...H.4$H.D$.H.L$
	0x0830 10 48 89 5c 24 18 48 89 54 24 20 0f 1f 44 00 00  .H.\$.H.T$ ..D..
	0x0840 e8 00 00 00 00 48 8b 44 24 28 48 8b 4c 24 30 48  .....H.D$(H.L$0H
	0x0850 8b 5c 24 38 48 8d 51 03 48 8b 4c 24 48 0f 1f 00  .\$8H.Q.H.L$H...
	0x0860 e9 6e f9 ff ff 48 8b 84 24 a8 00 00 00 e8 00 00  .n...H..$.......
	0x0870 00 00 e9 fd f8 ff ff 48 89 4c 24 48 48 8d 35 00  .......H.L$HH.5.
	0x0880 00 00 00 48 89 34 24 48 89 44 24 08 48 89 4c 24  ...H.4$H.D$.H.L$
	0x0890 10 48 89 5c 24 18 48 89 54 24 20 0f 1f 44 00 00  .H.\$.H.T$ ..D..
	0x08a0 e8 00 00 00 00 48 8b 44 24 28 48 8b 4c 24 30 48  .....H.D$(H.L$0H
	0x08b0 8b 5c 24 38 48 8d 51 01 48 8b 4c 24 48 0f 1f 00  .\$8H.Q.H.L$H...
	0x08c0 e9 2c f8 ff ff e8 00 00 00 00 e9 31 f7 ff ff     .,.........1...
	rel 5+4 t=17 TLS+0
	rel 107+4 t=8 runtime.duffzero+201
	rel 132+4 t=8 runtime.fastrand+0
	rel 176+4 t=16 type.map[complex128][]complex128+0
	rel 208+4 t=8 runtime.mapaccess1+0
	rel 267+4 t=16 $f64.3ff0000000000000+0
	rel 288+4 t=16 type.map[complex128][]complex128+0
	rel 321+4 t=8 runtime.mapassign+0
	rel 350+4 t=16 runtime.writeBarrier+-1
	rel 402+4 t=16 type.map[complex128][]complex128+0
	rel 434+4 t=8 runtime.mapaccess1+0
	rel 493+4 t=16 $f64.3ff0000000000000+0
	rel 515+4 t=16 $f64.4000000000000000+0
	rel 535+4 t=16 $f64.4008000000000000+0
	rel 554+4 t=16 type.map[complex128][]complex128+0
	rel 586+4 t=8 runtime.mapassign+0
	rel 615+4 t=16 runtime.writeBarrier+-1
	rel 640+4 t=16 type.[4]complex128+0
	rel 649+4 t=8 runtime.newobject+0
	rel 670+4 t=16 $f64.401c000000000000+0
	rel 690+4 t=16 $f64.4020000000000000+0
	rel 708+4 t=16 $f64.4022000000000000+0
	rel 759+4 t=16 type.map[complex128][]complex128+0
	rel 791+4 t=8 runtime.mapaccess1+0
	rel 876+4 t=8 runtime.memmove+0
	rel 883+4 t=16 type.map[complex128][]complex128+0
	rel 915+4 t=8 runtime.mapassign+0
	rel 944+4 t=16 runtime.writeBarrier+-1
	rel 996+4 t=16 type.map[complex128][]complex128+0
	rel 1028+4 t=8 runtime.mapaccess1+0
	rel 1115+4 t=8 runtime.memmove+0
	rel 1122+4 t=16 type.map[complex128][]complex128+0
	rel 1154+4 t=8 runtime.mapassign+0
	rel 1183+4 t=16 runtime.writeBarrier+-1
	rel 1235+4 t=16 type.map[complex128][]complex128+0
	rel 1267+4 t=8 runtime.mapaccess1+0
	rel 1326+4 t=16 $f64.4058c00000000000+0
	rel 1347+4 t=16 "".sinkAppend+0
	rel 1356+4 t=16 "".sinkAppend+0
	rel 1363+4 t=16 type.map[complex128][]complex128+0
	rel 1395+4 t=8 runtime.mapassign+0
	rel 1424+4 t=16 runtime.writeBarrier+-1
	rel 1465+4 t=16 $f64.3ff0000000000000+0
	rel 1484+4 t=16 type.map[complex128][]complex128+0
	rel 1516+4 t=8 runtime.mapaccess1+0
	rel 1572+4 t=16 $f64.4059000000000000+0
	rel 1593+4 t=16 type.map[complex128][]complex128+0
	rel 1625+4 t=8 runtime.mapassign+0
	rel 1654+4 t=16 runtime.writeBarrier+-1
	rel 1691+4 t=8 runtime.gcWriteBarrier+0
	rel 1706+4 t=16 type.complex128+0
	rel 1735+4 t=8 runtime.growslice+0
	rel 1777+4 t=8 runtime.gcWriteBarrier+0
	rel 1794+4 t=16 type.complex128+0
	rel 1825+4 t=8 runtime.growslice+0
	rel 1870+4 t=8 runtime.gcWriteBarrier+0
	rel 1892+4 t=16 type.complex128+0
	rel 1937+4 t=8 runtime.growslice+0
	rel 1975+4 t=8 runtime.gcWriteBarrier+0
	rel 1997+4 t=16 type.complex128+0
	rel 2026+4 t=8 runtime.growslice+0
	rel 2062+4 t=8 runtime.gcWriteBarrier+0
	rel 2079+4 t=16 type.complex128+0
	rel 2113+4 t=8 runtime.growslice+0
	rel 2158+4 t=8 runtime.gcWriteBarrier+0
	rel 2175+4 t=16 type.complex128+0
	rel 2209+4 t=8 runtime.growslice+0
	rel 2246+4 t=8 runtime.morestack_noctxt+0
"".mapAppendAssignmentString STEXT size=2352 args=0x0 locals=0x210
	0x0000 00000 (/usr/local/go/test/codegen/mapaccess.go:443)	TEXT	"".mapAppendAssignmentString(SB), ABIInternal, $528-0
	0x0000 00000 (/usr/local/go/test/codegen/mapaccess.go:443)	MOVQ	(TLS), CX
	0x0009 00009 (/usr/local/go/test/codegen/mapaccess.go:443)	LEAQ	-400(SP), AX
	0x0011 00017 (/usr/local/go/test/codegen/mapaccess.go:443)	CMPQ	AX, 16(CX)
	0x0015 00021 (/usr/local/go/test/codegen/mapaccess.go:443)	PCDATA	$0, $-2
	0x0015 00021 (/usr/local/go/test/codegen/mapaccess.go:443)	JLS	2342
	0x001b 00027 (/usr/local/go/test/codegen/mapaccess.go:443)	PCDATA	$0, $-1
	0x001b 00027 (/usr/local/go/test/codegen/mapaccess.go:443)	SUBQ	$528, SP
	0x0022 00034 (/usr/local/go/test/codegen/mapaccess.go:443)	MOVQ	BP, 520(SP)
	0x002a 00042 (/usr/local/go/test/codegen/mapaccess.go:443)	LEAQ	520(SP), BP
	0x0032 00050 (/usr/local/go/test/codegen/mapaccess.go:443)	FUNCDATA	$0, gclocals·0ce64bbc7cfa5ef04d41c861de81a3d7(SB)
	0x0032 00050 (/usr/local/go/test/codegen/mapaccess.go:443)	FUNCDATA	$1, gclocals·92bb597c1e9368f54b35bd5a04b27c1f(SB)
	0x0032 00050 (/usr/local/go/test/codegen/mapaccess.go:443)	FUNCDATA	$3, "".mapAppendAssignmentString.stkobj(SB)
	0x0032 00050 (/usr/local/go/test/codegen/mapaccess.go:444)	XORPS	X0, X0
	0x0035 00053 (/usr/local/go/test/codegen/mapaccess.go:444)	MOVUPS	X0, ""..autotmp_7+136(SP)
	0x003d 00061 (/usr/local/go/test/codegen/mapaccess.go:444)	MOVUPS	X0, ""..autotmp_7+152(SP)
	0x0045 00069 (/usr/local/go/test/codegen/mapaccess.go:444)	MOVUPS	X0, ""..autotmp_7+168(SP)
	0x004d 00077 (/usr/local/go/test/codegen/mapaccess.go:444)	LEAQ	""..autotmp_8+184(SP), DI
	0x0055 00085 (/usr/local/go/test/codegen/mapaccess.go:444)	LEAQ	-48(DI), DI
	0x0059 00089 (/usr/local/go/test/codegen/mapaccess.go:444)	NOP
	0x0060 00096 (/usr/local/go/test/codegen/mapaccess.go:444)	DUFFZERO	$201
	0x0073 00115 (/usr/local/go/test/codegen/mapaccess.go:444)	LEAQ	""..autotmp_8+184(SP), AX
	0x007b 00123 (/usr/local/go/test/codegen/mapaccess.go:444)	MOVQ	AX, ""..autotmp_7+152(SP)
	0x0083 00131 (/usr/local/go/test/codegen/mapaccess.go:444)	PCDATA	$1, $1
	0x0083 00131 (/usr/local/go/test/codegen/mapaccess.go:444)	CALL	runtime.fastrand(SB)
	0x0088 00136 (/usr/local/go/test/codegen/mapaccess.go:444)	MOVL	(SP), AX
	0x008b 00139 (/usr/local/go/test/codegen/mapaccess.go:444)	MOVL	AX, ""..autotmp_7+148(SP)
	0x0092 00146 (/usr/local/go/test/codegen/mapaccess.go:451)	LEAQ	type.map[string][]string(SB), AX
	0x0099 00153 (/usr/local/go/test/codegen/mapaccess.go:451)	MOVQ	AX, (SP)
	0x009d 00157 (/usr/local/go/test/codegen/mapaccess.go:451)	LEAQ	""..autotmp_7+136(SP), CX
	0x00a5 00165 (/usr/local/go/test/codegen/mapaccess.go:451)	MOVQ	CX, 8(SP)
	0x00aa 00170 (/usr/local/go/test/codegen/mapaccess.go:451)	LEAQ	go.string."key"(SB), DX
	0x00b1 00177 (/usr/local/go/test/codegen/mapaccess.go:451)	MOVQ	DX, 16(SP)
	0x00b6 00182 (/usr/local/go/test/codegen/mapaccess.go:451)	MOVQ	$3, 24(SP)
	0x00bf 00191 (/usr/local/go/test/codegen/mapaccess.go:451)	NOP
	0x00c0 00192 (/usr/local/go/test/codegen/mapaccess.go:451)	CALL	runtime.mapassign_faststr(SB)
	0x00c5 00197 (/usr/local/go/test/codegen/mapaccess.go:451)	MOVQ	32(SP), AX
	0x00ca 00202 (/usr/local/go/test/codegen/mapaccess.go:451)	MOVQ	8(AX), CX
	0x00ce 00206 (/usr/local/go/test/codegen/mapaccess.go:451)	MOVQ	(AX), DX
	0x00d1 00209 (/usr/local/go/test/codegen/mapaccess.go:451)	MOVQ	16(AX), BX
	0x00d5 00213 (/usr/local/go/test/codegen/mapaccess.go:451)	LEAQ	1(CX), SI
	0x00d9 00217 (/usr/local/go/test/codegen/mapaccess.go:451)	NOP
	0x00e0 00224 (/usr/local/go/test/codegen/mapaccess.go:451)	CMPQ	SI, BX
	0x00e3 00227 (/usr/local/go/test/codegen/mapaccess.go:451)	JHI	2222
	0x00e9 00233 (/usr/local/go/test/codegen/mapaccess.go:451)	LEAQ	1(CX), BX
	0x00ed 00237 (/usr/local/go/test/codegen/mapaccess.go:451)	MOVQ	BX, 8(AX)
	0x00f1 00241 (/usr/local/go/test/codegen/mapaccess.go:451)	SHLQ	$4, CX
	0x00f5 00245 (/usr/local/go/test/codegen/mapaccess.go:451)	MOVQ	$1, 8(DX)(CX*1)
	0x00fe 00254 (/usr/local/go/test/codegen/mapaccess.go:451)	LEAQ	(DX)(CX*1), DI
	0x0102 00258 (/usr/local/go/test/codegen/mapaccess.go:451)	PCDATA	$0, $-2
	0x0102 00258 (/usr/local/go/test/codegen/mapaccess.go:451)	CMPL	runtime.writeBarrier(SB), $0
	0x0109 00265 (/usr/local/go/test/codegen/mapaccess.go:451)	JNE	2205
	0x010f 00271 (/usr/local/go/test/codegen/mapaccess.go:451)	LEAQ	go.string."1"(SB), AX
	0x0116 00278 (/usr/local/go/test/codegen/mapaccess.go:451)	MOVQ	AX, (DX)(CX*1)
	0x011a 00282 (/usr/local/go/test/codegen/mapaccess.go:457)	PCDATA	$0, $-1
	0x011a 00282 (/usr/local/go/test/codegen/mapaccess.go:457)	LEAQ	type.map[string][]string(SB), AX
	0x0121 00289 (/usr/local/go/test/codegen/mapaccess.go:457)	MOVQ	AX, (SP)
	0x0125 00293 (/usr/local/go/test/codegen/mapaccess.go:457)	LEAQ	""..autotmp_7+136(SP), CX
	0x012d 00301 (/usr/local/go/test/codegen/mapaccess.go:457)	MOVQ	CX, 8(SP)
	0x0132 00306 (/usr/local/go/test/codegen/mapaccess.go:457)	LEAQ	go.string."key"(SB), DX
	0x0139 00313 (/usr/local/go/test/codegen/mapaccess.go:457)	MOVQ	DX, 16(SP)
	0x013e 00318 (/usr/local/go/test/codegen/mapaccess.go:457)	MOVQ	$3, 24(SP)
	0x0147 00327 (/usr/local/go/test/codegen/mapaccess.go:457)	CALL	runtime.mapassign_faststr(SB)
	0x014c 00332 (/usr/local/go/test/codegen/mapaccess.go:457)	MOVQ	32(SP), AX
	0x0151 00337 (/usr/local/go/test/codegen/mapaccess.go:457)	MOVQ	8(AX), CX
	0x0155 00341 (/usr/local/go/test/codegen/mapaccess.go:457)	MOVQ	(AX), DX
	0x0158 00344 (/usr/local/go/test/codegen/mapaccess.go:457)	MOVQ	16(AX), BX
	0x015c 00348 (/usr/local/go/test/codegen/mapaccess.go:457)	LEAQ	3(CX), SI
	0x0160 00352 (/usr/local/go/test/codegen/mapaccess.go:457)	CMPQ	SI, BX
	0x0163 00355 (/usr/local/go/test/codegen/mapaccess.go:457)	JHI	2110
	0x0169 00361 (/usr/local/go/test/codegen/mapaccess.go:457)	LEAQ	3(CX), BX
	0x016d 00365 (/usr/local/go/test/codegen/mapaccess.go:457)	MOVQ	BX, 8(AX)
	0x0171 00369 (/usr/local/go/test/codegen/mapaccess.go:457)	SHLQ	$4, CX
	0x0175 00373 (/usr/local/go/test/codegen/mapaccess.go:457)	MOVQ	$1, 8(DX)(CX*1)
	0x017e 00382 (/usr/local/go/test/codegen/mapaccess.go:457)	LEAQ	(DX)(CX*1), DI
	0x0182 00386 (/usr/local/go/test/codegen/mapaccess.go:457)	LEAQ	(DX)(CX*1), AX
	0x0186 00390 (/usr/local/go/test/codegen/mapaccess.go:457)	LEAQ	16(AX), AX
	0x018a 00394 (/usr/local/go/test/codegen/mapaccess.go:457)	LEAQ	(DX)(CX*1), BX
	0x018e 00398 (/usr/local/go/test/codegen/mapaccess.go:457)	LEAQ	32(BX), BX
	0x0192 00402 (/usr/local/go/test/codegen/mapaccess.go:457)	PCDATA	$0, $-2
	0x0192 00402 (/usr/local/go/test/codegen/mapaccess.go:457)	CMPL	runtime.writeBarrier(SB), $0
	0x0199 00409 (/usr/local/go/test/codegen/mapaccess.go:457)	JNE	2093
	0x019f 00415 (/usr/local/go/test/codegen/mapaccess.go:457)	LEAQ	go.string."1"(SB), SI
	0x01a6 00422 (/usr/local/go/test/codegen/mapaccess.go:457)	MOVQ	SI, (DX)(CX*1)
	0x01aa 00426 (/usr/local/go/test/codegen/mapaccess.go:457)	PCDATA	$0, $-1
	0x01aa 00426 (/usr/local/go/test/codegen/mapaccess.go:457)	MOVQ	$1, 24(DX)(CX*1)
	0x01b3 00435 (/usr/local/go/test/codegen/mapaccess.go:457)	PCDATA	$0, $-2
	0x01b3 00435 (/usr/local/go/test/codegen/mapaccess.go:457)	CMPL	runtime.writeBarrier(SB), $0
	0x01ba 00442 (/usr/local/go/test/codegen/mapaccess.go:457)	NOP
	0x01c0 00448 (/usr/local/go/test/codegen/mapaccess.go:457)	JNE	2073
	0x01c6 00454 (/usr/local/go/test/codegen/mapaccess.go:457)	LEAQ	go.string."2"(SB), AX
	0x01cd 00461 (/usr/local/go/test/codegen/mapaccess.go:457)	MOVQ	AX, 16(DX)(CX*1)
	0x01d2 00466 (/usr/local/go/test/codegen/mapaccess.go:457)	PCDATA	$0, $-1
	0x01d2 00466 (/usr/local/go/test/codegen/mapaccess.go:457)	MOVQ	$1, 40(DX)(CX*1)
	0x01db 00475 (/usr/local/go/test/codegen/mapaccess.go:457)	PCDATA	$0, $-2
	0x01db 00475 (/usr/local/go/test/codegen/mapaccess.go:457)	CMPL	runtime.writeBarrier(SB), $0
	0x01e2 00482 (/usr/local/go/test/codegen/mapaccess.go:457)	JNE	2053
	0x01e8 00488 (/usr/local/go/test/codegen/mapaccess.go:457)	LEAQ	go.string."3"(SB), AX
	0x01ef 00495 (/usr/local/go/test/codegen/mapaccess.go:457)	MOVQ	AX, 32(DX)(CX*1)
	0x01f4 00500 (/usr/local/go/test/codegen/mapaccess.go:459)	PCDATA	$0, $-1
	0x01f4 00500 (/usr/local/go/test/codegen/mapaccess.go:459)	LEAQ	type.[4]string(SB), AX
	0x01fb 00507 (/usr/local/go/test/codegen/mapaccess.go:459)	MOVQ	AX, (SP)
	0x01ff 00511 (/usr/local/go/test/codegen/mapaccess.go:459)	NOP
	0x0200 00512 (/usr/local/go/test/codegen/mapaccess.go:459)	CALL	runtime.newobject(SB)
	0x0205 00517 (/usr/local/go/test/codegen/mapaccess.go:459)	MOVQ	8(SP), AX
	0x020a 00522 (/usr/local/go/test/codegen/mapaccess.go:459)	MOVQ	AX, ""..autotmp_34+128(SP)
	0x0212 00530 (/usr/local/go/test/codegen/mapaccess.go:459)	MOVQ	$1, 8(AX)
	0x021a 00538 (/usr/local/go/test/codegen/mapaccess.go:459)	LEAQ	go.string."7"(SB), CX
	0x0221 00545 (/usr/local/go/test/codegen/mapaccess.go:459)	MOVQ	CX, (AX)
	0x0224 00548 (/usr/local/go/test/codegen/mapaccess.go:459)	MOVQ	$1, 24(AX)
	0x022c 00556 (/usr/local/go/test/codegen/mapaccess.go:459)	LEAQ	go.string."8"(SB), CX
	0x0233 00563 (/usr/local/go/test/codegen/mapaccess.go:459)	MOVQ	CX, 16(AX)
	0x0237 00567 (/usr/local/go/test/codegen/mapaccess.go:459)	MOVQ	$1, 40(AX)
	0x023f 00575 (/usr/local/go/test/codegen/mapaccess.go:459)	LEAQ	go.string."9"(SB), CX
	0x0246 00582 (/usr/local/go/test/codegen/mapaccess.go:459)	MOVQ	CX, 32(AX)
	0x024a 00586 (/usr/local/go/test/codegen/mapaccess.go:459)	MOVQ	$1, 56(AX)
	0x0252 00594 (/usr/local/go/test/codegen/mapaccess.go:459)	LEAQ	go.string."0"(SB), CX
	0x0259 00601 (/usr/local/go/test/codegen/mapaccess.go:459)	MOVQ	CX, 48(AX)
	0x025d 00605 (/usr/local/go/test/codegen/mapaccess.go:465)	LEAQ	type.map[string][]string(SB), CX
	0x0264 00612 (/usr/local/go/test/codegen/mapaccess.go:465)	MOVQ	CX, (SP)
	0x0268 00616 (/usr/local/go/test/codegen/mapaccess.go:465)	LEAQ	""..autotmp_7+136(SP), DX
	0x0270 00624 (/usr/local/go/test/codegen/mapaccess.go:465)	MOVQ	DX, 8(SP)
	0x0275 00629 (/usr/local/go/test/codegen/mapaccess.go:465)	LEAQ	go.string."key"(SB), BX
	0x027c 00636 (/usr/local/go/test/codegen/mapaccess.go:465)	MOVQ	BX, 16(SP)
	0x0281 00641 (/usr/local/go/test/codegen/mapaccess.go:465)	MOVQ	$3, 24(SP)
	0x028a 00650 (/usr/local/go/test/codegen/mapaccess.go:465)	PCDATA	$1, $2
	0x028a 00650 (/usr/local/go/test/codegen/mapaccess.go:465)	CALL	runtime.mapassign_faststr(SB)
	0x028f 00655 (/usr/local/go/test/codegen/mapaccess.go:465)	MOVQ	32(SP), AX
	0x0294 00660 (/usr/local/go/test/codegen/mapaccess.go:465)	MOVQ	AX, ""..autotmp_35+120(SP)
	0x0299 00665 (/usr/local/go/test/codegen/mapaccess.go:465)	MOVQ	8(AX), CX
	0x029d 00669 (/usr/local/go/test/codegen/mapaccess.go:465)	MOVQ	16(AX), DX
	0x02a1 00673 (/usr/local/go/test/codegen/mapaccess.go:465)	MOVQ	(AX), BX
	0x02a4 00676 (/usr/local/go/test/codegen/mapaccess.go:465)	LEAQ	4(CX), SI
	0x02a8 00680 (/usr/local/go/test/codegen/mapaccess.go:465)	MOVQ	SI, ""..autotmp_36+72(SP)
	0x02ad 00685 (/usr/local/go/test/codegen/mapaccess.go:465)	CMPQ	SI, DX
	0x02b0 00688 (/usr/local/go/test/codegen/mapaccess.go:465)	JHI	1977
	0x02b6 00694 (/usr/local/go/test/codegen/mapaccess.go:465)	CMPQ	SI, CX
	0x02b9 00697 (/usr/local/go/test/codegen/mapaccess.go:465)	JCS	2330
	0x02bf 00703 (/usr/local/go/test/codegen/mapaccess.go:465)	MOVQ	BX, ""..autotmp_37+112(SP)
	0x02c4 00708 (/usr/local/go/test/codegen/mapaccess.go:465)	MOVQ	DX, ""..autotmp_38+64(SP)
	0x02c9 00713 (/usr/local/go/test/codegen/mapaccess.go:465)	LEAQ	type.string(SB), AX
	0x02d0 00720 (/usr/local/go/test/codegen/mapaccess.go:465)	MOVQ	AX, (SP)
	0x02d4 00724 (/usr/local/go/test/codegen/mapaccess.go:465)	MOVQ	CX, SI
	0x02d7 00727 (/usr/local/go/test/codegen/mapaccess.go:465)	SUBQ	DX, CX
	0x02da 00730 (/usr/local/go/test/codegen/mapaccess.go:465)	SHLQ	$4, SI
	0x02de 00734 (/usr/local/go/test/codegen/mapaccess.go:465)	SARQ	$63, CX
	0x02e2 00738 (/usr/local/go/test/codegen/mapaccess.go:465)	ANDQ	SI, CX
	0x02e5 00741 (/usr/local/go/test/codegen/mapaccess.go:465)	ADDQ	BX, CX
	0x02e8 00744 (/usr/local/go/test/codegen/mapaccess.go:465)	MOVQ	CX, 8(SP)
	0x02ed 00749 (/usr/local/go/test/codegen/mapaccess.go:465)	MOVQ	$4, 16(SP)
	0x02f6 00758 (/usr/local/go/test/codegen/mapaccess.go:465)	MOVQ	""..autotmp_34+128(SP), CX
	0x02fe 00766 (/usr/local/go/test/codegen/mapaccess.go:465)	MOVQ	CX, 24(SP)
	0x0303 00771 (/usr/local/go/test/codegen/mapaccess.go:465)	MOVQ	$4, 32(SP)
	0x030c 00780 (/usr/local/go/test/codegen/mapaccess.go:465)	PCDATA	$1, $3
	0x030c 00780 (/usr/local/go/test/codegen/mapaccess.go:465)	CALL	runtime.typedslicecopy(SB)
	0x0311 00785 (/usr/local/go/test/codegen/mapaccess.go:465)	MOVQ	""..autotmp_36+72(SP), AX
	0x0316 00790 (/usr/local/go/test/codegen/mapaccess.go:465)	MOVQ	""..autotmp_35+120(SP), DI
	0x031b 00795 (/usr/local/go/test/codegen/mapaccess.go:465)	MOVQ	AX, 8(DI)
	0x031f 00799 (/usr/local/go/test/codegen/mapaccess.go:465)	MOVQ	""..autotmp_38+64(SP), AX
	0x0324 00804 (/usr/local/go/test/codegen/mapaccess.go:465)	MOVQ	AX, 16(DI)
	0x0328 00808 (/usr/local/go/test/codegen/mapaccess.go:465)	PCDATA	$0, $-2
	0x0328 00808 (/usr/local/go/test/codegen/mapaccess.go:465)	CMPL	runtime.writeBarrier(SB), $0
	0x032f 00815 (/usr/local/go/test/codegen/mapaccess.go:465)	JNE	1962
	0x0335 00821 (/usr/local/go/test/codegen/mapaccess.go:465)	MOVQ	""..autotmp_37+112(SP), AX
	0x033a 00826 (/usr/local/go/test/codegen/mapaccess.go:465)	MOVQ	AX, (DI)
	0x033d 00829 (/usr/local/go/test/codegen/mapaccess.go:473)	PCDATA	$0, $-1
	0x033d 00829 (/usr/local/go/test/codegen/mapaccess.go:473)	LEAQ	type.map[string][]string(SB), AX
	0x0344 00836 (/usr/local/go/test/codegen/mapaccess.go:473)	MOVQ	AX, (SP)
	0x0348 00840 (/usr/local/go/test/codegen/mapaccess.go:473)	LEAQ	""..autotmp_7+136(SP), CX
	0x0350 00848 (/usr/local/go/test/codegen/mapaccess.go:473)	MOVQ	CX, 8(SP)
	0x0355 00853 (/usr/local/go/test/codegen/mapaccess.go:473)	LEAQ	go.string."key"(SB), DX
	0x035c 00860 (/usr/local/go/test/codegen/mapaccess.go:473)	MOVQ	DX, 16(SP)
	0x0361 00865 (/usr/local/go/test/codegen/mapaccess.go:473)	MOVQ	$3, 24(SP)
	0x036a 00874 (/usr/local/go/test/codegen/mapaccess.go:473)	PCDATA	$1, $2
	0x036a 00874 (/usr/local/go/test/codegen/mapaccess.go:473)	CALL	runtime.mapaccess1_faststr(SB)
	0x036f 00879 (/usr/local/go/test/codegen/mapaccess.go:473)	MOVQ	32(SP), AX
	0x0374 00884 (/usr/local/go/test/codegen/mapaccess.go:473)	MOVQ	8(AX), CX
	0x0378 00888 (/usr/local/go/test/codegen/mapaccess.go:473)	LEAQ	4(CX), DX
	0x037c 00892 (/usr/local/go/test/codegen/mapaccess.go:473)	MOVQ	DX, ""..autotmp_36+72(SP)
	0x0381 00897 (/usr/local/go/test/codegen/mapaccess.go:473)	MOVQ	(AX), AX
	0x0384 00900 (/usr/local/go/test/codegen/mapaccess.go:473)	CMPQ	DX, $4
	0x0388 00904 (/usr/local/go/test/codegen/mapaccess.go:473)	JHI	1866
	0x038e 00910 (/usr/local/go/test/codegen/mapaccess.go:473)	MOVQ	""..autotmp_34+128(SP), BX
	0x0396 00918 (/usr/local/go/test/codegen/mapaccess.go:473)	MOVL	$4, SI
	0x039b 00923 (/usr/local/go/test/codegen/mapaccess.go:473)	PCDATA	$1, $-1
	0x039b 00923 (/usr/local/go/test/codegen/mapaccess.go:473)	NOP
	0x03a0 00928 (/usr/local/go/test/codegen/mapaccess.go:473)	JCS	2317
	0x03a6 00934 (/usr/local/go/test/codegen/mapaccess.go:473)	MOVQ	SI, ""..autotmp_38+64(SP)
	0x03ab 00939 (/usr/local/go/test/codegen/mapaccess.go:473)	MOVQ	BX, ""..autotmp_37+112(SP)
	0x03b0 00944 (/usr/local/go/test/codegen/mapaccess.go:473)	LEAQ	type.string(SB), DX
	0x03b7 00951 (/usr/local/go/test/codegen/mapaccess.go:473)	MOVQ	DX, (SP)
	0x03bb 00955 (/usr/local/go/test/codegen/mapaccess.go:473)	LEAQ	-4(SI), DI
	0x03bf 00959 (/usr/local/go/test/codegen/mapaccess.go:473)	NEGQ	DI
	0x03c2 00962 (/usr/local/go/test/codegen/mapaccess.go:473)	SARQ	$63, DI
	0x03c6 00966 (/usr/local/go/test/codegen/mapaccess.go:473)	ANDQ	$64, DI
	0x03ca 00970 (/usr/local/go/test/codegen/mapaccess.go:473)	ADDQ	BX, DI
	0x03cd 00973 (/usr/local/go/test/codegen/mapaccess.go:473)	MOVQ	DI, 8(SP)
	0x03d2 00978 (/usr/local/go/test/codegen/mapaccess.go:473)	MOVQ	CX, 16(SP)
	0x03d7 00983 (/usr/local/go/test/codegen/mapaccess.go:473)	MOVQ	AX, 24(SP)
	0x03dc 00988 (/usr/local/go/test/codegen/mapaccess.go:473)	MOVQ	CX, 32(SP)
	0x03e1 00993 (/usr/local/go/test/codegen/mapaccess.go:473)	PCDATA	$1, $4
	0x03e1 00993 (/usr/local/go/test/codegen/mapaccess.go:473)	CALL	runtime.typedslicecopy(SB)
	0x03e6 00998 (/usr/local/go/test/codegen/mapaccess.go:473)	LEAQ	type.map[string][]string(SB), AX
	0x03ed 01005 (/usr/local/go/test/codegen/mapaccess.go:473)	MOVQ	AX, (SP)
	0x03f1 01009 (/usr/local/go/test/codegen/mapaccess.go:473)	LEAQ	""..autotmp_7+136(SP), CX
	0x03f9 01017 (/usr/local/go/test/codegen/mapaccess.go:473)	MOVQ	CX, 8(SP)
	0x03fe 01022 (/usr/local/go/test/codegen/mapaccess.go:473)	LEAQ	go.string."key"(SB), DX
	0x0405 01029 (/usr/local/go/test/codegen/mapaccess.go:473)	MOVQ	DX, 16(SP)
	0x040a 01034 (/usr/local/go/test/codegen/mapaccess.go:473)	MOVQ	$3, 24(SP)
	0x0413 01043 (/usr/local/go/test/codegen/mapaccess.go:473)	CALL	runtime.mapassign_faststr(SB)
	0x0418 01048 (/usr/local/go/test/codegen/mapaccess.go:473)	MOVQ	32(SP), DI
	0x041d 01053 (/usr/local/go/test/codegen/mapaccess.go:473)	MOVQ	""..autotmp_36+72(SP), AX
	0x0422 01058 (/usr/local/go/test/codegen/mapaccess.go:473)	MOVQ	AX, 8(DI)
	0x0426 01062 (/usr/local/go/test/codegen/mapaccess.go:473)	MOVQ	""..autotmp_38+64(SP), AX
	0x042b 01067 (/usr/local/go/test/codegen/mapaccess.go:473)	MOVQ	AX, 16(DI)
	0x042f 01071 (/usr/local/go/test/codegen/mapaccess.go:473)	PCDATA	$0, $-2
	0x042f 01071 (/usr/local/go/test/codegen/mapaccess.go:473)	CMPL	runtime.writeBarrier(SB), $0
	0x0436 01078 (/usr/local/go/test/codegen/mapaccess.go:473)	JNE	1846
	0x043c 01084 (/usr/local/go/test/codegen/mapaccess.go:473)	MOVQ	""..autotmp_37+112(SP), AX
	0x0441 01089 (/usr/local/go/test/codegen/mapaccess.go:473)	MOVQ	AX, (DI)
	0x0444 01092 (/usr/local/go/test/codegen/mapaccess.go:479)	PCDATA	$0, $-1
	0x0444 01092 (/usr/local/go/test/codegen/mapaccess.go:479)	LEAQ	type.map[string][]string(SB), AX
	0x044b 01099 (/usr/local/go/test/codegen/mapaccess.go:479)	MOVQ	AX, (SP)
	0x044f 01103 (/usr/local/go/test/codegen/mapaccess.go:479)	LEAQ	""..autotmp_7+136(SP), CX
	0x0457 01111 (/usr/local/go/test/codegen/mapaccess.go:479)	MOVQ	CX, 8(SP)
	0x045c 01116 (/usr/local/go/test/codegen/mapaccess.go:479)	LEAQ	go.string."key"(SB), DX
	0x0463 01123 (/usr/local/go/test/codegen/mapaccess.go:479)	MOVQ	DX, 16(SP)
	0x0468 01128 (/usr/local/go/test/codegen/mapaccess.go:479)	MOVQ	$3, 24(SP)
	0x0471 01137 (/usr/local/go/test/codegen/mapaccess.go:479)	PCDATA	$1, $1
	0x0471 01137 (/usr/local/go/test/codegen/mapaccess.go:479)	CALL	runtime.mapaccess1_faststr(SB)
	0x0476 01142 (/usr/local/go/test/codegen/mapaccess.go:479)	MOVQ	32(SP), AX
	0x047b 01147 (/usr/local/go/test/codegen/mapaccess.go:479)	MOVQ	8(AX), CX
	0x047f 01151 (/usr/local/go/test/codegen/mapaccess.go:479)	LEAQ	1(CX), DX
	0x0483 01155 (/usr/local/go/test/codegen/mapaccess.go:479)	MOVQ	16(AX), BX
	0x0487 01159 (/usr/local/go/test/codegen/mapaccess.go:479)	MOVQ	(AX), AX
	0x048a 01162 (/usr/local/go/test/codegen/mapaccess.go:479)	CMPQ	BX, DX
	0x048d 01165 (/usr/local/go/test/codegen/mapaccess.go:479)	JCS	1776
	0x0493 01171 (/usr/local/go/test/codegen/mapaccess.go:479)	MOVQ	AX, ""..autotmp_37+112(SP)
	0x0498 01176 (/usr/local/go/test/codegen/mapaccess.go:479)	MOVQ	DX, ""..autotmp_36+72(SP)
	0x049d 01181 (/usr/local/go/test/codegen/mapaccess.go:479)	MOVQ	BX, ""..autotmp_38+64(SP)
	0x04a2 01186 (/usr/local/go/test/codegen/mapaccess.go:479)	SHLQ	$4, CX
	0x04a6 01190 (/usr/local/go/test/codegen/mapaccess.go:479)	MOVQ	$2, 8(AX)(CX*1)
	0x04af 01199 (/usr/local/go/test/codegen/mapaccess.go:479)	LEAQ	(AX)(CX*1), DI
	0x04b3 01203 (/usr/local/go/test/codegen/mapaccess.go:479)	PCDATA	$0, $-2
	0x04b3 01203 (/usr/local/go/test/codegen/mapaccess.go:479)	CMPL	runtime.writeBarrier(SB), $0
	0x04ba 01210 (/usr/local/go/test/codegen/mapaccess.go:479)	NOP
	0x04c0 01216 (/usr/local/go/test/codegen/mapaccess.go:479)	JNE	1759
	0x04c6 01222 (/usr/local/go/test/codegen/mapaccess.go:479)	LEAQ	go.string."99"(SB), SI
	0x04cd 01229 (/usr/local/go/test/codegen/mapaccess.go:479)	MOVQ	SI, (AX)(CX*1)
	0x04d1 01233 (/usr/local/go/test/codegen/mapaccess.go:479)	PCDATA	$0, $-1
	0x04d1 01233 (/usr/local/go/test/codegen/mapaccess.go:479)	MOVBLZX	"".sinkAppend(SB), AX
	0x04d8 01240 (/usr/local/go/test/codegen/mapaccess.go:479)	XORL	$1, AX
	0x04db 01243 (/usr/local/go/test/codegen/mapaccess.go:479)	MOVB	AL, "".sinkAppend(SB)
	0x04e1 01249 (/usr/local/go/test/codegen/mapaccess.go:479)	LEAQ	type.map[string][]string(SB), AX
	0x04e8 01256 (/usr/local/go/test/codegen/mapaccess.go:479)	MOVQ	AX, (SP)
	0x04ec 01260 (/usr/local/go/test/codegen/mapaccess.go:479)	LEAQ	""..autotmp_7+136(SP), CX
	0x04f4 01268 (/usr/local/go/test/codegen/mapaccess.go:479)	MOVQ	CX, 8(SP)
	0x04f9 01273 (/usr/local/go/test/codegen/mapaccess.go:479)	LEAQ	go.string."key"(SB), DX
	0x0500 01280 (/usr/local/go/test/codegen/mapaccess.go:479)	MOVQ	DX, 16(SP)
	0x0505 01285 (/usr/local/go/test/codegen/mapaccess.go:479)	MOVQ	$3, 24(SP)
	0x050e 01294 (/usr/local/go/test/codegen/mapaccess.go:479)	PCDATA	$1, $4
	0x050e 01294 (/usr/local/go/test/codegen/mapaccess.go:479)	CALL	runtime.mapassign_faststr(SB)
	0x0513 01299 (/usr/local/go/test/codegen/mapaccess.go:479)	MOVQ	32(SP), DI
	0x0518 01304 (/usr/local/go/test/codegen/mapaccess.go:479)	MOVQ	""..autotmp_36+72(SP), AX
	0x051d 01309 (/usr/local/go/test/codegen/mapaccess.go:479)	MOVQ	AX, 8(DI)
	0x0521 01313 (/usr/local/go/test/codegen/mapaccess.go:479)	MOVQ	""..autotmp_38+64(SP), AX
	0x0526 01318 (/usr/local/go/test/codegen/mapaccess.go:479)	MOVQ	AX, 16(DI)
	0x052a 01322 (/usr/local/go/test/codegen/mapaccess.go:479)	PCDATA	$0, $-2
	0x052a 01322 (/usr/local/go/test/codegen/mapaccess.go:479)	CMPL	runtime.writeBarrier(SB), $0
	0x0531 01329 (/usr/local/go/test/codegen/mapaccess.go:479)	JNE	1744
	0x0537 01335 (/usr/local/go/test/codegen/mapaccess.go:479)	MOVQ	""..autotmp_37+112(SP), AX
	0x053c 01340 (/usr/local/go/test/codegen/mapaccess.go:479)	MOVQ	AX, (DI)
	0x053f 01343 (/usr/local/go/test/codegen/mapaccess.go:485)	PCDATA	$0, $-1
	0x053f 01343 (/usr/local/go/test/codegen/mapaccess.go:485)	LEAQ	""..autotmp_27+80(SP), AX
	0x0544 01348 (/usr/local/go/test/codegen/mapaccess.go:485)	MOVQ	AX, (SP)
	0x0548 01352 (/usr/local/go/test/codegen/mapaccess.go:485)	LEAQ	go.string."key"(SB), AX
	0x054f 01359 (/usr/local/go/test/codegen/mapaccess.go:485)	MOVQ	AX, 8(SP)
	0x0554 01364 (/usr/local/go/test/codegen/mapaccess.go:485)	MOVQ	$3, 16(SP)
	0x055d 01373 (/usr/local/go/test/codegen/mapaccess.go:485)	LEAQ	go.string."1"(SB), CX
	0x0564 01380 (/usr/local/go/test/codegen/mapaccess.go:485)	MOVQ	CX, 24(SP)
	0x0569 01385 (/usr/local/go/test/codegen/mapaccess.go:485)	MOVQ	$1, 32(SP)
	0x0572 01394 (/usr/local/go/test/codegen/mapaccess.go:485)	PCDATA	$1, $1
	0x0572 01394 (/usr/local/go/test/codegen/mapaccess.go:485)	CALL	runtime.concatstring2(SB)
	0x0577 01399 (/usr/local/go/test/codegen/mapaccess.go:485)	MOVQ	40(SP), AX
	0x057c 01404 (/usr/local/go/test/codegen/mapaccess.go:485)	MOVQ	48(SP), CX
	0x0581 01409 (/usr/local/go/test/codegen/mapaccess.go:485)	LEAQ	type.map[string][]string(SB), DX
	0x0588 01416 (/usr/local/go/test/codegen/mapaccess.go:485)	MOVQ	DX, (SP)
	0x058c 01420 (/usr/local/go/test/codegen/mapaccess.go:485)	LEAQ	""..autotmp_7+136(SP), BX
	0x0594 01428 (/usr/local/go/test/codegen/mapaccess.go:485)	MOVQ	BX, 8(SP)
	0x0599 01433 (/usr/local/go/test/codegen/mapaccess.go:485)	MOVQ	AX, 16(SP)
	0x059e 01438 (/usr/local/go/test/codegen/mapaccess.go:485)	MOVQ	CX, 24(SP)
	0x05a3 01443 (/usr/local/go/test/codegen/mapaccess.go:485)	CALL	runtime.mapaccess1_faststr(SB)
	0x05a8 01448 (/usr/local/go/test/codegen/mapaccess.go:485)	MOVQ	32(SP), AX
	0x05ad 01453 (/usr/local/go/test/codegen/mapaccess.go:485)	MOVQ	8(AX), CX
	0x05b1 01457 (/usr/local/go/test/codegen/mapaccess.go:485)	LEAQ	1(CX), DX
	0x05b5 01461 (/usr/local/go/test/codegen/mapaccess.go:485)	MOVQ	16(AX), BX
	0x05b9 01465 (/usr/local/go/test/codegen/mapaccess.go:485)	MOVQ	(AX), AX
	0x05bc 01468 (/usr/local/go/test/codegen/mapaccess.go:485)	NOP
	0x05c0 01472 (/usr/local/go/test/codegen/mapaccess.go:485)	CMPQ	DX, BX
	0x05c3 01475 (/usr/local/go/test/codegen/mapaccess.go:485)	JHI	1674
	0x05c9 01481 (/usr/local/go/test/codegen/mapaccess.go:485)	MOVQ	AX, ""..autotmp_37+112(SP)
	0x05ce 01486 (/usr/local/go/test/codegen/mapaccess.go:485)	MOVQ	DX, ""..autotmp_36+72(SP)
	0x05d3 01491 (/usr/local/go/test/codegen/mapaccess.go:485)	MOVQ	BX, ""..autotmp_38+64(SP)
	0x05d8 01496 (/usr/local/go/test/codegen/mapaccess.go:485)	SHLQ	$4, CX
	0x05dc 01500 (/usr/local/go/test/codegen/mapaccess.go:485)	MOVQ	$3, 8(AX)(CX*1)
	0x05e5 01509 (/usr/local/go/test/codegen/mapaccess.go:485)	LEAQ	(AX)(CX*1), DI
	0x05e9 01513 (/usr/local/go/test/codegen/mapaccess.go:485)	PCDATA	$0, $-2
	0x05e9 01513 (/usr/local/go/test/codegen/mapaccess.go:485)	CMPL	runtime.writeBarrier(SB), $0
	0x05f0 01520 (/usr/local/go/test/codegen/mapaccess.go:485)	JNE	1655
	0x05f6 01526 (/usr/local/go/test/codegen/mapaccess.go:485)	LEAQ	go.string."100"(SB), SI
	0x05fd 01533 (/usr/local/go/test/codegen/mapaccess.go:485)	MOVQ	SI, (AX)(CX*1)
	0x0601 01537 (/usr/local/go/test/codegen/mapaccess.go:485)	PCDATA	$0, $-1
	0x0601 01537 (/usr/local/go/test/codegen/mapaccess.go:485)	LEAQ	type.map[string][]string(SB), AX
	0x0608 01544 (/usr/local/go/test/codegen/mapaccess.go:485)	MOVQ	AX, (SP)
	0x060c 01548 (/usr/local/go/test/codegen/mapaccess.go:485)	LEAQ	""..autotmp_7+136(SP), AX
	0x0614 01556 (/usr/local/go/test/codegen/mapaccess.go:485)	MOVQ	AX, 8(SP)
	0x0619 01561 (/usr/local/go/test/codegen/mapaccess.go:485)	LEAQ	go.string."key"(SB), AX
	0x0620 01568 (/usr/local/go/test/codegen/mapaccess.go:485)	MOVQ	AX, 16(SP)
	0x0625 01573 (/usr/local/go/test/codegen/mapaccess.go:485)	MOVQ	$3, 24(SP)
	0x062e 01582 (/usr/local/go/test/codegen/mapaccess.go:485)	PCDATA	$1, $5
	0x062e 01582 (/usr/local/go/test/codegen/mapaccess.go:485)	CALL	runtime.mapassign_faststr(SB)
	0x0633 01587 (/usr/local/go/test/codegen/mapaccess.go:485)	MOVQ	32(SP), DI
	0x0638 01592 (/usr/local/go/test/codegen/mapaccess.go:485)	MOVQ	""..autotmp_36+72(SP), AX
	0x063d 01597 (/usr/local/go/test/codegen/mapaccess.go:485)	MOVQ	AX, 8(DI)
	0x0641 01601 (/usr/local/go/test/codegen/mapaccess.go:485)	MOVQ	""..autotmp_38+64(SP), AX
	0x0646 01606 (/usr/local/go/test/codegen/mapaccess.go:485)	MOVQ	AX, 16(DI)
	0x064a 01610 (/usr/local/go/test/codegen/mapaccess.go:485)	PCDATA	$0, $-2
	0x064a 01610 (/usr/local/go/test/codegen/mapaccess.go:485)	CMPL	runtime.writeBarrier(SB), $0
	0x0651 01617 (/usr/local/go/test/codegen/mapaccess.go:485)	JNE	1643
	0x0653 01619 (/usr/local/go/test/codegen/mapaccess.go:485)	MOVQ	""..autotmp_37+112(SP), AX
	0x0658 01624 (/usr/local/go/test/codegen/mapaccess.go:485)	MOVQ	AX, (DI)
	0x065b 01627 (/usr/local/go/test/codegen/mapaccess.go:486)	PCDATA	$0, $-1
	0x065b 01627 (/usr/local/go/test/codegen/mapaccess.go:486)	PCDATA	$1, $-1
	0x065b 01627 (/usr/local/go/test/codegen/mapaccess.go:486)	MOVQ	520(SP), BP
	0x0663 01635 (/usr/local/go/test/codegen/mapaccess.go:486)	ADDQ	$528, SP
	0x066a 01642 (/usr/local/go/test/codegen/mapaccess.go:486)	RET
	0x066b 01643 (/usr/local/go/test/codegen/mapaccess.go:485)	PCDATA	$0, $-2
	0x066b 01643 (/usr/local/go/test/codegen/mapaccess.go:485)	MOVQ	""..autotmp_37+112(SP), AX
	0x0670 01648 (/usr/local/go/test/codegen/mapaccess.go:485)	CALL	runtime.gcWriteBarrier(SB)
	0x0675 01653 (/usr/local/go/test/codegen/mapaccess.go:485)	JMP	1627
	0x0677 01655 (/usr/local/go/test/codegen/mapaccess.go:485)	LEAQ	go.string."100"(SB), CX
	0x067e 01662 (/usr/local/go/test/codegen/mapaccess.go:485)	NOP
	0x0680 01664 (/usr/local/go/test/codegen/mapaccess.go:485)	CALL	runtime.gcWriteBarrierCX(SB)
	0x0685 01669 (/usr/local/go/test/codegen/mapaccess.go:485)	JMP	1537
	0x068a 01674 (/usr/local/go/test/codegen/mapaccess.go:485)	PCDATA	$0, $-1
	0x068a 01674 (/usr/local/go/test/codegen/mapaccess.go:485)	MOVQ	CX, ""..autotmp_36+72(SP)
	0x068f 01679 (/usr/local/go/test/codegen/mapaccess.go:485)	LEAQ	type.string(SB), SI
	0x0696 01686 (/usr/local/go/test/codegen/mapaccess.go:485)	MOVQ	SI, (SP)
	0x069a 01690 (/usr/local/go/test/codegen/mapaccess.go:485)	MOVQ	AX, 8(SP)
	0x069f 01695 (/usr/local/go/test/codegen/mapaccess.go:485)	MOVQ	CX, 16(SP)
	0x06a4 01700 (/usr/local/go/test/codegen/mapaccess.go:485)	MOVQ	BX, 24(SP)
	0x06a9 01705 (/usr/local/go/test/codegen/mapaccess.go:485)	MOVQ	DX, 32(SP)
	0x06ae 01710 (/usr/local/go/test/codegen/mapaccess.go:485)	PCDATA	$1, $1
	0x06ae 01710 (/usr/local/go/test/codegen/mapaccess.go:485)	CALL	runtime.growslice(SB)
	0x06b3 01715 (/usr/local/go/test/codegen/mapaccess.go:485)	MOVQ	40(SP), AX
	0x06b8 01720 (/usr/local/go/test/codegen/mapaccess.go:485)	MOVQ	48(SP), CX
	0x06bd 01725 (/usr/local/go/test/codegen/mapaccess.go:485)	MOVQ	56(SP), BX
	0x06c2 01730 (/usr/local/go/test/codegen/mapaccess.go:485)	LEAQ	1(CX), DX
	0x06c6 01734 (/usr/local/go/test/codegen/mapaccess.go:485)	MOVQ	""..autotmp_36+72(SP), CX
	0x06cb 01739 (/usr/local/go/test/codegen/mapaccess.go:485)	JMP	1481
	0x06d0 01744 (/usr/local/go/test/codegen/mapaccess.go:479)	PCDATA	$0, $-2
	0x06d0 01744 (/usr/local/go/test/codegen/mapaccess.go:479)	MOVQ	""..autotmp_37+112(SP), AX
	0x06d5 01749 (/usr/local/go/test/codegen/mapaccess.go:479)	CALL	runtime.gcWriteBarrier(SB)
	0x06da 01754 (/usr/local/go/test/codegen/mapaccess.go:479)	JMP	1343
	0x06df 01759 (/usr/local/go/test/codegen/mapaccess.go:479)	LEAQ	go.string."99"(SB), CX
	0x06e6 01766 (/usr/local/go/test/codegen/mapaccess.go:479)	CALL	runtime.gcWriteBarrierCX(SB)
	0x06eb 01771 (/usr/local/go/test/codegen/mapaccess.go:479)	JMP	1233
	0x06f0 01776 (/usr/local/go/test/codegen/mapaccess.go:479)	PCDATA	$0, $-1
	0x06f0 01776 (/usr/local/go/test/codegen/mapaccess.go:479)	MOVQ	CX, ""..autotmp_36+72(SP)
	0x06f5 01781 (/usr/local/go/test/codegen/mapaccess.go:479)	LEAQ	type.string(SB), SI
	0x06fc 01788 (/usr/local/go/test/codegen/mapaccess.go:479)	MOVQ	SI, (SP)
	0x0700 01792 (/usr/local/go/test/codegen/mapaccess.go:479)	MOVQ	AX, 8(SP)
	0x0705 01797 (/usr/local/go/test/codegen/mapaccess.go:479)	MOVQ	CX, 16(SP)
	0x070a 01802 (/usr/local/go/test/codegen/mapaccess.go:479)	MOVQ	BX, 24(SP)
	0x070f 01807 (/usr/local/go/test/codegen/mapaccess.go:479)	MOVQ	DX, 32(SP)
	0x0714 01812 (/usr/local/go/test/codegen/mapaccess.go:479)	CALL	runtime.growslice(SB)
	0x0719 01817 (/usr/local/go/test/codegen/mapaccess.go:479)	MOVQ	40(SP), AX
	0x071e 01822 (/usr/local/go/test/codegen/mapaccess.go:479)	MOVQ	48(SP), CX
	0x0723 01827 (/usr/local/go/test/codegen/mapaccess.go:479)	MOVQ	56(SP), BX
	0x0728 01832 (/usr/local/go/test/codegen/mapaccess.go:479)	LEAQ	1(CX), DX
	0x072c 01836 (/usr/local/go/test/codegen/mapaccess.go:479)	MOVQ	""..autotmp_36+72(SP), CX
	0x0731 01841 (/usr/local/go/test/codegen/mapaccess.go:479)	JMP	1171
	0x0736 01846 (/usr/local/go/test/codegen/mapaccess.go:473)	PCDATA	$0, $-2
	0x0736 01846 (/usr/local/go/test/codegen/mapaccess.go:473)	MOVQ	""..autotmp_37+112(SP), AX
	0x073b 01851 (/usr/local/go/test/codegen/mapaccess.go:473)	NOP
	0x0740 01856 (/usr/local/go/test/codegen/mapaccess.go:473)	CALL	runtime.gcWriteBarrier(SB)
	0x0745 01861 (/usr/local/go/test/codegen/mapaccess.go:473)	JMP	1092
	0x074a 01866 (/usr/local/go/test/codegen/mapaccess.go:473)	PCDATA	$0, $-1
	0x074a 01866 (/usr/local/go/test/codegen/mapaccess.go:473)	MOVQ	CX, ""..autotmp_38+64(SP)
	0x074f 01871 (/usr/local/go/test/codegen/mapaccess.go:473)	MOVQ	AX, ""..autotmp_37+112(SP)
	0x0754 01876 (/usr/local/go/test/codegen/mapaccess.go:473)	LEAQ	type.string(SB), AX
	0x075b 01883 (/usr/local/go/test/codegen/mapaccess.go:473)	MOVQ	AX, (SP)
	0x075f 01887 (/usr/local/go/test/codegen/mapaccess.go:473)	MOVQ	""..autotmp_34+128(SP), CX
	0x0767 01895 (/usr/local/go/test/codegen/mapaccess.go:473)	MOVQ	CX, 8(SP)
	0x076c 01900 (/usr/local/go/test/codegen/mapaccess.go:473)	MOVQ	$4, 16(SP)
	0x0775 01909 (/usr/local/go/test/codegen/mapaccess.go:473)	MOVQ	$4, 24(SP)
	0x077e 01918 (/usr/local/go/test/codegen/mapaccess.go:473)	MOVQ	DX, 32(SP)
	0x0783 01923 (/usr/local/go/test/codegen/mapaccess.go:473)	PCDATA	$1, $4
	0x0783 01923 (/usr/local/go/test/codegen/mapaccess.go:473)	CALL	runtime.growslice(SB)
	0x0788 01928 (/usr/local/go/test/codegen/mapaccess.go:473)	MOVQ	40(SP), BX
	0x078d 01933 (/usr/local/go/test/codegen/mapaccess.go:473)	MOVQ	56(SP), SI
	0x0792 01938 (/usr/local/go/test/codegen/mapaccess.go:473)	MOVQ	""..autotmp_36+72(SP), DX
	0x0797 01943 (/usr/local/go/test/codegen/mapaccess.go:473)	CMPQ	DX, $4
	0x079b 01947 (/usr/local/go/test/codegen/mapaccess.go:473)	MOVQ	""..autotmp_37+112(SP), AX
	0x07a0 01952 (/usr/local/go/test/codegen/mapaccess.go:473)	MOVQ	""..autotmp_38+64(SP), CX
	0x07a5 01957 (/usr/local/go/test/codegen/mapaccess.go:473)	JMP	923
	0x07aa 01962 (/usr/local/go/test/codegen/mapaccess.go:465)	PCDATA	$0, $-2
	0x07aa 01962 (/usr/local/go/test/codegen/mapaccess.go:465)	MOVQ	""..autotmp_37+112(SP), AX
	0x07af 01967 (/usr/local/go/test/codegen/mapaccess.go:465)	CALL	runtime.gcWriteBarrier(SB)
	0x07b4 01972 (/usr/local/go/test/codegen/mapaccess.go:465)	JMP	829
	0x07b9 01977 (/usr/local/go/test/codegen/mapaccess.go:465)	PCDATA	$0, $-1
	0x07b9 01977 (/usr/local/go/test/codegen/mapaccess.go:465)	MOVQ	CX, ""..autotmp_38+64(SP)
	0x07be 01982 (/usr/local/go/test/codegen/mapaccess.go:465)	LEAQ	type.string(SB), AX
	0x07c5 01989 (/usr/local/go/test/codegen/mapaccess.go:465)	MOVQ	AX, (SP)
	0x07c9 01993 (/usr/local/go/test/codegen/mapaccess.go:465)	MOVQ	BX, 8(SP)
	0x07ce 01998 (/usr/local/go/test/codegen/mapaccess.go:465)	MOVQ	CX, 16(SP)
	0x07d3 02003 (/usr/local/go/test/codegen/mapaccess.go:465)	MOVQ	DX, 24(SP)
	0x07d8 02008 (/usr/local/go/test/codegen/mapaccess.go:465)	MOVQ	SI, 32(SP)
	0x07dd 02013 (/usr/local/go/test/codegen/mapaccess.go:465)	PCDATA	$1, $6
	0x07dd 02013 (/usr/local/go/test/codegen/mapaccess.go:465)	NOP
	0x07e0 02016 (/usr/local/go/test/codegen/mapaccess.go:465)	CALL	runtime.growslice(SB)
	0x07e5 02021 (/usr/local/go/test/codegen/mapaccess.go:465)	MOVQ	40(SP), BX
	0x07ea 02026 (/usr/local/go/test/codegen/mapaccess.go:465)	MOVQ	56(SP), DX
	0x07ef 02031 (/usr/local/go/test/codegen/mapaccess.go:465)	MOVQ	""..autotmp_35+120(SP), AX
	0x07f4 02036 (/usr/local/go/test/codegen/mapaccess.go:465)	MOVQ	""..autotmp_38+64(SP), CX
	0x07f9 02041 (/usr/local/go/test/codegen/mapaccess.go:465)	MOVQ	""..autotmp_36+72(SP), SI
	0x07fe 02046 (/usr/local/go/test/codegen/mapaccess.go:465)	NOP
	0x0800 02048 (/usr/local/go/test/codegen/mapaccess.go:465)	JMP	694
	0x0805 02053 (/usr/local/go/test/codegen/mapaccess.go:457)	PCDATA	$0, $-2
	0x0805 02053 (/usr/local/go/test/codegen/mapaccess.go:457)	MOVQ	BX, DI
	0x0808 02056 (/usr/local/go/test/codegen/mapaccess.go:457)	LEAQ	go.string."3"(SB), AX
	0x080f 02063 (/usr/local/go/test/codegen/mapaccess.go:457)	CALL	runtime.gcWriteBarrier(SB)
	0x0814 02068 (/usr/local/go/test/codegen/mapaccess.go:457)	JMP	500
	0x0819 02073 (/usr/local/go/test/codegen/mapaccess.go:457)	MOVQ	AX, DI
	0x081c 02076 (/usr/local/go/test/codegen/mapaccess.go:457)	LEAQ	go.string."2"(SB), R8
	0x0823 02083 (/usr/local/go/test/codegen/mapaccess.go:457)	CALL	runtime.gcWriteBarrierR8(SB)
	0x0828 02088 (/usr/local/go/test/codegen/mapaccess.go:457)	JMP	466
	0x082d 02093 (/usr/local/go/test/codegen/mapaccess.go:457)	LEAQ	go.string."1"(SB), SI
	0x0834 02100 (/usr/local/go/test/codegen/mapaccess.go:457)	CALL	runtime.gcWriteBarrierSI(SB)
	0x0839 02105 (/usr/local/go/test/codegen/mapaccess.go:457)	JMP	426
	0x083e 02110 (/usr/local/go/test/codegen/mapaccess.go:457)	PCDATA	$0, $-1
	0x083e 02110 (/usr/local/go/test/codegen/mapaccess.go:457)	MOVQ	AX, ""..autotmp_35+120(SP)
	0x0843 02115 (/usr/local/go/test/codegen/mapaccess.go:457)	LEAQ	type.string(SB), AX
	0x084a 02122 (/usr/local/go/test/codegen/mapaccess.go:457)	MOVQ	AX, (SP)
	0x084e 02126 (/usr/local/go/test/codegen/mapaccess.go:457)	MOVQ	DX, 8(SP)
	0x0853 02131 (/usr/local/go/test/codegen/mapaccess.go:457)	MOVQ	CX, 16(SP)
	0x0858 02136 (/usr/local/go/test/codegen/mapaccess.go:457)	MOVQ	BX, 24(SP)
	0x085d 02141 (/usr/local/go/test/codegen/mapaccess.go:457)	MOVQ	SI, 32(SP)
	0x0862 02146 (/usr/local/go/test/codegen/mapaccess.go:457)	PCDATA	$1, $7
	0x0862 02146 (/usr/local/go/test/codegen/mapaccess.go:457)	CALL	runtime.growslice(SB)
	0x0867 02151 (/usr/local/go/test/codegen/mapaccess.go:457)	MOVQ	40(SP), AX
	0x086c 02156 (/usr/local/go/test/codegen/mapaccess.go:457)	MOVQ	48(SP), CX
	0x0871 02161 (/usr/local/go/test/codegen/mapaccess.go:457)	MOVQ	56(SP), DX
	0x0876 02166 (/usr/local/go/test/codegen/mapaccess.go:457)	MOVQ	""..autotmp_35+120(SP), DI
	0x087b 02171 (/usr/local/go/test/codegen/mapaccess.go:457)	MOVQ	DX, 16(DI)
	0x087f 02175 (/usr/local/go/test/codegen/mapaccess.go:457)	PCDATA	$0, $-2
	0x087f 02175 (/usr/local/go/test/codegen/mapaccess.go:457)	CMPL	runtime.writeBarrier(SB), $0
	0x0886 02182 (/usr/local/go/test/codegen/mapaccess.go:457)	JNE	2198
	0x0888 02184 (/usr/local/go/test/codegen/mapaccess.go:457)	MOVQ	AX, (DI)
	0x088b 02187 (/usr/local/go/test/codegen/mapaccess.go:457)	PCDATA	$0, $-1
	0x088b 02187 (/usr/local/go/test/codegen/mapaccess.go:457)	MOVQ	AX, DX
	0x088e 02190 (/usr/local/go/test/codegen/mapaccess.go:457)	MOVQ	DI, AX
	0x0891 02193 (/usr/local/go/test/codegen/mapaccess.go:457)	JMP	361
	0x0896 02198 (/usr/local/go/test/codegen/mapaccess.go:457)	PCDATA	$0, $-2
	0x0896 02198 (/usr/local/go/test/codegen/mapaccess.go:457)	CALL	runtime.gcWriteBarrier(SB)
	0x089b 02203 (/usr/local/go/test/codegen/mapaccess.go:457)	JMP	2187
	0x089d 02205 (/usr/local/go/test/codegen/mapaccess.go:451)	LEAQ	go.string."1"(SB), AX
	0x08a4 02212 (/usr/local/go/test/codegen/mapaccess.go:451)	CALL	runtime.gcWriteBarrier(SB)
	0x08a9 02217 (/usr/local/go/test/codegen/mapaccess.go:451)	JMP	282
	0x08ae 02222 (/usr/local/go/test/codegen/mapaccess.go:451)	PCDATA	$0, $-1
	0x08ae 02222 (/usr/local/go/test/codegen/mapaccess.go:451)	MOVQ	AX, ""..autotmp_35+120(SP)
	0x08b3 02227 (/usr/local/go/test/codegen/mapaccess.go:451)	LEAQ	type.string(SB), AX
	0x08ba 02234 (/usr/local/go/test/codegen/mapaccess.go:451)	MOVQ	AX, (SP)
	0x08be 02238 (/usr/local/go/test/codegen/mapaccess.go:451)	MOVQ	DX, 8(SP)
	0x08c3 02243 (/usr/local/go/test/codegen/mapaccess.go:451)	MOVQ	CX, 16(SP)
	0x08c8 02248 (/usr/local/go/test/codegen/mapaccess.go:451)	MOVQ	BX, 24(SP)
	0x08cd 02253 (/usr/local/go/test/codegen/mapaccess.go:451)	MOVQ	SI, 32(SP)
	0x08d2 02258 (/usr/local/go/test/codegen/mapaccess.go:451)	CALL	runtime.growslice(SB)
	0x08d7 02263 (/usr/local/go/test/codegen/mapaccess.go:451)	MOVQ	40(SP), AX
	0x08dc 02268 (/usr/local/go/test/codegen/mapaccess.go:451)	MOVQ	48(SP), CX
	0x08e1 02273 (/usr/local/go/test/codegen/mapaccess.go:451)	MOVQ	56(SP), DX
	0x08e6 02278 (/usr/local/go/test/codegen/mapaccess.go:451)	MOVQ	""..autotmp_35+120(SP), DI
	0x08eb 02283 (/usr/local/go/test/codegen/mapaccess.go:451)	MOVQ	DX, 16(DI)
	0x08ef 02287 (/usr/local/go/test/codegen/mapaccess.go:451)	PCDATA	$0, $-2
	0x08ef 02287 (/usr/local/go/test/codegen/mapaccess.go:451)	CMPL	runtime.writeBarrier(SB), $0
	0x08f6 02294 (/usr/local/go/test/codegen/mapaccess.go:451)	JNE	2310
	0x08f8 02296 (/usr/local/go/test/codegen/mapaccess.go:451)	MOVQ	AX, (DI)
	0x08fb 02299 (/usr/local/go/test/codegen/mapaccess.go:451)	PCDATA	$0, $-1
	0x08fb 02299 (/usr/local/go/test/codegen/mapaccess.go:451)	MOVQ	AX, DX
	0x08fe 02302 (/usr/local/go/test/codegen/mapaccess.go:451)	MOVQ	DI, AX
	0x0901 02305 (/usr/local/go/test/codegen/mapaccess.go:451)	JMP	233
	0x0906 02310 (/usr/local/go/test/codegen/mapaccess.go:451)	PCDATA	$0, $-2
	0x0906 02310 (/usr/local/go/test/codegen/mapaccess.go:451)	CALL	runtime.gcWriteBarrier(SB)
	0x090b 02315 (/usr/local/go/test/codegen/mapaccess.go:451)	JMP	2299
	0x090d 02317 (/usr/local/go/test/codegen/mapaccess.go:473)	PCDATA	$0, $-1
	0x090d 02317 (/usr/local/go/test/codegen/mapaccess.go:473)	MOVL	$4, AX
	0x0912 02322 (/usr/local/go/test/codegen/mapaccess.go:473)	MOVQ	DX, CX
	0x0915 02325 (/usr/local/go/test/codegen/mapaccess.go:473)	PCDATA	$1, $0
	0x0915 02325 (/usr/local/go/test/codegen/mapaccess.go:473)	CALL	runtime.panicSliceB(SB)
	0x091a 02330 (/usr/local/go/test/codegen/mapaccess.go:465)	MOVQ	CX, AX
	0x091d 02333 (/usr/local/go/test/codegen/mapaccess.go:465)	MOVQ	SI, CX
	0x0920 02336 (/usr/local/go/test/codegen/mapaccess.go:465)	CALL	runtime.panicSliceB(SB)
	0x0925 02341 (/usr/local/go/test/codegen/mapaccess.go:465)	XCHGL	AX, AX
	0x0926 02342 (/usr/local/go/test/codegen/mapaccess.go:465)	NOP
	0x0926 02342 (/usr/local/go/test/codegen/mapaccess.go:443)	PCDATA	$1, $-1
	0x0926 02342 (/usr/local/go/test/codegen/mapaccess.go:443)	PCDATA	$0, $-2
	0x0926 02342 (/usr/local/go/test/codegen/mapaccess.go:443)	CALL	runtime.morestack_noctxt(SB)
	0x092b 02347 (/usr/local/go/test/codegen/mapaccess.go:443)	PCDATA	$0, $-1
	0x092b 02347 (/usr/local/go/test/codegen/mapaccess.go:443)	JMP	0
	0x0000 64 48 8b 0c 25 00 00 00 00 48 8d 84 24 70 fe ff  dH..%....H..$p..
	0x0010 ff 48 3b 41 10 0f 86 0b 09 00 00 48 81 ec 10 02  .H;A.......H....
	0x0020 00 00 48 89 ac 24 08 02 00 00 48 8d ac 24 08 02  ..H..$....H..$..
	0x0030 00 00 0f 57 c0 0f 11 84 24 88 00 00 00 0f 11 84  ...W....$.......
	0x0040 24 98 00 00 00 0f 11 84 24 a8 00 00 00 48 8d bc  $.......$....H..
	0x0050 24 b8 00 00 00 48 8d 7f d0 0f 1f 80 00 00 00 00  $....H..........
	0x0060 48 89 6c 24 f0 48 8d 6c 24 f0 e8 00 00 00 00 48  H.l$.H.l$......H
	0x0070 8b 6d 00 48 8d 84 24 b8 00 00 00 48 89 84 24 98  .m.H..$....H..$.
	0x0080 00 00 00 e8 00 00 00 00 8b 04 24 89 84 24 94 00  ..........$..$..
	0x0090 00 00 48 8d 05 00 00 00 00 48 89 04 24 48 8d 8c  ..H......H..$H..
	0x00a0 24 88 00 00 00 48 89 4c 24 08 48 8d 15 00 00 00  $....H.L$.H.....
	0x00b0 00 48 89 54 24 10 48 c7 44 24 18 03 00 00 00 90  .H.T$.H.D$......
	0x00c0 e8 00 00 00 00 48 8b 44 24 20 48 8b 48 08 48 8b  .....H.D$ H.H.H.
	0x00d0 10 48 8b 58 10 48 8d 71 01 0f 1f 80 00 00 00 00  .H.X.H.q........
	0x00e0 48 39 de 0f 87 c5 07 00 00 48 8d 59 01 48 89 58  H9.......H.Y.H.X
	0x00f0 08 48 c1 e1 04 48 c7 44 0a 08 01 00 00 00 48 8d  .H...H.D......H.
	0x0100 3c 0a 83 3d 00 00 00 00 00 0f 85 8e 07 00 00 48  <..=...........H
	0x0110 8d 05 00 00 00 00 48 89 04 0a 48 8d 05 00 00 00  ......H...H.....
	0x0120 00 48 89 04 24 48 8d 8c 24 88 00 00 00 48 89 4c  .H..$H..$....H.L
	0x0130 24 08 48 8d 15 00 00 00 00 48 89 54 24 10 48 c7  $.H......H.T$.H.
	0x0140 44 24 18 03 00 00 00 e8 00 00 00 00 48 8b 44 24  D$..........H.D$
	0x0150 20 48 8b 48 08 48 8b 10 48 8b 58 10 48 8d 71 03   H.H.H..H.X.H.q.
	0x0160 48 39 de 0f 87 d5 06 00 00 48 8d 59 03 48 89 58  H9.......H.Y.H.X
	0x0170 08 48 c1 e1 04 48 c7 44 0a 08 01 00 00 00 48 8d  .H...H.D......H.
	0x0180 3c 0a 48 8d 04 0a 48 8d 40 10 48 8d 1c 0a 48 8d  <.H...H.@.H...H.
	0x0190 5b 20 83 3d 00 00 00 00 00 0f 85 8e 06 00 00 48  [ .=...........H
	0x01a0 8d 35 00 00 00 00 48 89 34 0a 48 c7 44 0a 18 01  .5....H.4.H.D...
	0x01b0 00 00 00 83 3d 00 00 00 00 00 66 0f 1f 44 00 00  ....=.....f..D..
	0x01c0 0f 85 53 06 00 00 48 8d 05 00 00 00 00 48 89 44  ..S...H......H.D
	0x01d0 0a 10 48 c7 44 0a 28 01 00 00 00 83 3d 00 00 00  ..H.D.(.....=...
	0x01e0 00 00 0f 85 1d 06 00 00 48 8d 05 00 00 00 00 48  ........H......H
	0x01f0 89 44 0a 20 48 8d 05 00 00 00 00 48 89 04 24 90  .D. H......H..$.
	0x0200 e8 00 00 00 00 48 8b 44 24 08 48 89 84 24 80 00  .....H.D$.H..$..
	0x0210 00 00 48 c7 40 08 01 00 00 00 48 8d 0d 00 00 00  ..H.@.....H.....
	0x0220 00 48 89 08 48 c7 40 18 01 00 00 00 48 8d 0d 00  .H..H.@.....H...
	0x0230 00 00 00 48 89 48 10 48 c7 40 28 01 00 00 00 48  ...H.H.H.@(....H
	0x0240 8d 0d 00 00 00 00 48 89 48 20 48 c7 40 38 01 00  ......H.H H.@8..
	0x0250 00 00 48 8d 0d 00 00 00 00 48 89 48 30 48 8d 0d  ..H......H.H0H..
	0x0260 00 00 00 00 48 89 0c 24 48 8d 94 24 88 00 00 00  ....H..$H..$....
	0x0270 48 89 54 24 08 48 8d 1d 00 00 00 00 48 89 5c 24  H.T$.H......H.\$
	0x0280 10 48 c7 44 24 18 03 00 00 00 e8 00 00 00 00 48  .H.D$..........H
	0x0290 8b 44 24 20 48 89 44 24 78 48 8b 48 08 48 8b 50  .D$ H.D$xH.H.H.P
	0x02a0 10 48 8b 18 48 8d 71 04 48 89 74 24 48 48 39 d6  .H..H.q.H.t$HH9.
	0x02b0 0f 87 03 05 00 00 48 39 ce 0f 82 5b 06 00 00 48  ......H9...[...H
	0x02c0 89 5c 24 70 48 89 54 24 40 48 8d 05 00 00 00 00  .\$pH.T$@H......
	0x02d0 48 89 04 24 48 89 ce 48 29 d1 48 c1 e6 04 48 c1  H..$H..H).H...H.
	0x02e0 f9 3f 48 21 f1 48 01 d9 48 89 4c 24 08 48 c7 44  .?H!.H..H.L$.H.D
	0x02f0 24 10 04 00 00 00 48 8b 8c 24 80 00 00 00 48 89  $.....H..$....H.
	0x0300 4c 24 18 48 c7 44 24 20 04 00 00 00 e8 00 00 00  L$.H.D$ ........
	0x0310 00 48 8b 44 24 48 48 8b 7c 24 78 48 89 47 08 48  .H.D$HH.|$xH.G.H
	0x0320 8b 44 24 40 48 89 47 10 83 3d 00 00 00 00 00 0f  .D$@H.G..=......
	0x0330 85 75 04 00 00 48 8b 44 24 70 48 89 07 48 8d 05  .u...H.D$pH..H..
	0x0340 00 00 00 00 48 89 04 24 48 8d 8c 24 88 00 00 00  ....H..$H..$....
	0x0350 48 89 4c 24 08 48 8d 15 00 00 00 00 48 89 54 24  H.L$.H......H.T$
	0x0360 10 48 c7 44 24 18 03 00 00 00 e8 00 00 00 00 48  .H.D$..........H
	0x0370 8b 44 24 20 48 8b 48 08 48 8d 51 04 48 89 54 24  .D$ H.H.H.Q.H.T$
	0x0380 48 48 8b 00 48 83 fa 04 0f 87 bc 03 00 00 48 8b  HH..H.........H.
	0x0390 9c 24 80 00 00 00 be 04 00 00 00 0f 1f 44 00 00  .$...........D..
	0x03a0 0f 82 67 05 00 00 48 89 74 24 40 48 89 5c 24 70  ..g...H.t$@H.\$p
	0x03b0 48 8d 15 00 00 00 00 48 89 14 24 48 8d 7e fc 48  H......H..$H.~.H
	0x03c0 f7 df 48 c1 ff 3f 48 83 e7 40 48 01 df 48 89 7c  ..H..?H..@H..H.|
	0x03d0 24 08 48 89 4c 24 10 48 89 44 24 18 48 89 4c 24  $.H.L$.H.D$.H.L$
	0x03e0 20 e8 00 00 00 00 48 8d 05 00 00 00 00 48 89 04   .....H......H..
	0x03f0 24 48 8d 8c 24 88 00 00 00 48 89 4c 24 08 48 8d  $H..$....H.L$.H.
	0x0400 15 00 00 00 00 48 89 54 24 10 48 c7 44 24 18 03  .....H.T$.H.D$..
	0x0410 00 00 00 e8 00 00 00 00 48 8b 7c 24 20 48 8b 44  ........H.|$ H.D
	0x0420 24 48 48 89 47 08 48 8b 44 24 40 48 89 47 10 83  $HH.G.H.D$@H.G..
	0x0430 3d 00 00 00 00 00 0f 85 fa 02 00 00 48 8b 44 24  =...........H.D$
	0x0440 70 48 89 07 48 8d 05 00 00 00 00 48 89 04 24 48  pH..H......H..$H
	0x0450 8d 8c 24 88 00 00 00 48 89 4c 24 08 48 8d 15 00  ..$....H.L$.H...
	0x0460 00 00 00 48 89 54 24 10 48 c7 44 24 18 03 00 00  ...H.T$.H.D$....
	0x0470 00 e8 00 00 00 00 48 8b 44 24 20 48 8b 48 08 48  ......H.D$ H.H.H
	0x0480 8d 51 01 48 8b 58 10 48 8b 00 48 39 d3 0f 82 5d  .Q.H.X.H..H9...]
	0x0490 02 00 00 48 89 44 24 70 48 89 54 24 48 48 89 5c  ...H.D$pH.T$HH.\
	0x04a0 24 40 48 c1 e1 04 48 c7 44 08 08 02 00 00 00 48  $@H...H.D......H
	0x04b0 8d 3c 08 83 3d 00 00 00 00 00 66 0f 1f 44 00 00  .<..=.....f..D..
	0x04c0 0f 85 19 02 00 00 48 8d 35 00 00 00 00 48 89 34  ......H.5....H.4
	0x04d0 08 0f b6 05 00 00 00 00 83 f0 01 88 05 00 00 00  ................
	0x04e0 00 48 8d 05 00 00 00 00 48 89 04 24 48 8d 8c 24  .H......H..$H..$
	0x04f0 88 00 00 00 48 89 4c 24 08 48 8d 15 00 00 00 00  ....H.L$.H......
	0x0500 48 89 54 24 10 48 c7 44 24 18 03 00 00 00 e8 00  H.T$.H.D$.......
	0x0510 00 00 00 48 8b 7c 24 20 48 8b 44 24 48 48 89 47  ...H.|$ H.D$HH.G
	0x0520 08 48 8b 44 24 40 48 89 47 10 83 3d 00 00 00 00  .H.D$@H.G..=....
	0x0530 00 0f 85 99 01 00 00 48 8b 44 24 70 48 89 07 48  .......H.D$pH..H
	0x0540 8d 44 24 50 48 89 04 24 48 8d 05 00 00 00 00 48  .D$PH..$H......H
	0x0550 89 44 24 08 48 c7 44 24 10 03 00 00 00 48 8d 0d  .D$.H.D$.....H..
	0x0560 00 00 00 00 48 89 4c 24 18 48 c7 44 24 20 01 00  ....H.L$.H.D$ ..
	0x0570 00 00 e8 00 00 00 00 48 8b 44 24 28 48 8b 4c 24  .......H.D$(H.L$
	0x0580 30 48 8d 15 00 00 00 00 48 89 14 24 48 8d 9c 24  0H......H..$H..$
	0x0590 88 00 00 00 48 89 5c 24 08 48 89 44 24 10 48 89  ....H.\$.H.D$.H.
	0x05a0 4c 24 18 e8 00 00 00 00 48 8b 44 24 20 48 8b 48  L$......H.D$ H.H
	0x05b0 08 48 8d 51 01 48 8b 58 10 48 8b 00 0f 1f 40 00  .H.Q.H.X.H....@.
	0x05c0 48 39 da 0f 87 c1 00 00 00 48 89 44 24 70 48 89  H9.......H.D$pH.
	0x05d0 54 24 48 48 89 5c 24 40 48 c1 e1 04 48 c7 44 08  T$HH.\$@H...H.D.
	0x05e0 08 03 00 00 00 48 8d 3c 08 83 3d 00 00 00 00 00  .....H.<..=.....
	0x05f0 0f 85 81 00 00 00 48 8d 35 00 00 00 00 48 89 34  ......H.5....H.4
	0x0600 08 48 8d 05 00 00 00 00 48 89 04 24 48 8d 84 24  .H......H..$H..$
	0x0610 88 00 00 00 48 89 44 24 08 48 8d 05 00 00 00 00  ....H.D$.H......
	0x0620 48 89 44 24 10 48 c7 44 24 18 03 00 00 00 e8 00  H.D$.H.D$.......
	0x0630 00 00 00 48 8b 7c 24 20 48 8b 44 24 48 48 89 47  ...H.|$ H.D$HH.G
	0x0640 08 48 8b 44 24 40 48 89 47 10 83 3d 00 00 00 00  .H.D$@H.G..=....
	0x0650 00 75 18 48 8b 44 24 70 48 89 07 48 8b ac 24 08  .u.H.D$pH..H..$.
	0x0660 02 00 00 48 81 c4 10 02 00 00 c3 48 8b 44 24 70  ...H.......H.D$p
	0x0670 e8 00 00 00 00 eb e4 48 8d 0d 00 00 00 00 66 90  .......H......f.
	0x0680 e8 00 00 00 00 e9 77 ff ff ff 48 89 4c 24 48 48  ......w...H.L$HH
	0x0690 8d 35 00 00 00 00 48 89 34 24 48 89 44 24 08 48  .5....H.4$H.D$.H
	0x06a0 89 4c 24 10 48 89 5c 24 18 48 89 54 24 20 e8 00  .L$.H.\$.H.T$ ..
	0x06b0 00 00 00 48 8b 44 24 28 48 8b 4c 24 30 48 8b 5c  ...H.D$(H.L$0H.\
	0x06c0 24 38 48 8d 51 01 48 8b 4c 24 48 e9 f9 fe ff ff  $8H.Q.H.L$H.....
	0x06d0 48 8b 44 24 70 e8 00 00 00 00 e9 60 fe ff ff 48  H.D$p......`...H
	0x06e0 8d 0d 00 00 00 00 e8 00 00 00 00 e9 e1 fd ff ff  ................
	0x06f0 48 89 4c 24 48 48 8d 35 00 00 00 00 48 89 34 24  H.L$HH.5....H.4$
	0x0700 48 89 44 24 08 48 89 4c 24 10 48 89 5c 24 18 48  H.D$.H.L$.H.\$.H
	0x0710 89 54 24 20 e8 00 00 00 00 48 8b 44 24 28 48 8b  .T$ .....H.D$(H.
	0x0720 4c 24 30 48 8b 5c 24 38 48 8d 51 01 48 8b 4c 24  L$0H.\$8H.Q.H.L$
	0x0730 48 e9 5d fd ff ff 48 8b 44 24 70 0f 1f 44 00 00  H.]...H.D$p..D..
	0x0740 e8 00 00 00 00 e9 fa fc ff ff 48 89 4c 24 40 48  ..........H.L$@H
	0x0750 89 44 24 70 48 8d 05 00 00 00 00 48 89 04 24 48  .D$pH......H..$H
	0x0760 8b 8c 24 80 00 00 00 48 89 4c 24 08 48 c7 44 24  ..$....H.L$.H.D$
	0x0770 10 04 00 00 00 48 c7 44 24 18 04 00 00 00 48 89  .....H.D$.....H.
	0x0780 54 24 20 e8 00 00 00 00 48 8b 5c 24 28 48 8b 74  T$ .....H.\$(H.t
	0x0790 24 38 48 8b 54 24 48 48 83 fa 04 48 8b 44 24 70  $8H.T$HH...H.D$p
	0x07a0 48 8b 4c 24 40 e9 f1 fb ff ff 48 8b 44 24 70 e8  H.L$@.....H.D$p.
	0x07b0 00 00 00 00 e9 84 fb ff ff 48 89 4c 24 40 48 8d  .........H.L$@H.
	0x07c0 05 00 00 00 00 48 89 04 24 48 89 5c 24 08 48 89  .....H..$H.\$.H.
	0x07d0 4c 24 10 48 89 54 24 18 48 89 74 24 20 0f 1f 00  L$.H.T$.H.t$ ...
	0x07e0 e8 00 00 00 00 48 8b 5c 24 28 48 8b 54 24 38 48  .....H.\$(H.T$8H
	0x07f0 8b 44 24 78 48 8b 4c 24 40 48 8b 74 24 48 66 90  .D$xH.L$@H.t$Hf.
	0x0800 e9 b1 fa ff ff 48 89 df 48 8d 05 00 00 00 00 e8  .....H..H.......
	0x0810 00 00 00 00 e9 db f9 ff ff 48 89 c7 4c 8d 05 00  .........H..L...
	0x0820 00 00 00 e8 00 00 00 00 e9 a5 f9 ff ff 48 8d 35  .............H.5
	0x0830 00 00 00 00 e8 00 00 00 00 e9 6c f9 ff ff 48 89  ..........l...H.
	0x0840 44 24 78 48 8d 05 00 00 00 00 48 89 04 24 48 89  D$xH......H..$H.
	0x0850 54 24 08 48 89 4c 24 10 48 89 5c 24 18 48 89 74  T$.H.L$.H.\$.H.t
	0x0860 24 20 e8 00 00 00 00 48 8b 44 24 28 48 8b 4c 24  $ .....H.D$(H.L$
	0x0870 30 48 8b 54 24 38 48 8b 7c 24 78 48 89 57 10 83  0H.T$8H.|$xH.W..
	0x0880 3d 00 00 00 00 00 75 0e 48 89 07 48 89 c2 48 89  =.....u.H..H..H.
	0x0890 f8 e9 d3 f8 ff ff e8 00 00 00 00 eb ee 48 8d 05  .............H..
	0x08a0 00 00 00 00 e8 00 00 00 00 e9 6c f8 ff ff 48 89  ..........l...H.
	0x08b0 44 24 78 48 8d 05 00 00 00 00 48 89 04 24 48 89  D$xH......H..$H.
	0x08c0 54 24 08 48 89 4c 24 10 48 89 5c 24 18 48 89 74  T$.H.L$.H.\$.H.t
	0x08d0 24 20 e8 00 00 00 00 48 8b 44 24 28 48 8b 4c 24  $ .....H.D$(H.L$
	0x08e0 30 48 8b 54 24 38 48 8b 7c 24 78 48 89 57 10 83  0H.T$8H.|$xH.W..
	0x08f0 3d 00 00 00 00 00 75 0e 48 89 07 48 89 c2 48 89  =.....u.H..H..H.
	0x0900 f8 e9 e3 f7 ff ff e8 00 00 00 00 eb ee b8 04 00  ................
	0x0910 00 00 48 89 d1 e8 00 00 00 00 48 89 c8 48 89 f1  ..H.......H..H..
	0x0920 e8 00 00 00 00 90 e8 00 00 00 00 e9 d0 f6 ff ff  ................
	rel 5+4 t=17 TLS+0
	rel 107+4 t=8 runtime.duffzero+201
	rel 132+4 t=8 runtime.fastrand+0
	rel 149+4 t=16 type.map[string][]string+0
	rel 173+4 t=16 go.string."key"+0
	rel 193+4 t=8 runtime.mapassign_faststr+0
	rel 260+4 t=16 runtime.writeBarrier+-1
	rel 274+4 t=16 go.string."1"+0
	rel 285+4 t=16 type.map[string][]string+0
	rel 309+4 t=16 go.string."key"+0
	rel 328+4 t=8 runtime.mapassign_faststr+0
	rel 404+4 t=16 runtime.writeBarrier+-1
	rel 418+4 t=16 go.string."1"+0
	rel 437+4 t=16 runtime.writeBarrier+-1
	rel 457+4 t=16 go.string."2"+0
	rel 477+4 t=16 runtime.writeBarrier+-1
	rel 491+4 t=16 go.string."3"+0
	rel 503+4 t=16 type.[4]string+0
	rel 513+4 t=8 runtime.newobject+0
	rel 541+4 t=16 go.string."7"+0
	rel 559+4 t=16 go.string."8"+0
	rel 578+4 t=16 go.string."9"+0
	rel 597+4 t=16 go.string."0"+0
	rel 608+4 t=16 type.map[string][]string+0
	rel 632+4 t=16 go.string."key"+0
	rel 651+4 t=8 runtime.mapassign_faststr+0
	rel 716+4 t=16 type.string+0
	rel 781+4 t=8 runtime.typedslicecopy+0
	rel 810+4 t=16 runtime.writeBarrier+-1
	rel 832+4 t=16 type.map[string][]string+0
	rel 856+4 t=16 go.string."key"+0
	rel 875+4 t=8 runtime.mapaccess1_faststr+0
	rel 947+4 t=16 type.string+0
	rel 994+4 t=8 runtime.typedslicecopy+0
	rel 1001+4 t=16 type.map[string][]string+0
	rel 1025+4 t=16 go.string."key"+0
	rel 1044+4 t=8 runtime.mapassign_faststr+0
	rel 1073+4 t=16 runtime.writeBarrier+-1
	rel 1095+4 t=16 type.map[string][]string+0
	rel 1119+4 t=16 go.string."key"+0
	rel 1138+4 t=8 runtime.mapaccess1_faststr+0
	rel 1205+4 t=16 runtime.writeBarrier+-1
	rel 1225+4 t=16 go.string."99"+0
	rel 1236+4 t=16 "".sinkAppend+0
	rel 1245+4 t=16 "".sinkAppend+0
	rel 1252+4 t=16 type.map[string][]string+0
	rel 1276+4 t=16 go.string."key"+0
	rel 1295+4 t=8 runtime.mapassign_faststr+0
	rel 1324+4 t=16 runtime.writeBarrier+-1
	rel 1355+4 t=16 go.string."key"+0
	rel 1376+4 t=16 go.string."1"+0
	rel 1395+4 t=8 runtime.concatstring2+0
	rel 1412+4 t=16 type.map[string][]string+0
	rel 1444+4 t=8 runtime.mapaccess1_faststr+0
	rel 1515+4 t=16 runtime.writeBarrier+-1
	rel 1529+4 t=16 go.string."100"+0
	rel 1540+4 t=16 type.map[string][]string+0
	rel 1564+4 t=16 go.string."key"+0
	rel 1583+4 t=8 runtime.mapassign_faststr+0
	rel 1612+4 t=16 runtime.writeBarrier+-1
	rel 1649+4 t=8 runtime.gcWriteBarrier+0
	rel 1658+4 t=16 go.string."100"+0
	rel 1665+4 t=8 runtime.gcWriteBarrierCX+0
	rel 1682+4 t=16 type.string+0
	rel 1711+4 t=8 runtime.growslice+0
	rel 1750+4 t=8 runtime.gcWriteBarrier+0
	rel 1762+4 t=16 go.string."99"+0
	rel 1767+4 t=8 runtime.gcWriteBarrierCX+0
	rel 1784+4 t=16 type.string+0
	rel 1813+4 t=8 runtime.growslice+0
	rel 1857+4 t=8 runtime.gcWriteBarrier+0
	rel 1879+4 t=16 type.string+0
	rel 1924+4 t=8 runtime.growslice+0
	rel 1968+4 t=8 runtime.gcWriteBarrier+0
	rel 1985+4 t=16 type.string+0
	rel 2017+4 t=8 runtime.growslice+0
	rel 2059+4 t=16 go.string."3"+0
	rel 2064+4 t=8 runtime.gcWriteBarrier+0
	rel 2079+4 t=16 go.string."2"+0
	rel 2084+4 t=8 runtime.gcWriteBarrierR8+0
	rel 2096+4 t=16 go.string."1"+0
	rel 2101+4 t=8 runtime.gcWriteBarrierSI+0
	rel 2118+4 t=16 type.string+0
	rel 2147+4 t=8 runtime.growslice+0
	rel 2177+4 t=16 runtime.writeBarrier+-1
	rel 2199+4 t=8 runtime.gcWriteBarrier+0
	rel 2208+4 t=16 go.string."1"+0
	rel 2213+4 t=8 runtime.gcWriteBarrier+0
	rel 2230+4 t=16 type.string+0
	rel 2259+4 t=8 runtime.growslice+0
	rel 2289+4 t=16 runtime.writeBarrier+-1
	rel 2311+4 t=8 runtime.gcWriteBarrier+0
	rel 2326+4 t=8 runtime.panicSliceB+0
	rel 2337+4 t=8 runtime.panicSliceB+0
	rel 2343+4 t=8 runtime.morestack_noctxt+0
type..eq.[4]complex128 STEXT dupok nosplit size=116 args=0x18 locals=0x0
	0x0000 00000 (<autogenerated>:1)	TEXT	type..eq.[4]complex128(SB), DUPOK|NOSPLIT|ABIInternal, $0-24
	0x0000 00000 (<autogenerated>:1)	FUNCDATA	$0, gclocals·dc9b0298814590ca3ffc3a889546fc8b(SB)
	0x0000 00000 (<autogenerated>:1)	FUNCDATA	$1, gclocals·69c1753bd5f81501d95132d08af04464(SB)
	0x0000 00000 (<autogenerated>:1)	MOVQ	"".p+8(SP), AX
	0x0005 00005 (<autogenerated>:1)	MOVQ	"".q+16(SP), CX
	0x000a 00010 (<autogenerated>:1)	XORL	DX, DX
	0x000c 00012 (<autogenerated>:1)	JMP	32
	0x000e 00014 (<autogenerated>:1)	LEAQ	1(BX), DX
	0x0012 00018 (<autogenerated>:1)	MOVQ	"".p+8(SP), BX
	0x0017 00023 (<autogenerated>:1)	MOVQ	BX, AX
	0x001a 00026 (<autogenerated>:1)	NOP
	0x0020 00032 (<autogenerated>:1)	CMPQ	DX, $4
	0x0024 00036 (<autogenerated>:1)	JGE	110
	0x0026 00038 (<autogenerated>:1)	MOVQ	DX, BX
	0x0029 00041 (<autogenerated>:1)	SHLQ	$4, DX
	0x002d 00045 (<autogenerated>:1)	MOVSD	(CX)(DX*1), X0
	0x0032 00050 (<autogenerated>:1)	MOVSD	(AX)(DX*1), X1
	0x0037 00055 (<autogenerated>:1)	UCOMISD	X0, X1
	0x003b 00059 (<autogenerated>:1)	SETEQ	SIB
	0x003f 00063 (<autogenerated>:1)	SETPC	AL
	0x0042 00066 (<autogenerated>:1)	ANDL	AX, SI
	0x0044 00068 (<autogenerated>:1)	MOVSD	8(CX)(DX*1), X0
	0x004a 00074 (<autogenerated>:1)	MOVQ	"".p+8(SP), AX
	0x004f 00079 (<autogenerated>:1)	MOVSD	8(AX)(DX*1), X1
	0x0055 00085 (<autogenerated>:1)	UCOMISD	X0, X1
	0x0059 00089 (<autogenerated>:1)	SETEQ	DL
	0x005c 00092 (<autogenerated>:1)	SETPC	AL
	0x005f 00095 (<autogenerated>:1)	ANDL	AX, DX
	0x0061 00097 (<autogenerated>:1)	ANDL	DX, SI
	0x0063 00099 (<autogenerated>:1)	TESTB	SIB, SIB
	0x0066 00102 (<autogenerated>:1)	JNE	14
	0x0068 00104 (<autogenerated>:1)	MOVB	$0, "".r+24(SP)
	0x006d 00109 (<autogenerated>:1)	RET
	0x006e 00110 (<autogenerated>:1)	MOVB	$1, "".r+24(SP)
	0x0073 00115 (<autogenerated>:1)	RET
	0x0000 48 8b 44 24 08 48 8b 4c 24 10 31 d2 eb 12 48 8d  H.D$.H.L$.1...H.
	0x0010 53 01 48 8b 5c 24 08 48 89 d8 66 0f 1f 44 00 00  S.H.\$.H..f..D..
	0x0020 48 83 fa 04 7d 48 48 89 d3 48 c1 e2 04 f2 0f 10  H...}HH..H......
	0x0030 04 11 f2 0f 10 0c 10 66 0f 2e c8 40 0f 94 c6 0f  .......f...@....
	0x0040 9b c0 21 c6 f2 0f 10 44 11 08 48 8b 44 24 08 f2  ..!....D..H.D$..
	0x0050 0f 10 4c 10 08 66 0f 2e c8 0f 94 c2 0f 9b c0 21  ..L..f.........!
	0x0060 c2 21 d6 40 84 f6 75 a6 c6 44 24 18 00 c3 c6 44  .!.@..u..D$....D
	0x0070 24 18 01 c3                                      $...
type..eq.[4]string STEXT dupok size=212 args=0x18 locals=0x30
	0x0000 00000 (<autogenerated>:1)	TEXT	type..eq.[4]string(SB), DUPOK|ABIInternal, $48-24
	0x0000 00000 (<autogenerated>:1)	MOVQ	(TLS), CX
	0x0009 00009 (<autogenerated>:1)	CMPQ	SP, 16(CX)
	0x000d 00013 (<autogenerated>:1)	PCDATA	$0, $-2
	0x000d 00013 (<autogenerated>:1)	JLS	202
	0x0013 00019 (<autogenerated>:1)	PCDATA	$0, $-1
	0x0013 00019 (<autogenerated>:1)	SUBQ	$48, SP
	0x0017 00023 (<autogenerated>:1)	MOVQ	BP, 40(SP)
	0x001c 00028 (<autogenerated>:1)	LEAQ	40(SP), BP
	0x0021 00033 (<autogenerated>:1)	FUNCDATA	$0, gclocals·dc9b0298814590ca3ffc3a889546fc8b(SB)
	0x0021 00033 (<autogenerated>:1)	FUNCDATA	$1, gclocals·69c1753bd5f81501d95132d08af04464(SB)
	0x0021 00033 (<autogenerated>:1)	MOVQ	"".p+56(SP), AX
	0x0026 00038 (<autogenerated>:1)	MOVQ	"".q+64(SP), CX
	0x002b 00043 (<autogenerated>:1)	XORL	DX, DX
	0x002d 00045 (<autogenerated>:1)	JMP	51
	0x002f 00047 (<autogenerated>:1)	LEAQ	1(BX), DX
	0x0033 00051 (<autogenerated>:1)	CMPQ	DX, $4
	0x0037 00055 (<autogenerated>:1)	JGE	94
	0x0039 00057 (<autogenerated>:1)	MOVQ	DX, BX
	0x003c 00060 (<autogenerated>:1)	SHLQ	$4, DX
	0x0040 00064 (<autogenerated>:1)	MOVQ	8(CX)(DX*1), SI
	0x0045 00069 (<autogenerated>:1)	MOVQ	8(AX)(DX*1), DX
	0x004a 00074 (<autogenerated>:1)	CMPQ	SI, DX
	0x004d 00077 (<autogenerated>:1)	JEQ	47
	0x004f 00079 (<autogenerated>:1)	MOVB	$0, "".r+72(SP)
	0x0054 00084 (<autogenerated>:1)	MOVQ	40(SP), BP
	0x0059 00089 (<autogenerated>:1)	ADDQ	$48, SP
	0x005d 00093 (<autogenerated>:1)	RET
	0x005e 00094 (<autogenerated>:1)	XORL	DX, DX
	0x0060 00096 (<autogenerated>:1)	JMP	117
	0x0062 00098 (<autogenerated>:1)	MOVQ	""..autotmp_10+32(SP), BX
	0x0067 00103 (<autogenerated>:1)	LEAQ	1(BX), DX
	0x006b 00107 (<autogenerated>:1)	MOVQ	"".p+56(SP), AX
	0x0070 00112 (<autogenerated>:1)	MOVQ	"".q+64(SP), CX
	0x0075 00117 (<autogenerated>:1)	CMPQ	DX, $4
	0x0079 00121 (<autogenerated>:1)	JGE	187
	0x007b 00123 (<autogenerated>:1)	MOVQ	DX, ""..autotmp_10+32(SP)
	0x0080 00128 (<autogenerated>:1)	SHLQ	$4, DX
	0x0084 00132 (<autogenerated>:1)	MOVQ	(CX)(DX*1), SI
	0x0088 00136 (<autogenerated>:1)	MOVQ	(AX)(DX*1), DI
	0x008c 00140 (<autogenerated>:1)	MOVQ	8(AX)(DX*1), DX
	0x0091 00145 (<autogenerated>:1)	MOVQ	DI, (SP)
	0x0095 00149 (<autogenerated>:1)	MOVQ	SI, 8(SP)
	0x009a 00154 (<autogenerated>:1)	MOVQ	DX, 16(SP)
	0x009f 00159 (<autogenerated>:1)	PCDATA	$1, $0
	0x009f 00159 (<autogenerated>:1)	NOP
	0x00a0 00160 (<autogenerated>:1)	CALL	runtime.memequal(SB)
	0x00a5 00165 (<autogenerated>:1)	CMPB	24(SP), $0
	0x00aa 00170 (<autogenerated>:1)	JNE	98
	0x00ac 00172 (<autogenerated>:1)	MOVB	$0, "".r+72(SP)
	0x00b1 00177 (<autogenerated>:1)	MOVQ	40(SP), BP
	0x00b6 00182 (<autogenerated>:1)	ADDQ	$48, SP
	0x00ba 00186 (<autogenerated>:1)	RET
	0x00bb 00187 (<autogenerated>:1)	MOVB	$1, "".r+72(SP)
	0x00c0 00192 (<autogenerated>:1)	MOVQ	40(SP), BP
	0x00c5 00197 (<autogenerated>:1)	ADDQ	$48, SP
	0x00c9 00201 (<autogenerated>:1)	RET
	0x00ca 00202 (<autogenerated>:1)	NOP
	0x00ca 00202 (<autogenerated>:1)	PCDATA	$1, $-1
	0x00ca 00202 (<autogenerated>:1)	PCDATA	$0, $-2
	0x00ca 00202 (<autogenerated>:1)	CALL	runtime.morestack_noctxt(SB)
	0x00cf 00207 (<autogenerated>:1)	PCDATA	$0, $-1
	0x00cf 00207 (<autogenerated>:1)	JMP	0
	0x0000 64 48 8b 0c 25 00 00 00 00 48 3b 61 10 0f 86 b7  dH..%....H;a....
	0x0010 00 00 00 48 83 ec 30 48 89 6c 24 28 48 8d 6c 24  ...H..0H.l$(H.l$
	0x0020 28 48 8b 44 24 38 48 8b 4c 24 40 31 d2 eb 04 48  (H.D$8H.L$@1...H
	0x0030 8d 53 01 48 83 fa 04 7d 25 48 89 d3 48 c1 e2 04  .S.H...}%H..H...
	0x0040 48 8b 74 11 08 48 8b 54 10 08 48 39 d6 74 e0 c6  H.t..H.T..H9.t..
	0x0050 44 24 48 00 48 8b 6c 24 28 48 83 c4 30 c3 31 d2  D$H.H.l$(H..0.1.
	0x0060 eb 13 48 8b 5c 24 20 48 8d 53 01 48 8b 44 24 38  ..H.\$ H.S.H.D$8
	0x0070 48 8b 4c 24 40 48 83 fa 04 7d 40 48 89 54 24 20  H.L$@H...}@H.T$ 
	0x0080 48 c1 e2 04 48 8b 34 11 48 8b 3c 10 48 8b 54 10  H...H.4.H.<.H.T.
	0x0090 08 48 89 3c 24 48 89 74 24 08 48 89 54 24 10 90  .H.<$H.t$.H.T$..
	0x00a0 e8 00 00 00 00 80 7c 24 18 00 75 b6 c6 44 24 48  ......|$..u..D$H
	0x00b0 00 48 8b 6c 24 28 48 83 c4 30 c3 c6 44 24 48 01  .H.l$(H..0..D$H.
	0x00c0 48 8b 6c 24 28 48 83 c4 30 c3 e8 00 00 00 00 e9  H.l$(H..0.......
	0x00d0 2c ff ff ff                                      ,...
	rel 5+4 t=17 TLS+0
	rel 161+4 t=8 runtime.memequal+0
	rel 203+4 t=8 runtime.morestack_noctxt+0
go.cuinfo.packagename.command-line-arguments SDWARFINFO dupok size=0
	0x0000 63 6f 64 65 67 65 6e                             codegen
runtime.memequal64·f SRODATA dupok size=8
	0x0000 00 00 00 00 00 00 00 00                          ........
	rel 0+8 t=1 runtime.memequal64+0
runtime.gcbits.01 SRODATA dupok size=1
	0x0000 01                                               .
type..namedata.*[]uint8- SRODATA dupok size=11
	0x0000 00 00 08 2a 5b 5d 75 69 6e 74 38                 ...*[]uint8
type.*[]uint8 SRODATA dupok size=56
	0x0000 08 00 00 00 00 00 00 00 08 00 00 00 00 00 00 00  ................
	0x0010 a5 8e d0 69 08 08 08 36 00 00 00 00 00 00 00 00  ...i...6........
	0x0020 00 00 00 00 00 00 00 00 00 00 00 00 00 00 00 00  ................
	0x0030 00 00 00 00 00 00 00 00                          ........
	rel 24+8 t=1 runtime.memequal64·f+0
	rel 32+8 t=1 runtime.gcbits.01+0
	rel 40+4 t=5 type..namedata.*[]uint8-+0
	rel 48+8 t=1 type.[]uint8+0
type.[]uint8 SRODATA dupok size=56
	0x0000 18 00 00 00 00 00 00 00 08 00 00 00 00 00 00 00  ................
	0x0010 df 7e 2e 38 02 08 08 17 00 00 00 00 00 00 00 00  .~.8............
	0x0020 00 00 00 00 00 00 00 00 00 00 00 00 00 00 00 00  ................
	0x0030 00 00 00 00 00 00 00 00                          ........
	rel 32+8 t=1 runtime.gcbits.01+0
	rel 40+4 t=5 type..namedata.*[]uint8-+0
	rel 44+4 t=6 type.*[]uint8+0
	rel 48+8 t=1 type.uint8+0
type..namedata.*[8]uint8- SRODATA dupok size=12
	0x0000 00 00 09 2a 5b 38 5d 75 69 6e 74 38              ...*[8]uint8
type.*[8]uint8 SRODATA dupok size=56
	0x0000 08 00 00 00 00 00 00 00 08 00 00 00 00 00 00 00  ................
	0x0010 a9 89 a5 7a 08 08 08 36 00 00 00 00 00 00 00 00  ...z...6........
	0x0020 00 00 00 00 00 00 00 00 00 00 00 00 00 00 00 00  ................
	0x0030 00 00 00 00 00 00 00 00                          ........
	rel 24+8 t=1 runtime.memequal64·f+0
	rel 32+8 t=1 runtime.gcbits.01+0
	rel 40+4 t=5 type..namedata.*[8]uint8-+0
	rel 48+8 t=1 type.[8]uint8+0
runtime.gcbits. SRODATA dupok size=0
type.[8]uint8 SRODATA dupok size=72
	0x0000 08 00 00 00 00 00 00 00 00 00 00 00 00 00 00 00  ................
	0x0010 3e f9 30 b4 0a 01 01 11 00 00 00 00 00 00 00 00  >.0.............
	0x0020 00 00 00 00 00 00 00 00 00 00 00 00 00 00 00 00  ................
	0x0030 00 00 00 00 00 00 00 00 00 00 00 00 00 00 00 00  ................
	0x0040 08 00 00 00 00 00 00 00                          ........
	rel 24+8 t=1 runtime.memequal64·f+0
	rel 32+8 t=1 runtime.gcbits.+0
	rel 40+4 t=5 type..namedata.*[8]uint8-+0
	rel 44+4 t=6 type.*[8]uint8+0
	rel 48+8 t=1 type.uint8+0
	rel 56+8 t=1 type.[]uint8+0
type..namedata.*[]int8- SRODATA dupok size=10
	0x0000 00 00 07 2a 5b 5d 69 6e 74 38                    ...*[]int8
type.*[]int8 SRODATA dupok size=56
	0x0000 08 00 00 00 00 00 00 00 08 00 00 00 00 00 00 00  ................
	0x0010 79 41 cb 25 08 08 08 36 00 00 00 00 00 00 00 00  yA.%...6........
	0x0020 00 00 00 00 00 00 00 00 00 00 00 00 00 00 00 00  ................
	0x0030 00 00 00 00 00 00 00 00                          ........
	rel 24+8 t=1 runtime.memequal64·f+0
	rel 32+8 t=1 runtime.gcbits.01+0
	rel 40+4 t=5 type..namedata.*[]int8-+0
	rel 48+8 t=1 type.[]int8+0
type.[]int8 SRODATA dupok size=56
	0x0000 18 00 00 00 00 00 00 00 08 00 00 00 00 00 00 00  ................
	0x0010 62 1d c3 30 02 08 08 17 00 00 00 00 00 00 00 00  b..0............
	0x0020 00 00 00 00 00 00 00 00 00 00 00 00 00 00 00 00  ................
	0x0030 00 00 00 00 00 00 00 00                          ........
	rel 32+8 t=1 runtime.gcbits.01+0
	rel 40+4 t=5 type..namedata.*[]int8-+0
	rel 44+4 t=6 type.*[]int8+0
	rel 48+8 t=1 type.int8+0
type..namedata.*[8]int8- SRODATA dupok size=11
	0x0000 00 00 08 2a 5b 38 5d 69 6e 74 38                 ...*[8]int8
type.*[8]int8 SRODATA dupok size=56
	0x0000 08 00 00 00 00 00 00 00 08 00 00 00 00 00 00 00  ................
	0x0010 22 15 da 66 08 08 08 36 00 00 00 00 00 00 00 00  "..f...6........
	0x0020 00 00 00 00 00 00 00 00 00 00 00 00 00 00 00 00  ................
	0x0030 00 00 00 00 00 00 00 00                          ........
	rel 24+8 t=1 runtime.memequal64·f+0
	rel 32+8 t=1 runtime.gcbits.01+0
	rel 40+4 t=5 type..namedata.*[8]int8-+0
	rel 48+8 t=1 type.noalg.[8]int8+0
type.noalg.[8]int8 SRODATA dupok size=72
	0x0000 08 00 00 00 00 00 00 00 00 00 00 00 00 00 00 00  ................
	0x0010 ae 49 d9 71 02 01 01 11 00 00 00 00 00 00 00 00  .I.q............
	0x0020 00 00 00 00 00 00 00 00 00 00 00 00 00 00 00 00  ................
	0x0030 00 00 00 00 00 00 00 00 00 00 00 00 00 00 00 00  ................
	0x0040 08 00 00 00 00 00 00 00                          ........
	rel 32+8 t=1 runtime.gcbits.+0
	rel 40+4 t=5 type..namedata.*[8]int8-+0
	rel 44+4 t=6 type.*[8]int8+0
	rel 48+8 t=1 type.int8+0
	rel 56+8 t=1 type.[]int8+0
type..namedata.*map.bucket[int8]int8- SRODATA dupok size=24
	0x0000 00 00 15 2a 6d 61 70 2e 62 75 63 6b 65 74 5b 69  ...*map.bucket[i
	0x0010 6e 74 38 5d 69 6e 74 38                          nt8]int8
type..importpath.. SRODATA dupok size=3
	0x0000 00 00 00                                         ...
type..namedata.topbits- SRODATA dupok size=10
	0x0000 00 00 07 74 6f 70 62 69 74 73                    ...topbits
type..namedata.keys- SRODATA dupok size=7
	0x0000 00 00 04 6b 65 79 73                             ...keys
type..namedata.elems- SRODATA dupok size=8
	0x0000 00 00 05 65 6c 65 6d 73                          ...elems
type..namedata.overflow- SRODATA dupok size=11
	0x0000 00 00 08 6f 76 65 72 66 6c 6f 77                 ...overflow
type.noalg.map.bucket[int8]int8 SRODATA dupok size=176
	0x0000 20 00 00 00 00 00 00 00 00 00 00 00 00 00 00 00   ...............
	0x0010 bc 99 41 ba 02 08 08 19 00 00 00 00 00 00 00 00  ..A.............
	0x0020 00 00 00 00 00 00 00 00 00 00 00 00 00 00 00 00  ................
	0x0030 00 00 00 00 00 00 00 00 00 00 00 00 00 00 00 00  ................
	0x0040 04 00 00 00 00 00 00 00 04 00 00 00 00 00 00 00  ................
	0x0050 00 00 00 00 00 00 00 00 00 00 00 00 00 00 00 00  ................
	0x0060 00 00 00 00 00 00 00 00 00 00 00 00 00 00 00 00  ................
	0x0070 00 00 00 00 00 00 00 00 10 00 00 00 00 00 00 00  ................
	0x0080 00 00 00 00 00 00 00 00 00 00 00 00 00 00 00 00  ................
	0x0090 20 00 00 00 00 00 00 00 00 00 00 00 00 00 00 00   ...............
	0x00a0 00 00 00 00 00 00 00 00 30 00 00 00 00 00 00 00  ........0.......
	rel 32+8 t=1 runtime.gcbits.+0
	rel 40+4 t=5 type..namedata.*map.bucket[int8]int8-+0
	rel 44+4 t=6 type.*map.bucket[int8]int8+0
	rel 48+8 t=1 type..importpath..+0
	rel 56+8 t=1 type.noalg.map.bucket[int8]int8+80
	rel 80+8 t=1 type..namedata.topbits-+0
	rel 88+8 t=1 type.[8]uint8+0
	rel 104+8 t=1 type..namedata.keys-+0
	rel 112+8 t=1 type.noalg.[8]int8+0
	rel 128+8 t=1 type..namedata.elems-+0
	rel 136+8 t=1 type.noalg.[8]int8+0
	rel 152+8 t=1 type..namedata.overflow-+0
	rel 160+8 t=1 type.uintptr+0
type.*map.bucket[int8]int8 SRODATA dupok size=56
	0x0000 08 00 00 00 00 00 00 00 08 00 00 00 00 00 00 00  ................
	0x0010 d9 8b 9d ba 08 08 08 36 00 00 00 00 00 00 00 00  .......6........
	0x0020 00 00 00 00 00 00 00 00 00 00 00 00 00 00 00 00  ................
	0x0030 00 00 00 00 00 00 00 00                          ........
	rel 24+8 t=1 runtime.memequal64·f+0
	rel 32+8 t=1 runtime.gcbits.01+0
	rel 40+4 t=5 type..namedata.*map.bucket[int8]int8-+0
	rel 48+8 t=1 type.noalg.map.bucket[int8]int8+0
type..namedata.*map.hdr[int8]int8- SRODATA dupok size=21
	0x0000 00 00 12 2a 6d 61 70 2e 68 64 72 5b 69 6e 74 38  ...*map.hdr[int8
	0x0010 5d 69 6e 74 38                                   ]int8
type.*map.hdr[int8]int8 SRODATA dupok size=56
	0x0000 08 00 00 00 00 00 00 00 08 00 00 00 00 00 00 00  ................
	0x0010 04 dc 4b 10 08 08 08 36 00 00 00 00 00 00 00 00  ..K....6........
	0x0020 00 00 00 00 00 00 00 00 00 00 00 00 00 00 00 00  ................
	0x0030 00 00 00 00 00 00 00 00                          ........
	rel 24+8 t=1 runtime.memequal64·f+0
	rel 32+8 t=1 runtime.gcbits.01+0
	rel 40+4 t=5 type..namedata.*map.hdr[int8]int8-+0
	rel 48+8 t=1 type.noalg.map.hdr[int8]int8+0
runtime.gcbits.2c SRODATA dupok size=1
	0x0000 2c                                               ,
type..namedata.count- SRODATA dupok size=8
	0x0000 00 00 05 63 6f 75 6e 74                          ...count
type..namedata.flags- SRODATA dupok size=8
	0x0000 00 00 05 66 6c 61 67 73                          ...flags
type..namedata.B. SRODATA dupok size=4
	0x0000 01 00 01 42                                      ...B
type..namedata.noverflow- SRODATA dupok size=12
	0x0000 00 00 09 6e 6f 76 65 72 66 6c 6f 77              ...noverflow
type..namedata.hash0- SRODATA dupok size=8
	0x0000 00 00 05 68 61 73 68 30                          ...hash0
type..namedata.buckets- SRODATA dupok size=10
	0x0000 00 00 07 62 75 63 6b 65 74 73                    ...buckets
type..namedata.oldbuckets- SRODATA dupok size=13
	0x0000 00 00 0a 6f 6c 64 62 75 63 6b 65 74 73           ...oldbuckets
type..namedata.nevacuate- SRODATA dupok size=12
	0x0000 00 00 09 6e 65 76 61 63 75 61 74 65              ...nevacuate
type..namedata.extra- SRODATA dupok size=8
	0x0000 00 00 05 65 78 74 72 61                          ...extra
type.noalg.map.hdr[int8]int8 SRODATA dupok size=296
	0x0000 30 00 00 00 00 00 00 00 30 00 00 00 00 00 00 00  0.......0.......
	0x0010 82 50 9b ec 02 08 08 19 00 00 00 00 00 00 00 00  .P..............
	0x0020 00 00 00 00 00 00 00 00 00 00 00 00 00 00 00 00  ................
	0x0030 00 00 00 00 00 00 00 00 00 00 00 00 00 00 00 00  ................
	0x0040 09 00 00 00 00 00 00 00 09 00 00 00 00 00 00 00  ................
	0x0050 00 00 00 00 00 00 00 00 00 00 00 00 00 00 00 00  ................
	0x0060 00 00 00 00 00 00 00 00 00 00 00 00 00 00 00 00  ................
	0x0070 00 00 00 00 00 00 00 00 10 00 00 00 00 00 00 00  ................
	0x0080 00 00 00 00 00 00 00 00 00 00 00 00 00 00 00 00  ................
	0x0090 12 00 00 00 00 00 00 00 00 00 00 00 00 00 00 00  ................
	0x00a0 00 00 00 00 00 00 00 00 14 00 00 00 00 00 00 00  ................
	0x00b0 00 00 00 00 00 00 00 00 00 00 00 00 00 00 00 00  ................
	0x00c0 18 00 00 00 00 00 00 00 00 00 00 00 00 00 00 00  ................
	0x00d0 00 00 00 00 00 00 00 00 20 00 00 00 00 00 00 00  ........ .......
	0x00e0 00 00 00 00 00 00 00 00 00 00 00 00 00 00 00 00  ................
	0x00f0 30 00 00 00 00 00 00 00 00 00 00 00 00 00 00 00  0...............
	0x0100 00 00 00 00 00 00 00 00 40 00 00 00 00 00 00 00  ........@.......
	0x0110 00 00 00 00 00 00 00 00 00 00 00 00 00 00 00 00  ................
	0x0120 50 00 00 00 00 00 00 00                          P.......
	rel 32+8 t=1 runtime.gcbits.2c+0
	rel 40+4 t=5 type..namedata.*map.hdr[int8]int8-+0
	rel 44+4 t=6 type.*map.hdr[int8]int8+0
	rel 48+8 t=1 type..importpath..+0
	rel 56+8 t=1 type.noalg.map.hdr[int8]int8+80
	rel 80+8 t=1 type..namedata.count-+0
	rel 88+8 t=1 type.int+0
	rel 104+8 t=1 type..namedata.flags-+0
	rel 112+8 t=1 type.uint8+0
	rel 128+8 t=1 type..namedata.B.+0
	rel 136+8 t=1 type.uint8+0
	rel 152+8 t=1 type..namedata.noverflow-+0
	rel 160+8 t=1 type.uint16+0
	rel 176+8 t=1 type..namedata.hash0-+0
	rel 184+8 t=1 type.uint32+0
	rel 200+8 t=1 type..namedata.buckets-+0
	rel 208+8 t=1 type.*map.bucket[int8]int8+0
	rel 224+8 t=1 type..namedata.oldbuckets-+0
	rel 232+8 t=1 type.*map.bucket[int8]int8+0
	rel 248+8 t=1 type..namedata.nevacuate-+0
	rel 256+8 t=1 type.uintptr+0
	rel 272+8 t=1 type..namedata.extra-+0
	rel 280+8 t=1 type.unsafe.Pointer+0
type..namedata.*[]int32- SRODATA dupok size=11
	0x0000 00 00 08 2a 5b 5d 69 6e 74 33 32                 ...*[]int32
type.*[]int32 SRODATA dupok size=56
	0x0000 08 00 00 00 00 00 00 00 08 00 00 00 00 00 00 00  ................
	0x0010 5c 7e 6d 23 08 08 08 36 00 00 00 00 00 00 00 00  \~m#...6........
	0x0020 00 00 00 00 00 00 00 00 00 00 00 00 00 00 00 00  ................
	0x0030 00 00 00 00 00 00 00 00                          ........
	rel 24+8 t=1 runtime.memequal64·f+0
	rel 32+8 t=1 runtime.gcbits.01+0
	rel 40+4 t=5 type..namedata.*[]int32-+0
	rel 48+8 t=1 type.[]int32+0
type.[]int32 SRODATA dupok size=56
	0x0000 18 00 00 00 00 00 00 00 08 00 00 00 00 00 00 00  ................
	0x0010 16 2a 4d 73 02 08 08 17 00 00 00 00 00 00 00 00  .*Ms............
	0x0020 00 00 00 00 00 00 00 00 00 00 00 00 00 00 00 00  ................
	0x0030 00 00 00 00 00 00 00 00                          ........
	rel 32+8 t=1 runtime.gcbits.01+0
	rel 40+4 t=5 type..namedata.*[]int32-+0
	rel 44+4 t=6 type.*[]int32+0
	rel 48+8 t=1 type.int32+0
type..namedata.*[8]int32- SRODATA dupok size=12
	0x0000 00 00 09 2a 5b 38 5d 69 6e 74 33 32              ...*[8]int32
type.*[8]int32 SRODATA dupok size=56
	0x0000 08 00 00 00 00 00 00 00 08 00 00 00 00 00 00 00  ................
	0x0010 06 6d df 9e 08 08 08 36 00 00 00 00 00 00 00 00  .m.....6........
	0x0020 00 00 00 00 00 00 00 00 00 00 00 00 00 00 00 00  ................
	0x0030 00 00 00 00 00 00 00 00                          ........
	rel 24+8 t=1 runtime.memequal64·f+0
	rel 32+8 t=1 runtime.gcbits.01+0
	rel 40+4 t=5 type..namedata.*[8]int32-+0
	rel 48+8 t=1 type.noalg.[8]int32+0
type.noalg.[8]int32 SRODATA dupok size=72
	0x0000 20 00 00 00 00 00 00 00 00 00 00 00 00 00 00 00   ...............
	0x0010 35 6a bb db 02 04 04 11 00 00 00 00 00 00 00 00  5j..............
	0x0020 00 00 00 00 00 00 00 00 00 00 00 00 00 00 00 00  ................
	0x0030 00 00 00 00 00 00 00 00 00 00 00 00 00 00 00 00  ................
	0x0040 08 00 00 00 00 00 00 00                          ........
	rel 32+8 t=1 runtime.gcbits.+0
	rel 40+4 t=5 type..namedata.*[8]int32-+0
	rel 44+4 t=6 type.*[8]int32+0
	rel 48+8 t=1 type.int32+0
	rel 56+8 t=1 type.[]int32+0
type..namedata.*map.bucket[int32]int32- SRODATA dupok size=26
	0x0000 00 00 17 2a 6d 61 70 2e 62 75 63 6b 65 74 5b 69  ...*map.bucket[i
	0x0010 6e 74 33 32 5d 69 6e 74 33 32                    nt32]int32
type.noalg.map.bucket[int32]int32 SRODATA dupok size=176
	0x0000 50 00 00 00 00 00 00 00 00 00 00 00 00 00 00 00  P...............
	0x0010 16 b3 c8 91 02 08 08 19 00 00 00 00 00 00 00 00  ................
	0x0020 00 00 00 00 00 00 00 00 00 00 00 00 00 00 00 00  ................
	0x0030 00 00 00 00 00 00 00 00 00 00 00 00 00 00 00 00  ................
	0x0040 04 00 00 00 00 00 00 00 04 00 00 00 00 00 00 00  ................
	0x0050 00 00 00 00 00 00 00 00 00 00 00 00 00 00 00 00  ................
	0x0060 00 00 00 00 00 00 00 00 00 00 00 00 00 00 00 00  ................
	0x0070 00 00 00 00 00 00 00 00 10 00 00 00 00 00 00 00  ................
	0x0080 00 00 00 00 00 00 00 00 00 00 00 00 00 00 00 00  ................
	0x0090 50 00 00 00 00 00 00 00 00 00 00 00 00 00 00 00  P...............
	0x00a0 00 00 00 00 00 00 00 00 90 00 00 00 00 00 00 00  ................
	rel 32+8 t=1 runtime.gcbits.+0
	rel 40+4 t=5 type..namedata.*map.bucket[int32]int32-+0
	rel 44+4 t=6 type.*map.bucket[int32]int32+0
	rel 48+8 t=1 type..importpath..+0
	rel 56+8 t=1 type.noalg.map.bucket[int32]int32+80
	rel 80+8 t=1 type..namedata.topbits-+0
	rel 88+8 t=1 type.[8]uint8+0
	rel 104+8 t=1 type..namedata.keys-+0
	rel 112+8 t=1 type.noalg.[8]int32+0
	rel 128+8 t=1 type..namedata.elems-+0
	rel 136+8 t=1 type.noalg.[8]int32+0
	rel 152+8 t=1 type..namedata.overflow-+0
	rel 160+8 t=1 type.uintptr+0
type.*map.bucket[int32]int32 SRODATA dupok size=56
	0x0000 08 00 00 00 00 00 00 00 08 00 00 00 00 00 00 00  ................
	0x0010 3d c3 42 8a 08 08 08 36 00 00 00 00 00 00 00 00  =.B....6........
	0x0020 00 00 00 00 00 00 00 00 00 00 00 00 00 00 00 00  ................
	0x0030 00 00 00 00 00 00 00 00                          ........
	rel 24+8 t=1 runtime.memequal64·f+0
	rel 32+8 t=1 runtime.gcbits.01+0
	rel 40+4 t=5 type..namedata.*map.bucket[int32]int32-+0
	rel 48+8 t=1 type.noalg.map.bucket[int32]int32+0
type..namedata.*map.hdr[int32]int32- SRODATA dupok size=23
	0x0000 00 00 14 2a 6d 61 70 2e 68 64 72 5b 69 6e 74 33  ...*map.hdr[int3
	0x0010 32 5d 69 6e 74 33 32                             2]int32
type.*map.hdr[int32]int32 SRODATA dupok size=56
	0x0000 08 00 00 00 00 00 00 00 08 00 00 00 00 00 00 00  ................
	0x0010 2a 30 a5 ee 08 08 08 36 00 00 00 00 00 00 00 00  *0.....6........
	0x0020 00 00 00 00 00 00 00 00 00 00 00 00 00 00 00 00  ................
	0x0030 00 00 00 00 00 00 00 00                          ........
	rel 24+8 t=1 runtime.memequal64·f+0
	rel 32+8 t=1 runtime.gcbits.01+0
	rel 40+4 t=5 type..namedata.*map.hdr[int32]int32-+0
	rel 48+8 t=1 type.noalg.map.hdr[int32]int32+0
type.noalg.map.hdr[int32]int32 SRODATA dupok size=296
	0x0000 30 00 00 00 00 00 00 00 30 00 00 00 00 00 00 00  0.......0.......
	0x0010 11 f5 be 3b 02 08 08 19 00 00 00 00 00 00 00 00  ...;............
	0x0020 00 00 00 00 00 00 00 00 00 00 00 00 00 00 00 00  ................
	0x0030 00 00 00 00 00 00 00 00 00 00 00 00 00 00 00 00  ................
	0x0040 09 00 00 00 00 00 00 00 09 00 00 00 00 00 00 00  ................
	0x0050 00 00 00 00 00 00 00 00 00 00 00 00 00 00 00 00  ................
	0x0060 00 00 00 00 00 00 00 00 00 00 00 00 00 00 00 00  ................
	0x0070 00 00 00 00 00 00 00 00 10 00 00 00 00 00 00 00  ................
	0x0080 00 00 00 00 00 00 00 00 00 00 00 00 00 00 00 00  ................
	0x0090 12 00 00 00 00 00 00 00 00 00 00 00 00 00 00 00  ................
	0x00a0 00 00 00 00 00 00 00 00 14 00 00 00 00 00 00 00  ................
	0x00b0 00 00 00 00 00 00 00 00 00 00 00 00 00 00 00 00  ................
	0x00c0 18 00 00 00 00 00 00 00 00 00 00 00 00 00 00 00  ................
	0x00d0 00 00 00 00 00 00 00 00 20 00 00 00 00 00 00 00  ........ .......
	0x00e0 00 00 00 00 00 00 00 00 00 00 00 00 00 00 00 00  ................
	0x00f0 30 00 00 00 00 00 00 00 00 00 00 00 00 00 00 00  0...............
	0x0100 00 00 00 00 00 00 00 00 40 00 00 00 00 00 00 00  ........@.......
	0x0110 00 00 00 00 00 00 00 00 00 00 00 00 00 00 00 00  ................
	0x0120 50 00 00 00 00 00 00 00                          P.......
	rel 32+8 t=1 runtime.gcbits.2c+0
	rel 40+4 t=5 type..namedata.*map.hdr[int32]int32-+0
	rel 44+4 t=6 type.*map.hdr[int32]int32+0
	rel 48+8 t=1 type..importpath..+0
	rel 56+8 t=1 type.noalg.map.hdr[int32]int32+80
	rel 80+8 t=1 type..namedata.count-+0
	rel 88+8 t=1 type.int+0
	rel 104+8 t=1 type..namedata.flags-+0
	rel 112+8 t=1 type.uint8+0
	rel 128+8 t=1 type..namedata.B.+0
	rel 136+8 t=1 type.uint8+0
	rel 152+8 t=1 type..namedata.noverflow-+0
	rel 160+8 t=1 type.uint16+0
	rel 176+8 t=1 type..namedata.hash0-+0
	rel 184+8 t=1 type.uint32+0
	rel 200+8 t=1 type..namedata.buckets-+0
	rel 208+8 t=1 type.*map.bucket[int32]int32+0
	rel 224+8 t=1 type..namedata.oldbuckets-+0
	rel 232+8 t=1 type.*map.bucket[int32]int32+0
	rel 248+8 t=1 type..namedata.nevacuate-+0
	rel 256+8 t=1 type.uintptr+0
	rel 272+8 t=1 type..namedata.extra-+0
	rel 280+8 t=1 type.unsafe.Pointer+0
type..namedata.*[]int64- SRODATA dupok size=11
	0x0000 00 00 08 2a 5b 5d 69 6e 74 36 34                 ...*[]int64
type.*[]int64 SRODATA dupok size=56
	0x0000 08 00 00 00 00 00 00 00 08 00 00 00 00 00 00 00  ................
	0x0010 2c 4e ee 91 08 08 08 36 00 00 00 00 00 00 00 00  ,N.....6........
	0x0020 00 00 00 00 00 00 00 00 00 00 00 00 00 00 00 00  ................
	0x0030 00 00 00 00 00 00 00 00                          ........
	rel 24+8 t=1 runtime.memequal64·f+0
	rel 32+8 t=1 runtime.gcbits.01+0
	rel 40+4 t=5 type..namedata.*[]int64-+0
	rel 48+8 t=1 type.[]int64+0
type.[]int64 SRODATA dupok size=56
	0x0000 18 00 00 00 00 00 00 00 08 00 00 00 00 00 00 00  ................
	0x0010 96 8e 76 88 02 08 08 17 00 00 00 00 00 00 00 00  ..v.............
	0x0020 00 00 00 00 00 00 00 00 00 00 00 00 00 00 00 00  ................
	0x0030 00 00 00 00 00 00 00 00                          ........
	rel 32+8 t=1 runtime.gcbits.01+0
	rel 40+4 t=5 type..namedata.*[]int64-+0
	rel 44+4 t=6 type.*[]int64+0
	rel 48+8 t=1 type.int64+0
type..namedata.*[8]int64- SRODATA dupok size=12
	0x0000 00 00 09 2a 5b 38 5d 69 6e 74 36 34              ...*[8]int64
type.*[8]int64 SRODATA dupok size=56
	0x0000 08 00 00 00 00 00 00 00 08 00 00 00 00 00 00 00  ................
	0x0010 0b ad 55 e5 08 08 08 36 00 00 00 00 00 00 00 00  ..U....6........
	0x0020 00 00 00 00 00 00 00 00 00 00 00 00 00 00 00 00  ................
	0x0030 00 00 00 00 00 00 00 00                          ........
	rel 24+8 t=1 runtime.memequal64·f+0
	rel 32+8 t=1 runtime.gcbits.01+0
	rel 40+4 t=5 type..namedata.*[8]int64-+0
	rel 48+8 t=1 type.noalg.[8]int64+0
type.noalg.[8]int64 SRODATA dupok size=72
	0x0000 40 00 00 00 00 00 00 00 00 00 00 00 00 00 00 00  @...............
	0x0010 b5 a4 90 c4 02 08 08 11 00 00 00 00 00 00 00 00  ................
	0x0020 00 00 00 00 00 00 00 00 00 00 00 00 00 00 00 00  ................
	0x0030 00 00 00 00 00 00 00 00 00 00 00 00 00 00 00 00  ................
	0x0040 08 00 00 00 00 00 00 00                          ........
	rel 32+8 t=1 runtime.gcbits.+0
	rel 40+4 t=5 type..namedata.*[8]int64-+0
	rel 44+4 t=6 type.*[8]int64+0
	rel 48+8 t=1 type.int64+0
	rel 56+8 t=1 type.[]int64+0
type..namedata.*map.bucket[int64]int64- SRODATA dupok size=26
	0x0000 00 00 17 2a 6d 61 70 2e 62 75 63 6b 65 74 5b 69  ...*map.bucket[i
	0x0010 6e 74 36 34 5d 69 6e 74 36 34                    nt64]int64
type.noalg.map.bucket[int64]int64 SRODATA dupok size=176
	0x0000 90 00 00 00 00 00 00 00 00 00 00 00 00 00 00 00  ................
	0x0010 aa 76 6e fa 02 08 08 19 00 00 00 00 00 00 00 00  .vn.............
	0x0020 00 00 00 00 00 00 00 00 00 00 00 00 00 00 00 00  ................
	0x0030 00 00 00 00 00 00 00 00 00 00 00 00 00 00 00 00  ................
	0x0040 04 00 00 00 00 00 00 00 04 00 00 00 00 00 00 00  ................
	0x0050 00 00 00 00 00 00 00 00 00 00 00 00 00 00 00 00  ................
	0x0060 00 00 00 00 00 00 00 00 00 00 00 00 00 00 00 00  ................
	0x0070 00 00 00 00 00 00 00 00 10 00 00 00 00 00 00 00  ................
	0x0080 00 00 00 00 00 00 00 00 00 00 00 00 00 00 00 00  ................
	0x0090 90 00 00 00 00 00 00 00 00 00 00 00 00 00 00 00  ................
	0x00a0 00 00 00 00 00 00 00 00 10 01 00 00 00 00 00 00  ................
	rel 32+8 t=1 runtime.gcbits.+0
	rel 40+4 t=5 type..namedata.*map.bucket[int64]int64-+0
	rel 44+4 t=6 type.*map.bucket[int64]int64+0
	rel 48+8 t=1 type..importpath..+0
	rel 56+8 t=1 type.noalg.map.bucket[int64]int64+80
	rel 80+8 t=1 type..namedata.topbits-+0
	rel 88+8 t=1 type.[8]uint8+0
	rel 104+8 t=1 type..namedata.keys-+0
	rel 112+8 t=1 type.noalg.[8]int64+0
	rel 128+8 t=1 type..namedata.elems-+0
	rel 136+8 t=1 type.noalg.[8]int64+0
	rel 152+8 t=1 type..namedata.overflow-+0
	rel 160+8 t=1 type.uintptr+0
type.*map.bucket[int64]int64 SRODATA dupok size=56
	0x0000 08 00 00 00 00 00 00 00 08 00 00 00 00 00 00 00  ................
	0x0010 b7 c5 90 4e 08 08 08 36 00 00 00 00 00 00 00 00  ...N...6........
	0x0020 00 00 00 00 00 00 00 00 00 00 00 00 00 00 00 00  ................
	0x0030 00 00 00 00 00 00 00 00                          ........
	rel 24+8 t=1 runtime.memequal64·f+0
	rel 32+8 t=1 runtime.gcbits.01+0
	rel 40+4 t=5 type..namedata.*map.bucket[int64]int64-+0
	rel 48+8 t=1 type.noalg.map.bucket[int64]int64+0
type..namedata.*map.hdr[int64]int64- SRODATA dupok size=23
	0x0000 00 00 14 2a 6d 61 70 2e 68 64 72 5b 69 6e 74 36  ...*map.hdr[int6
	0x0010 34 5d 69 6e 74 36 34                             4]int64
type.*map.hdr[int64]int64 SRODATA dupok size=56
	0x0000 08 00 00 00 00 00 00 00 08 00 00 00 00 00 00 00  ................
	0x0010 08 b8 bb 8a 08 08 08 36 00 00 00 00 00 00 00 00  .......6........
	0x0020 00 00 00 00 00 00 00 00 00 00 00 00 00 00 00 00  ................
	0x0030 00 00 00 00 00 00 00 00                          ........
	rel 24+8 t=1 runtime.memequal64·f+0
	rel 32+8 t=1 runtime.gcbits.01+0
	rel 40+4 t=5 type..namedata.*map.hdr[int64]int64-+0
	rel 48+8 t=1 type.noalg.map.hdr[int64]int64+0
type.noalg.map.hdr[int64]int64 SRODATA dupok size=296
	0x0000 30 00 00 00 00 00 00 00 30 00 00 00 00 00 00 00  0.......0.......
	0x0010 5f 80 0d 6a 02 08 08 19 00 00 00 00 00 00 00 00  _..j............
	0x0020 00 00 00 00 00 00 00 00 00 00 00 00 00 00 00 00  ................
	0x0030 00 00 00 00 00 00 00 00 00 00 00 00 00 00 00 00  ................
	0x0040 09 00 00 00 00 00 00 00 09 00 00 00 00 00 00 00  ................
	0x0050 00 00 00 00 00 00 00 00 00 00 00 00 00 00 00 00  ................
	0x0060 00 00 00 00 00 00 00 00 00 00 00 00 00 00 00 00  ................
	0x0070 00 00 00 00 00 00 00 00 10 00 00 00 00 00 00 00  ................
	0x0080 00 00 00 00 00 00 00 00 00 00 00 00 00 00 00 00  ................
	0x0090 12 00 00 00 00 00 00 00 00 00 00 00 00 00 00 00  ................
	0x00a0 00 00 00 00 00 00 00 00 14 00 00 00 00 00 00 00  ................
	0x00b0 00 00 00 00 00 00 00 00 00 00 00 00 00 00 00 00  ................
	0x00c0 18 00 00 00 00 00 00 00 00 00 00 00 00 00 00 00  ................
	0x00d0 00 00 00 00 00 00 00 00 20 00 00 00 00 00 00 00  ........ .......
	0x00e0 00 00 00 00 00 00 00 00 00 00 00 00 00 00 00 00  ................
	0x00f0 30 00 00 00 00 00 00 00 00 00 00 00 00 00 00 00  0...............
	0x0100 00 00 00 00 00 00 00 00 40 00 00 00 00 00 00 00  ........@.......
	0x0110 00 00 00 00 00 00 00 00 00 00 00 00 00 00 00 00  ................
	0x0120 50 00 00 00 00 00 00 00                          P.......
	rel 32+8 t=1 runtime.gcbits.2c+0
	rel 40+4 t=5 type..namedata.*map.hdr[int64]int64-+0
	rel 44+4 t=6 type.*map.hdr[int64]int64+0
	rel 48+8 t=1 type..importpath..+0
	rel 56+8 t=1 type.noalg.map.hdr[int64]int64+80
	rel 80+8 t=1 type..namedata.count-+0
	rel 88+8 t=1 type.int+0
	rel 104+8 t=1 type..namedata.flags-+0
	rel 112+8 t=1 type.uint8+0
	rel 128+8 t=1 type..namedata.B.+0
	rel 136+8 t=1 type.uint8+0
	rel 152+8 t=1 type..namedata.noverflow-+0
	rel 160+8 t=1 type.uint16+0
	rel 176+8 t=1 type..namedata.hash0-+0
	rel 184+8 t=1 type.uint32+0
	rel 200+8 t=1 type..namedata.buckets-+0
	rel 208+8 t=1 type.*map.bucket[int64]int64+0
	rel 224+8 t=1 type..namedata.oldbuckets-+0
	rel 232+8 t=1 type.*map.bucket[int64]int64+0
	rel 248+8 t=1 type..namedata.nevacuate-+0
	rel 256+8 t=1 type.uintptr+0
	rel 272+8 t=1 type..namedata.extra-+0
	rel 280+8 t=1 type.unsafe.Pointer+0
type..namedata.*[]complex128- SRODATA dupok size=16
	0x0000 00 00 0d 2a 5b 5d 63 6f 6d 70 6c 65 78 31 32 38  ...*[]complex128
type.*[]complex128 SRODATA dupok size=56
	0x0000 08 00 00 00 00 00 00 00 08 00 00 00 00 00 00 00  ................
	0x0010 37 88 a8 2c 08 08 08 36 00 00 00 00 00 00 00 00  7..,...6........
	0x0020 00 00 00 00 00 00 00 00 00 00 00 00 00 00 00 00  ................
	0x0030 00 00 00 00 00 00 00 00                          ........
	rel 24+8 t=1 runtime.memequal64·f+0
	rel 32+8 t=1 runtime.gcbits.01+0
	rel 40+4 t=5 type..namedata.*[]complex128-+0
	rel 48+8 t=1 type.[]complex128+0
type.[]complex128 SRODATA dupok size=56
	0x0000 18 00 00 00 00 00 00 00 08 00 00 00 00 00 00 00  ................
	0x0010 31 fd c9 8a 02 08 08 17 00 00 00 00 00 00 00 00  1...............
	0x0020 00 00 00 00 00 00 00 00 00 00 00 00 00 00 00 00  ................
	0x0030 00 00 00 00 00 00 00 00                          ........
	rel 32+8 t=1 runtime.gcbits.01+0
	rel 40+4 t=5 type..namedata.*[]complex128-+0
	rel 44+4 t=6 type.*[]complex128+0
	rel 48+8 t=1 type.complex128+0
type..namedata.*[8]complex128- SRODATA dupok size=17
	0x0000 00 00 0e 2a 5b 38 5d 63 6f 6d 70 6c 65 78 31 32  ...*[8]complex12
	0x0010 38                                               8
type.*[8]complex128 SRODATA dupok size=56
	0x0000 08 00 00 00 00 00 00 00 08 00 00 00 00 00 00 00  ................
	0x0010 d4 b0 1d 72 08 08 08 36 00 00 00 00 00 00 00 00  ...r...6........
	0x0020 00 00 00 00 00 00 00 00 00 00 00 00 00 00 00 00  ................
	0x0030 00 00 00 00 00 00 00 00                          ........
	rel 24+8 t=1 runtime.memequal64·f+0
	rel 32+8 t=1 runtime.gcbits.01+0
	rel 40+4 t=5 type..namedata.*[8]complex128-+0
	rel 48+8 t=1 type.noalg.[8]complex128+0
type.noalg.[8]complex128 SRODATA dupok size=72
	0x0000 80 00 00 00 00 00 00 00 00 00 00 00 00 00 00 00  ................
	0x0010 b6 d1 bd 65 02 08 08 11 00 00 00 00 00 00 00 00  ...e............
	0x0020 00 00 00 00 00 00 00 00 00 00 00 00 00 00 00 00  ................
	0x0030 00 00 00 00 00 00 00 00 00 00 00 00 00 00 00 00  ................
	0x0040 08 00 00 00 00 00 00 00                          ........
	rel 32+8 t=1 runtime.gcbits.+0
	rel 40+4 t=5 type..namedata.*[8]complex128-+0
	rel 44+4 t=6 type.*[8]complex128+0
	rel 48+8 t=1 type.complex128+0
	rel 56+8 t=1 type.[]complex128+0
type..namedata.*map.bucket[complex128]complex128- SRODATA dupok size=36
	0x0000 00 00 21 2a 6d 61 70 2e 62 75 63 6b 65 74 5b 63  ..!*map.bucket[c
	0x0010 6f 6d 70 6c 65 78 31 32 38 5d 63 6f 6d 70 6c 65  omplex128]comple
	0x0020 78 31 32 38                                      x128
type.noalg.map.bucket[complex128]complex128 SRODATA dupok size=176
	0x0000 10 01 00 00 00 00 00 00 00 00 00 00 00 00 00 00  ................
	0x0010 ff 65 e8 f2 02 08 08 19 00 00 00 00 00 00 00 00  .e..............
	0x0020 00 00 00 00 00 00 00 00 00 00 00 00 00 00 00 00  ................
	0x0030 00 00 00 00 00 00 00 00 00 00 00 00 00 00 00 00  ................
	0x0040 04 00 00 00 00 00 00 00 04 00 00 00 00 00 00 00  ................
	0x0050 00 00 00 00 00 00 00 00 00 00 00 00 00 00 00 00  ................
	0x0060 00 00 00 00 00 00 00 00 00 00 00 00 00 00 00 00  ................
	0x0070 00 00 00 00 00 00 00 00 10 00 00 00 00 00 00 00  ................
	0x0080 00 00 00 00 00 00 00 00 00 00 00 00 00 00 00 00  ................
	0x0090 10 01 00 00 00 00 00 00 00 00 00 00 00 00 00 00  ................
	0x00a0 00 00 00 00 00 00 00 00 10 02 00 00 00 00 00 00  ................
	rel 32+8 t=1 runtime.gcbits.+0
	rel 40+4 t=5 type..namedata.*map.bucket[complex128]complex128-+0
	rel 44+4 t=6 type.*map.bucket[complex128]complex128+0
	rel 48+8 t=1 type..importpath..+0
	rel 56+8 t=1 type.noalg.map.bucket[complex128]complex128+80
	rel 80+8 t=1 type..namedata.topbits-+0
	rel 88+8 t=1 type.[8]uint8+0
	rel 104+8 t=1 type..namedata.keys-+0
	rel 112+8 t=1 type.noalg.[8]complex128+0
	rel 128+8 t=1 type..namedata.elems-+0
	rel 136+8 t=1 type.noalg.[8]complex128+0
	rel 152+8 t=1 type..namedata.overflow-+0
	rel 160+8 t=1 type.uintptr+0
type.*map.bucket[complex128]complex128 SRODATA dupok size=56
	0x0000 08 00 00 00 00 00 00 00 08 00 00 00 00 00 00 00  ................
	0x0010 ff 06 1b e5 08 08 08 36 00 00 00 00 00 00 00 00  .......6........
	0x0020 00 00 00 00 00 00 00 00 00 00 00 00 00 00 00 00  ................
	0x0030 00 00 00 00 00 00 00 00                          ........
	rel 24+8 t=1 runtime.memequal64·f+0
	rel 32+8 t=1 runtime.gcbits.01+0
	rel 40+4 t=5 type..namedata.*map.bucket[complex128]complex128-+0
	rel 48+8 t=1 type.noalg.map.bucket[complex128]complex128+0
type..namedata.*map.hdr[complex128]complex128- SRODATA dupok size=33
	0x0000 00 00 1e 2a 6d 61 70 2e 68 64 72 5b 63 6f 6d 70  ...*map.hdr[comp
	0x0010 6c 65 78 31 32 38 5d 63 6f 6d 70 6c 65 78 31 32  lex128]complex12
	0x0020 38                                               8
type.*map.hdr[complex128]complex128 SRODATA dupok size=56
	0x0000 08 00 00 00 00 00 00 00 08 00 00 00 00 00 00 00  ................
	0x0010 36 f3 f1 4c 08 08 08 36 00 00 00 00 00 00 00 00  6..L...6........
	0x0020 00 00 00 00 00 00 00 00 00 00 00 00 00 00 00 00  ................
	0x0030 00 00 00 00 00 00 00 00                          ........
	rel 24+8 t=1 runtime.memequal64·f+0
	rel 32+8 t=1 runtime.gcbits.01+0
	rel 40+4 t=5 type..namedata.*map.hdr[complex128]complex128-+0
	rel 48+8 t=1 type.noalg.map.hdr[complex128]complex128+0
type.noalg.map.hdr[complex128]complex128 SRODATA dupok size=296
	0x0000 30 00 00 00 00 00 00 00 30 00 00 00 00 00 00 00  0.......0.......
	0x0010 09 18 f0 f5 02 08 08 19 00 00 00 00 00 00 00 00  ................
	0x0020 00 00 00 00 00 00 00 00 00 00 00 00 00 00 00 00  ................
	0x0030 00 00 00 00 00 00 00 00 00 00 00 00 00 00 00 00  ................
	0x0040 09 00 00 00 00 00 00 00 09 00 00 00 00 00 00 00  ................
	0x0050 00 00 00 00 00 00 00 00 00 00 00 00 00 00 00 00  ................
	0x0060 00 00 00 00 00 00 00 00 00 00 00 00 00 00 00 00  ................
	0x0070 00 00 00 00 00 00 00 00 10 00 00 00 00 00 00 00  ................
	0x0080 00 00 00 00 00 00 00 00 00 00 00 00 00 00 00 00  ................
	0x0090 12 00 00 00 00 00 00 00 00 00 00 00 00 00 00 00  ................
	0x00a0 00 00 00 00 00 00 00 00 14 00 00 00 00 00 00 00  ................
	0x00b0 00 00 00 00 00 00 00 00 00 00 00 00 00 00 00 00  ................
	0x00c0 18 00 00 00 00 00 00 00 00 00 00 00 00 00 00 00  ................
	0x00d0 00 00 00 00 00 00 00 00 20 00 00 00 00 00 00 00  ........ .......
	0x00e0 00 00 00 00 00 00 00 00 00 00 00 00 00 00 00 00  ................
	0x00f0 30 00 00 00 00 00 00 00 00 00 00 00 00 00 00 00  0...............
	0x0100 00 00 00 00 00 00 00 00 40 00 00 00 00 00 00 00  ........@.......
	0x0110 00 00 00 00 00 00 00 00 00 00 00 00 00 00 00 00  ................
	0x0120 50 00 00 00 00 00 00 00                          P.......
	rel 32+8 t=1 runtime.gcbits.2c+0
	rel 40+4 t=5 type..namedata.*map.hdr[complex128]complex128-+0
	rel 44+4 t=6 type.*map.hdr[complex128]complex128+0
	rel 48+8 t=1 type..importpath..+0
	rel 56+8 t=1 type.noalg.map.hdr[complex128]complex128+80
	rel 80+8 t=1 type..namedata.count-+0
	rel 88+8 t=1 type.int+0
	rel 104+8 t=1 type..namedata.flags-+0
	rel 112+8 t=1 type.uint8+0
	rel 128+8 t=1 type..namedata.B.+0
	rel 136+8 t=1 type.uint8+0
	rel 152+8 t=1 type..namedata.noverflow-+0
	rel 160+8 t=1 type.uint16+0
	rel 176+8 t=1 type..namedata.hash0-+0
	rel 184+8 t=1 type.uint32+0
	rel 200+8 t=1 type..namedata.buckets-+0
	rel 208+8 t=1 type.*map.bucket[complex128]complex128+0
	rel 224+8 t=1 type..namedata.oldbuckets-+0
	rel 232+8 t=1 type.*map.bucket[complex128]complex128+0
	rel 248+8 t=1 type..namedata.nevacuate-+0
	rel 256+8 t=1 type.uintptr+0
	rel 272+8 t=1 type..namedata.extra-+0
	rel 280+8 t=1 type.unsafe.Pointer+0
go.string."key" SRODATA dupok size=3
	0x0000 6b 65 79                                         key
go.string."value" SRODATA dupok size=5
	0x0000 76 61 6c 75 65                                   value
type..namedata.*[]string- SRODATA dupok size=12
	0x0000 00 00 09 2a 5b 5d 73 74 72 69 6e 67              ...*[]string
type.*[]string SRODATA dupok size=56
	0x0000 08 00 00 00 00 00 00 00 08 00 00 00 00 00 00 00  ................
	0x0010 92 22 76 84 08 08 08 36 00 00 00 00 00 00 00 00  ."v....6........
	0x0020 00 00 00 00 00 00 00 00 00 00 00 00 00 00 00 00  ................
	0x0030 00 00 00 00 00 00 00 00                          ........
	rel 24+8 t=1 runtime.memequal64·f+0
	rel 32+8 t=1 runtime.gcbits.01+0
	rel 40+4 t=5 type..namedata.*[]string-+0
	rel 48+8 t=1 type.[]string+0
type.[]string SRODATA dupok size=56
	0x0000 18 00 00 00 00 00 00 00 08 00 00 00 00 00 00 00  ................
	0x0010 d3 a8 f3 0a 02 08 08 17 00 00 00 00 00 00 00 00  ................
	0x0020 00 00 00 00 00 00 00 00 00 00 00 00 00 00 00 00  ................
	0x0030 00 00 00 00 00 00 00 00                          ........
	rel 32+8 t=1 runtime.gcbits.01+0
	rel 40+4 t=5 type..namedata.*[]string-+0
	rel 44+4 t=6 type.*[]string+0
	rel 48+8 t=1 type.string+0
type..namedata.*[8]string- SRODATA dupok size=13
	0x0000 00 00 0a 2a 5b 38 5d 73 74 72 69 6e 67           ...*[8]string
type.*[8]string SRODATA dupok size=56
	0x0000 08 00 00 00 00 00 00 00 08 00 00 00 00 00 00 00  ................
	0x0010 ad 94 14 6f 08 08 08 36 00 00 00 00 00 00 00 00  ...o...6........
	0x0020 00 00 00 00 00 00 00 00 00 00 00 00 00 00 00 00  ................
	0x0030 00 00 00 00 00 00 00 00                          ........
	rel 24+8 t=1 runtime.memequal64·f+0
	rel 32+8 t=1 runtime.gcbits.01+0
	rel 40+4 t=5 type..namedata.*[8]string-+0
	rel 48+8 t=1 type.noalg.[8]string+0
runtime.gcbits.5555 SRODATA dupok size=2
	0x0000 55 55                                            UU
type.noalg.[8]string SRODATA dupok size=72
	0x0000 80 00 00 00 00 00 00 00 78 00 00 00 00 00 00 00  ........x.......
	0x0010 55 53 8c 3e 02 08 08 11 00 00 00 00 00 00 00 00  US.>............
	0x0020 00 00 00 00 00 00 00 00 00 00 00 00 00 00 00 00  ................
	0x0030 00 00 00 00 00 00 00 00 00 00 00 00 00 00 00 00  ................
	0x0040 08 00 00 00 00 00 00 00                          ........
	rel 32+8 t=1 runtime.gcbits.5555+0
	rel 40+4 t=5 type..namedata.*[8]string-+0
	rel 44+4 t=6 type.*[8]string+0
	rel 48+8 t=1 type.string+0
	rel 56+8 t=1 type.[]string+0
runtime.gcbits.aaaaaaaa02 SRODATA dupok size=5
	0x0000 aa aa aa aa 02                                   .....
type..namedata.*map.bucket[string]string- SRODATA dupok size=28
	0x0000 00 00 19 2a 6d 61 70 2e 62 75 63 6b 65 74 5b 73  ...*map.bucket[s
	0x0010 74 72 69 6e 67 5d 73 74 72 69 6e 67              tring]string
type.noalg.map.bucket[string]string SRODATA dupok size=176
	0x0000 10 01 00 00 00 00 00 00 10 01 00 00 00 00 00 00  ................
	0x0010 de 17 3e 1a 02 08 08 19 00 00 00 00 00 00 00 00  ..>.............
	0x0020 00 00 00 00 00 00 00 00 00 00 00 00 00 00 00 00  ................
	0x0030 00 00 00 00 00 00 00 00 00 00 00 00 00 00 00 00  ................
	0x0040 04 00 00 00 00 00 00 00 04 00 00 00 00 00 00 00  ................
	0x0050 00 00 00 00 00 00 00 00 00 00 00 00 00 00 00 00  ................
	0x0060 00 00 00 00 00 00 00 00 00 00 00 00 00 00 00 00  ................
	0x0070 00 00 00 00 00 00 00 00 10 00 00 00 00 00 00 00  ................
	0x0080 00 00 00 00 00 00 00 00 00 00 00 00 00 00 00 00  ................
	0x0090 10 01 00 00 00 00 00 00 00 00 00 00 00 00 00 00  ................
	0x00a0 00 00 00 00 00 00 00 00 10 02 00 00 00 00 00 00  ................
	rel 32+8 t=1 runtime.gcbits.aaaaaaaa02+0
	rel 40+4 t=5 type..namedata.*map.bucket[string]string-+0
	rel 44+4 t=6 type.*map.bucket[string]string+0
	rel 48+8 t=1 type..importpath..+0
	rel 56+8 t=1 type.noalg.map.bucket[string]string+80
	rel 80+8 t=1 type..namedata.topbits-+0
	rel 88+8 t=1 type.[8]uint8+0
	rel 104+8 t=1 type..namedata.keys-+0
	rel 112+8 t=1 type.noalg.[8]string+0
	rel 128+8 t=1 type..namedata.elems-+0
	rel 136+8 t=1 type.noalg.[8]string+0
	rel 152+8 t=1 type..namedata.overflow-+0
	rel 160+8 t=1 type.*map.bucket[string]string+0
type.*map.bucket[string]string SRODATA dupok size=56
	0x0000 08 00 00 00 00 00 00 00 08 00 00 00 00 00 00 00  ................
	0x0010 a6 74 14 65 08 08 08 36 00 00 00 00 00 00 00 00  .t.e...6........
	0x0020 00 00 00 00 00 00 00 00 00 00 00 00 00 00 00 00  ................
	0x0030 00 00 00 00 00 00 00 00                          ........
	rel 24+8 t=1 runtime.memequal64·f+0
	rel 32+8 t=1 runtime.gcbits.01+0
	rel 40+4 t=5 type..namedata.*map.bucket[string]string-+0
	rel 48+8 t=1 type.noalg.map.bucket[string]string+0
type..namedata.*map.hdr[string]string- SRODATA dupok size=25
	0x0000 00 00 16 2a 6d 61 70 2e 68 64 72 5b 73 74 72 69  ...*map.hdr[stri
	0x0010 6e 67 5d 73 74 72 69 6e 67                       ng]string
type.*map.hdr[string]string SRODATA dupok size=56
	0x0000 08 00 00 00 00 00 00 00 08 00 00 00 00 00 00 00  ................
	0x0010 81 ba c6 bc 08 08 08 36 00 00 00 00 00 00 00 00  .......6........
	0x0020 00 00 00 00 00 00 00 00 00 00 00 00 00 00 00 00  ................
	0x0030 00 00 00 00 00 00 00 00                          ........
	rel 24+8 t=1 runtime.memequal64·f+0
	rel 32+8 t=1 runtime.gcbits.01+0
	rel 40+4 t=5 type..namedata.*map.hdr[string]string-+0
	rel 48+8 t=1 type.noalg.map.hdr[string]string+0
type.noalg.map.hdr[string]string SRODATA dupok size=296
	0x0000 30 00 00 00 00 00 00 00 30 00 00 00 00 00 00 00  0.......0.......
	0x0010 cf 6d 6c 68 02 08 08 19 00 00 00 00 00 00 00 00  .mlh............
	0x0020 00 00 00 00 00 00 00 00 00 00 00 00 00 00 00 00  ................
	0x0030 00 00 00 00 00 00 00 00 00 00 00 00 00 00 00 00  ................
	0x0040 09 00 00 00 00 00 00 00 09 00 00 00 00 00 00 00  ................
	0x0050 00 00 00 00 00 00 00 00 00 00 00 00 00 00 00 00  ................
	0x0060 00 00 00 00 00 00 00 00 00 00 00 00 00 00 00 00  ................
	0x0070 00 00 00 00 00 00 00 00 10 00 00 00 00 00 00 00  ................
	0x0080 00 00 00 00 00 00 00 00 00 00 00 00 00 00 00 00  ................
	0x0090 12 00 00 00 00 00 00 00 00 00 00 00 00 00 00 00  ................
	0x00a0 00 00 00 00 00 00 00 00 14 00 00 00 00 00 00 00  ................
	0x00b0 00 00 00 00 00 00 00 00 00 00 00 00 00 00 00 00  ................
	0x00c0 18 00 00 00 00 00 00 00 00 00 00 00 00 00 00 00  ................
	0x00d0 00 00 00 00 00 00 00 00 20 00 00 00 00 00 00 00  ........ .......
	0x00e0 00 00 00 00 00 00 00 00 00 00 00 00 00 00 00 00  ................
	0x00f0 30 00 00 00 00 00 00 00 00 00 00 00 00 00 00 00  0...............
	0x0100 00 00 00 00 00 00 00 00 40 00 00 00 00 00 00 00  ........@.......
	0x0110 00 00 00 00 00 00 00 00 00 00 00 00 00 00 00 00  ................
	0x0120 50 00 00 00 00 00 00 00                          P.......
	rel 32+8 t=1 runtime.gcbits.2c+0
	rel 40+4 t=5 type..namedata.*map.hdr[string]string-+0
	rel 44+4 t=6 type.*map.hdr[string]string+0
	rel 48+8 t=1 type..importpath..+0
	rel 56+8 t=1 type.noalg.map.hdr[string]string+80
	rel 80+8 t=1 type..namedata.count-+0
	rel 88+8 t=1 type.int+0
	rel 104+8 t=1 type..namedata.flags-+0
	rel 112+8 t=1 type.uint8+0
	rel 128+8 t=1 type..namedata.B.+0
	rel 136+8 t=1 type.uint8+0
	rel 152+8 t=1 type..namedata.noverflow-+0
	rel 160+8 t=1 type.uint16+0
	rel 176+8 t=1 type..namedata.hash0-+0
	rel 184+8 t=1 type.uint32+0
	rel 200+8 t=1 type..namedata.buckets-+0
	rel 208+8 t=1 type.*map.bucket[string]string+0
	rel 224+8 t=1 type..namedata.oldbuckets-+0
	rel 232+8 t=1 type.*map.bucket[string]string+0
	rel 248+8 t=1 type..namedata.nevacuate-+0
	rel 256+8 t=1 type.uintptr+0
	rel 272+8 t=1 type..namedata.extra-+0
	rel 280+8 t=1 type.unsafe.Pointer+0
type..namedata.*[][]int8- SRODATA dupok size=12
	0x0000 00 00 09 2a 5b 5d 5b 5d 69 6e 74 38              ...*[][]int8
type.*[][]int8 SRODATA dupok size=56
	0x0000 08 00 00 00 00 00 00 00 08 00 00 00 00 00 00 00  ................
	0x0010 15 71 67 38 08 08 08 36 00 00 00 00 00 00 00 00  .qg8...6........
	0x0020 00 00 00 00 00 00 00 00 00 00 00 00 00 00 00 00  ................
	0x0030 00 00 00 00 00 00 00 00                          ........
	rel 24+8 t=1 runtime.memequal64·f+0
	rel 32+8 t=1 runtime.gcbits.01+0
	rel 40+4 t=5 type..namedata.*[][]int8-+0
	rel 48+8 t=1 type.[][]int8+0
type.[][]int8 SRODATA dupok size=56
	0x0000 18 00 00 00 00 00 00 00 08 00 00 00 00 00 00 00  ................
	0x0010 06 4d 85 e2 02 08 08 17 00 00 00 00 00 00 00 00  .M..............
	0x0020 00 00 00 00 00 00 00 00 00 00 00 00 00 00 00 00  ................
	0x0030 00 00 00 00 00 00 00 00                          ........
	rel 32+8 t=1 runtime.gcbits.01+0
	rel 40+4 t=5 type..namedata.*[][]int8-+0
	rel 44+4 t=6 type.*[][]int8+0
	rel 48+8 t=1 type.[]int8+0
type..namedata.*[8][]int8- SRODATA dupok size=13
	0x0000 00 00 0a 2a 5b 38 5d 5b 5d 69 6e 74 38           ...*[8][]int8
type.*[8][]int8 SRODATA dupok size=56
	0x0000 08 00 00 00 00 00 00 00 08 00 00 00 00 00 00 00  ................
	0x0010 4d 97 00 81 08 08 08 36 00 00 00 00 00 00 00 00  M......6........
	0x0020 00 00 00 00 00 00 00 00 00 00 00 00 00 00 00 00  ................
	0x0030 00 00 00 00 00 00 00 00                          ........
	rel 24+8 t=1 runtime.memequal64·f+0
	rel 32+8 t=1 runtime.gcbits.01+0
	rel 40+4 t=5 type..namedata.*[8][]int8-+0
	rel 48+8 t=1 type.noalg.[8][]int8+0
runtime.gcbits.499224 SRODATA dupok size=3
	0x0000 49 92 24                                         I.$
type.noalg.[8][]int8 SRODATA dupok size=72
	0x0000 c0 00 00 00 00 00 00 00 b0 00 00 00 00 00 00 00  ................
	0x0010 d3 df f2 50 02 08 08 11 00 00 00 00 00 00 00 00  ...P............
	0x0020 00 00 00 00 00 00 00 00 00 00 00 00 00 00 00 00  ................
	0x0030 00 00 00 00 00 00 00 00 00 00 00 00 00 00 00 00  ................
	0x0040 08 00 00 00 00 00 00 00                          ........
	rel 32+8 t=1 runtime.gcbits.499224+0
	rel 40+4 t=5 type..namedata.*[8][]int8-+0
	rel 44+4 t=6 type.*[8][]int8+0
	rel 48+8 t=1 type.[]int8+0
	rel 56+8 t=1 type.[][]int8+0
runtime.gcbits.24499204 SRODATA dupok size=4
	0x0000 24 49 92 04                                      $I..
type..namedata.*map.bucket[int8][]int8- SRODATA dupok size=26
	0x0000 00 00 17 2a 6d 61 70 2e 62 75 63 6b 65 74 5b 69  ...*map.bucket[i
	0x0010 6e 74 38 5d 5b 5d 69 6e 74 38                    nt8][]int8
type.noalg.map.bucket[int8][]int8 SRODATA dupok size=176
	0x0000 d8 00 00 00 00 00 00 00 d8 00 00 00 00 00 00 00  ................
	0x0010 44 b9 3f 54 02 08 08 19 00 00 00 00 00 00 00 00  D.?T............
	0x0020 00 00 00 00 00 00 00 00 00 00 00 00 00 00 00 00  ................
	0x0030 00 00 00 00 00 00 00 00 00 00 00 00 00 00 00 00  ................
	0x0040 04 00 00 00 00 00 00 00 04 00 00 00 00 00 00 00  ................
	0x0050 00 00 00 00 00 00 00 00 00 00 00 00 00 00 00 00  ................
	0x0060 00 00 00 00 00 00 00 00 00 00 00 00 00 00 00 00  ................
	0x0070 00 00 00 00 00 00 00 00 10 00 00 00 00 00 00 00  ................
	0x0080 00 00 00 00 00 00 00 00 00 00 00 00 00 00 00 00  ................
	0x0090 20 00 00 00 00 00 00 00 00 00 00 00 00 00 00 00   ...............
	0x00a0 00 00 00 00 00 00 00 00 a0 01 00 00 00 00 00 00  ................
	rel 32+8 t=1 runtime.gcbits.24499204+0
	rel 40+4 t=5 type..namedata.*map.bucket[int8][]int8-+0
	rel 44+4 t=6 type.*map.bucket[int8][]int8+0
	rel 48+8 t=1 type..importpath..+0
	rel 56+8 t=1 type.noalg.map.bucket[int8][]int8+80
	rel 80+8 t=1 type..namedata.topbits-+0
	rel 88+8 t=1 type.[8]uint8+0
	rel 104+8 t=1 type..namedata.keys-+0
	rel 112+8 t=1 type.noalg.[8]int8+0
	rel 128+8 t=1 type..namedata.elems-+0
	rel 136+8 t=1 type.noalg.[8][]int8+0
	rel 152+8 t=1 type..namedata.overflow-+0
	rel 160+8 t=1 type.*map.bucket[int8][]int8+0
type.*map.bucket[int8][]int8 SRODATA dupok size=56
	0x0000 08 00 00 00 00 00 00 00 08 00 00 00 00 00 00 00  ................
	0x0010 3e f0 81 43 08 08 08 36 00 00 00 00 00 00 00 00  >..C...6........
	0x0020 00 00 00 00 00 00 00 00 00 00 00 00 00 00 00 00  ................
	0x0030 00 00 00 00 00 00 00 00                          ........
	rel 24+8 t=1 runtime.memequal64·f+0
	rel 32+8 t=1 runtime.gcbits.01+0
	rel 40+4 t=5 type..namedata.*map.bucket[int8][]int8-+0
	rel 48+8 t=1 type.noalg.map.bucket[int8][]int8+0
type..namedata.*map.hdr[int8][]int8- SRODATA dupok size=23
	0x0000 00 00 14 2a 6d 61 70 2e 68 64 72 5b 69 6e 74 38  ...*map.hdr[int8
	0x0010 5d 5b 5d 69 6e 74 38                             ][]int8
type.*map.hdr[int8][]int8 SRODATA dupok size=56
	0x0000 08 00 00 00 00 00 00 00 08 00 00 00 00 00 00 00  ................
	0x0010 f7 0f 86 dc 08 08 08 36 00 00 00 00 00 00 00 00  .......6........
	0x0020 00 00 00 00 00 00 00 00 00 00 00 00 00 00 00 00  ................
	0x0030 00 00 00 00 00 00 00 00                          ........
	rel 24+8 t=1 runtime.memequal64·f+0
	rel 32+8 t=1 runtime.gcbits.01+0
	rel 40+4 t=5 type..namedata.*map.hdr[int8][]int8-+0
	rel 48+8 t=1 type.noalg.map.hdr[int8][]int8+0
type.noalg.map.hdr[int8][]int8 SRODATA dupok size=296
	0x0000 30 00 00 00 00 00 00 00 30 00 00 00 00 00 00 00  0.......0.......
	0x0010 fa a5 8f 4c 02 08 08 19 00 00 00 00 00 00 00 00  ...L............
	0x0020 00 00 00 00 00 00 00 00 00 00 00 00 00 00 00 00  ................
	0x0030 00 00 00 00 00 00 00 00 00 00 00 00 00 00 00 00  ................
	0x0040 09 00 00 00 00 00 00 00 09 00 00 00 00 00 00 00  ................
	0x0050 00 00 00 00 00 00 00 00 00 00 00 00 00 00 00 00  ................
	0x0060 00 00 00 00 00 00 00 00 00 00 00 00 00 00 00 00  ................
	0x0070 00 00 00 00 00 00 00 00 10 00 00 00 00 00 00 00  ................
	0x0080 00 00 00 00 00 00 00 00 00 00 00 00 00 00 00 00  ................
	0x0090 12 00 00 00 00 00 00 00 00 00 00 00 00 00 00 00  ................
	0x00a0 00 00 00 00 00 00 00 00 14 00 00 00 00 00 00 00  ................
	0x00b0 00 00 00 00 00 00 00 00 00 00 00 00 00 00 00 00  ................
	0x00c0 18 00 00 00 00 00 00 00 00 00 00 00 00 00 00 00  ................
	0x00d0 00 00 00 00 00 00 00 00 20 00 00 00 00 00 00 00  ........ .......
	0x00e0 00 00 00 00 00 00 00 00 00 00 00 00 00 00 00 00  ................
	0x00f0 30 00 00 00 00 00 00 00 00 00 00 00 00 00 00 00  0...............
	0x0100 00 00 00 00 00 00 00 00 40 00 00 00 00 00 00 00  ........@.......
	0x0110 00 00 00 00 00 00 00 00 00 00 00 00 00 00 00 00  ................
	0x0120 50 00 00 00 00 00 00 00                          P.......
	rel 32+8 t=1 runtime.gcbits.2c+0
	rel 40+4 t=5 type..namedata.*map.hdr[int8][]int8-+0
	rel 44+4 t=6 type.*map.hdr[int8][]int8+0
	rel 48+8 t=1 type..importpath..+0
	rel 56+8 t=1 type.noalg.map.hdr[int8][]int8+80
	rel 80+8 t=1 type..namedata.count-+0
	rel 88+8 t=1 type.int+0
	rel 104+8 t=1 type..namedata.flags-+0
	rel 112+8 t=1 type.uint8+0
	rel 128+8 t=1 type..namedata.B.+0
	rel 136+8 t=1 type.uint8+0
	rel 152+8 t=1 type..namedata.noverflow-+0
	rel 160+8 t=1 type.uint16+0
	rel 176+8 t=1 type..namedata.hash0-+0
	rel 184+8 t=1 type.uint32+0
	rel 200+8 t=1 type..namedata.buckets-+0
	rel 208+8 t=1 type.*map.bucket[int8][]int8+0
	rel 224+8 t=1 type..namedata.oldbuckets-+0
	rel 232+8 t=1 type.*map.bucket[int8][]int8+0
	rel 248+8 t=1 type..namedata.nevacuate-+0
	rel 256+8 t=1 type.uintptr+0
	rel 272+8 t=1 type..namedata.extra-+0
	rel 280+8 t=1 type.unsafe.Pointer+0
type..namedata.*[][]int32- SRODATA dupok size=13
	0x0000 00 00 0a 2a 5b 5d 5b 5d 69 6e 74 33 32           ...*[][]int32
type.*[][]int32 SRODATA dupok size=56
	0x0000 08 00 00 00 00 00 00 00 08 00 00 00 00 00 00 00  ................
	0x0010 f0 18 06 d5 08 08 08 36 00 00 00 00 00 00 00 00  .......6........
	0x0020 00 00 00 00 00 00 00 00 00 00 00 00 00 00 00 00  ................
	0x0030 00 00 00 00 00 00 00 00                          ........
	rel 24+8 t=1 runtime.memequal64·f+0
	rel 32+8 t=1 runtime.gcbits.01+0
	rel 40+4 t=5 type..namedata.*[][]int32-+0
	rel 48+8 t=1 type.[][]int32+0
type.[][]int32 SRODATA dupok size=56
	0x0000 18 00 00 00 00 00 00 00 08 00 00 00 00 00 00 00  ................
	0x0010 67 b6 b6 a3 02 08 08 17 00 00 00 00 00 00 00 00  g...............
	0x0020 00 00 00 00 00 00 00 00 00 00 00 00 00 00 00 00  ................
	0x0030 00 00 00 00 00 00 00 00                          ........
	rel 32+8 t=1 runtime.gcbits.01+0
	rel 40+4 t=5 type..namedata.*[][]int32-+0
	rel 44+4 t=6 type.*[][]int32+0
	rel 48+8 t=1 type.[]int32+0
type..namedata.*[8][]int32- SRODATA dupok size=14
	0x0000 00 00 0b 2a 5b 38 5d 5b 5d 69 6e 74 33 32        ...*[8][]int32
type.*[8][]int32 SRODATA dupok size=56
	0x0000 08 00 00 00 00 00 00 00 08 00 00 00 00 00 00 00  ................
	0x0010 fa 70 fd 89 08 08 08 36 00 00 00 00 00 00 00 00  .p.....6........
	0x0020 00 00 00 00 00 00 00 00 00 00 00 00 00 00 00 00  ................
	0x0030 00 00 00 00 00 00 00 00                          ........
	rel 24+8 t=1 runtime.memequal64·f+0
	rel 32+8 t=1 runtime.gcbits.01+0
	rel 40+4 t=5 type..namedata.*[8][]int32-+0
	rel 48+8 t=1 type.noalg.[8][]int32+0
type.noalg.[8][]int32 SRODATA dupok size=72
	0x0000 c0 00 00 00 00 00 00 00 b0 00 00 00 00 00 00 00  ................
	0x0010 3c 7b f3 35 02 08 08 11 00 00 00 00 00 00 00 00  <{.5............
	0x0020 00 00 00 00 00 00 00 00 00 00 00 00 00 00 00 00  ................
	0x0030 00 00 00 00 00 00 00 00 00 00 00 00 00 00 00 00  ................
	0x0040 08 00 00 00 00 00 00 00                          ........
	rel 32+8 t=1 runtime.gcbits.499224+0
	rel 40+4 t=5 type..namedata.*[8][]int32-+0
	rel 44+4 t=6 type.*[8][]int32+0
	rel 48+8 t=1 type.[]int32+0
	rel 56+8 t=1 type.[][]int32+0
runtime.gcbits.20499224 SRODATA dupok size=4
	0x0000 20 49 92 24                                       I.$
type..namedata.*map.bucket[int32][]int32- SRODATA dupok size=28
	0x0000 00 00 19 2a 6d 61 70 2e 62 75 63 6b 65 74 5b 69  ...*map.bucket[i
	0x0010 6e 74 33 32 5d 5b 5d 69 6e 74 33 32              nt32][]int32
type.noalg.map.bucket[int32][]int32 SRODATA dupok size=176
	0x0000 f0 00 00 00 00 00 00 00 f0 00 00 00 00 00 00 00  ................
	0x0010 8b dd b3 2a 02 08 08 19 00 00 00 00 00 00 00 00  ...*............
	0x0020 00 00 00 00 00 00 00 00 00 00 00 00 00 00 00 00  ................
	0x0030 00 00 00 00 00 00 00 00 00 00 00 00 00 00 00 00  ................
	0x0040 04 00 00 00 00 00 00 00 04 00 00 00 00 00 00 00  ................
	0x0050 00 00 00 00 00 00 00 00 00 00 00 00 00 00 00 00  ................
	0x0060 00 00 00 00 00 00 00 00 00 00 00 00 00 00 00 00  ................
	0x0070 00 00 00 00 00 00 00 00 10 00 00 00 00 00 00 00  ................
	0x0080 00 00 00 00 00 00 00 00 00 00 00 00 00 00 00 00  ................
	0x0090 50 00 00 00 00 00 00 00 00 00 00 00 00 00 00 00  P...............
	0x00a0 00 00 00 00 00 00 00 00 d0 01 00 00 00 00 00 00  ................
	rel 32+8 t=1 runtime.gcbits.20499224+0
	rel 40+4 t=5 type..namedata.*map.bucket[int32][]int32-+0
	rel 44+4 t=6 type.*map.bucket[int32][]int32+0
	rel 48+8 t=1 type..importpath..+0
	rel 56+8 t=1 type.noalg.map.bucket[int32][]int32+80
	rel 80+8 t=1 type..namedata.topbits-+0
	rel 88+8 t=1 type.[8]uint8+0
	rel 104+8 t=1 type..namedata.keys-+0
	rel 112+8 t=1 type.noalg.[8]int32+0
	rel 128+8 t=1 type..namedata.elems-+0
	rel 136+8 t=1 type.noalg.[8][]int32+0
	rel 152+8 t=1 type..namedata.overflow-+0
	rel 160+8 t=1 type.*map.bucket[int32][]int32+0
type.*map.bucket[int32][]int32 SRODATA dupok size=56
	0x0000 08 00 00 00 00 00 00 00 08 00 00 00 00 00 00 00  ................
	0x0010 63 62 af f2 08 08 08 36 00 00 00 00 00 00 00 00  cb.....6........
	0x0020 00 00 00 00 00 00 00 00 00 00 00 00 00 00 00 00  ................
	0x0030 00 00 00 00 00 00 00 00                          ........
	rel 24+8 t=1 runtime.memequal64·f+0
	rel 32+8 t=1 runtime.gcbits.01+0
	rel 40+4 t=5 type..namedata.*map.bucket[int32][]int32-+0
	rel 48+8 t=1 type.noalg.map.bucket[int32][]int32+0
type..namedata.*map.hdr[int32][]int32- SRODATA dupok size=25
	0x0000 00 00 16 2a 6d 61 70 2e 68 64 72 5b 69 6e 74 33  ...*map.hdr[int3
	0x0010 32 5d 5b 5d 69 6e 74 33 32                       2][]int32
type.*map.hdr[int32][]int32 SRODATA dupok size=56
	0x0000 08 00 00 00 00 00 00 00 08 00 00 00 00 00 00 00  ................
	0x0010 69 22 ff 08 08 08 08 36 00 00 00 00 00 00 00 00  i".....6........
	0x0020 00 00 00 00 00 00 00 00 00 00 00 00 00 00 00 00  ................
	0x0030 00 00 00 00 00 00 00 00                          ........
	rel 24+8 t=1 runtime.memequal64·f+0
	rel 32+8 t=1 runtime.gcbits.01+0
	rel 40+4 t=5 type..namedata.*map.hdr[int32][]int32-+0
	rel 48+8 t=1 type.noalg.map.hdr[int32][]int32+0
type.noalg.map.hdr[int32][]int32 SRODATA dupok size=296
	0x0000 30 00 00 00 00 00 00 00 30 00 00 00 00 00 00 00  0.......0.......
	0x0010 85 5e 40 2d 02 08 08 19 00 00 00 00 00 00 00 00  .^@-............
	0x0020 00 00 00 00 00 00 00 00 00 00 00 00 00 00 00 00  ................
	0x0030 00 00 00 00 00 00 00 00 00 00 00 00 00 00 00 00  ................
	0x0040 09 00 00 00 00 00 00 00 09 00 00 00 00 00 00 00  ................
	0x0050 00 00 00 00 00 00 00 00 00 00 00 00 00 00 00 00  ................
	0x0060 00 00 00 00 00 00 00 00 00 00 00 00 00 00 00 00  ................
	0x0070 00 00 00 00 00 00 00 00 10 00 00 00 00 00 00 00  ................
	0x0080 00 00 00 00 00 00 00 00 00 00 00 00 00 00 00 00  ................
	0x0090 12 00 00 00 00 00 00 00 00 00 00 00 00 00 00 00  ................
	0x00a0 00 00 00 00 00 00 00 00 14 00 00 00 00 00 00 00  ................
	0x00b0 00 00 00 00 00 00 00 00 00 00 00 00 00 00 00 00  ................
	0x00c0 18 00 00 00 00 00 00 00 00 00 00 00 00 00 00 00  ................
	0x00d0 00 00 00 00 00 00 00 00 20 00 00 00 00 00 00 00  ........ .......
	0x00e0 00 00 00 00 00 00 00 00 00 00 00 00 00 00 00 00  ................
	0x00f0 30 00 00 00 00 00 00 00 00 00 00 00 00 00 00 00  0...............
	0x0100 00 00 00 00 00 00 00 00 40 00 00 00 00 00 00 00  ........@.......
	0x0110 00 00 00 00 00 00 00 00 00 00 00 00 00 00 00 00  ................
	0x0120 50 00 00 00 00 00 00 00                          P.......
	rel 32+8 t=1 runtime.gcbits.2c+0
	rel 40+4 t=5 type..namedata.*map.hdr[int32][]int32-+0
	rel 44+4 t=6 type.*map.hdr[int32][]int32+0
	rel 48+8 t=1 type..importpath..+0
	rel 56+8 t=1 type.noalg.map.hdr[int32][]int32+80
	rel 80+8 t=1 type..namedata.count-+0
	rel 88+8 t=1 type.int+0
	rel 104+8 t=1 type..namedata.flags-+0
	rel 112+8 t=1 type.uint8+0
	rel 128+8 t=1 type..namedata.B.+0
	rel 136+8 t=1 type.uint8+0
	rel 152+8 t=1 type..namedata.noverflow-+0
	rel 160+8 t=1 type.uint16+0
	rel 176+8 t=1 type..namedata.hash0-+0
	rel 184+8 t=1 type.uint32+0
	rel 200+8 t=1 type..namedata.buckets-+0
	rel 208+8 t=1 type.*map.bucket[int32][]int32+0
	rel 224+8 t=1 type..namedata.oldbuckets-+0
	rel 232+8 t=1 type.*map.bucket[int32][]int32+0
	rel 248+8 t=1 type..namedata.nevacuate-+0
	rel 256+8 t=1 type.uintptr+0
	rel 272+8 t=1 type..namedata.extra-+0
	rel 280+8 t=1 type.unsafe.Pointer+0
type..namedata.*[][]int64- SRODATA dupok size=13
	0x0000 00 00 0a 2a 5b 5d 5b 5d 69 6e 74 36 34           ...*[][]int64
type.*[][]int64 SRODATA dupok size=56
	0x0000 08 00 00 00 00 00 00 00 08 00 00 00 00 00 00 00  ................
	0x0010 bc 85 4a ee 08 08 08 36 00 00 00 00 00 00 00 00  ..J....6........
	0x0020 00 00 00 00 00 00 00 00 00 00 00 00 00 00 00 00  ................
	0x0030 00 00 00 00 00 00 00 00                          ........
	rel 24+8 t=1 runtime.memequal64·f+0
	rel 32+8 t=1 runtime.gcbits.01+0
	rel 40+4 t=5 type..namedata.*[][]int64-+0
	rel 48+8 t=1 type.[][]int64+0
type.[][]int64 SRODATA dupok size=56
	0x0000 18 00 00 00 00 00 00 00 08 00 00 00 00 00 00 00  ................
	0x0010 a9 36 6f 86 02 08 08 17 00 00 00 00 00 00 00 00  .6o.............
	0x0020 00 00 00 00 00 00 00 00 00 00 00 00 00 00 00 00  ................
	0x0030 00 00 00 00 00 00 00 00                          ........
	rel 32+8 t=1 runtime.gcbits.01+0
	rel 40+4 t=5 type..namedata.*[][]int64-+0
	rel 44+4 t=6 type.*[][]int64+0
	rel 48+8 t=1 type.[]int64+0
type..namedata.*[8][]int64- SRODATA dupok size=14
	0x0000 00 00 0b 2a 5b 38 5d 5b 5d 69 6e 74 36 34        ...*[8][]int64
type.*[8][]int64 SRODATA dupok size=56
	0x0000 08 00 00 00 00 00 00 00 08 00 00 00 00 00 00 00  ................
	0x0010 a7 c4 fb 1c 08 08 08 36 00 00 00 00 00 00 00 00  .......6........
	0x0020 00 00 00 00 00 00 00 00 00 00 00 00 00 00 00 00  ................
	0x0030 00 00 00 00 00 00 00 00                          ........
	rel 24+8 t=1 runtime.memequal64·f+0
	rel 32+8 t=1 runtime.gcbits.01+0
	rel 40+4 t=5 type..namedata.*[8][]int64-+0
	rel 48+8 t=1 type.noalg.[8][]int64+0
type.noalg.[8][]int64 SRODATA dupok size=72
	0x0000 c0 00 00 00 00 00 00 00 b0 00 00 00 00 00 00 00  ................
	0x0010 66 1c f4 81 02 08 08 11 00 00 00 00 00 00 00 00  f...............
	0x0020 00 00 00 00 00 00 00 00 00 00 00 00 00 00 00 00  ................
	0x0030 00 00 00 00 00 00 00 00 00 00 00 00 00 00 00 00  ................
	0x0040 08 00 00 00 00 00 00 00                          ........
	rel 32+8 t=1 runtime.gcbits.499224+0
	rel 40+4 t=5 type..namedata.*[8][]int64-+0
	rel 44+4 t=6 type.*[8][]int64+0
	rel 48+8 t=1 type.[]int64+0
	rel 56+8 t=1 type.[][]int64+0
runtime.gcbits.0092244902 SRODATA dupok size=5
	0x0000 00 92 24 49 02                                   ..$I.
type..namedata.*map.bucket[int64][]int64- SRODATA dupok size=28
	0x0000 00 00 19 2a 6d 61 70 2e 62 75 63 6b 65 74 5b 69  ...*map.bucket[i
	0x0010 6e 74 36 34 5d 5b 5d 69 6e 74 36 34              nt64][]int64
type.noalg.map.bucket[int64][]int64 SRODATA dupok size=176
	0x0000 10 01 00 00 00 00 00 00 10 01 00 00 00 00 00 00  ................
	0x0010 8b 1e 04 e9 02 08 08 19 00 00 00 00 00 00 00 00  ................
	0x0020 00 00 00 00 00 00 00 00 00 00 00 00 00 00 00 00  ................
	0x0030 00 00 00 00 00 00 00 00 00 00 00 00 00 00 00 00  ................
	0x0040 04 00 00 00 00 00 00 00 04 00 00 00 00 00 00 00  ................
	0x0050 00 00 00 00 00 00 00 00 00 00 00 00 00 00 00 00  ................
	0x0060 00 00 00 00 00 00 00 00 00 00 00 00 00 00 00 00  ................
	0x0070 00 00 00 00 00 00 00 00 10 00 00 00 00 00 00 00  ................
	0x0080 00 00 00 00 00 00 00 00 00 00 00 00 00 00 00 00  ................
	0x0090 90 00 00 00 00 00 00 00 00 00 00 00 00 00 00 00  ................
	0x00a0 00 00 00 00 00 00 00 00 10 02 00 00 00 00 00 00  ................
	rel 32+8 t=1 runtime.gcbits.0092244902+0
	rel 40+4 t=5 type..namedata.*map.bucket[int64][]int64-+0
	rel 44+4 t=6 type.*map.bucket[int64][]int64+0
	rel 48+8 t=1 type..importpath..+0
	rel 56+8 t=1 type.noalg.map.bucket[int64][]int64+80
	rel 80+8 t=1 type..namedata.topbits-+0
	rel 88+8 t=1 type.[8]uint8+0
	rel 104+8 t=1 type..namedata.keys-+0
	rel 112+8 t=1 type.noalg.[8]int64+0
	rel 128+8 t=1 type..namedata.elems-+0
	rel 136+8 t=1 type.noalg.[8][]int64+0
	rel 152+8 t=1 type..namedata.overflow-+0
	rel 160+8 t=1 type.*map.bucket[int64][]int64+0
type.*map.bucket[int64][]int64 SRODATA dupok size=56
	0x0000 08 00 00 00 00 00 00 00 08 00 00 00 00 00 00 00  ................
	0x0010 c6 0d b0 a2 08 08 08 36 00 00 00 00 00 00 00 00  .......6........
	0x0020 00 00 00 00 00 00 00 00 00 00 00 00 00 00 00 00  ................
	0x0030 00 00 00 00 00 00 00 00                          ........
	rel 24+8 t=1 runtime.memequal64·f+0
	rel 32+8 t=1 runtime.gcbits.01+0
	rel 40+4 t=5 type..namedata.*map.bucket[int64][]int64-+0
	rel 48+8 t=1 type.noalg.map.bucket[int64][]int64+0
type..namedata.*map.hdr[int64][]int64- SRODATA dupok size=25
	0x0000 00 00 16 2a 6d 61 70 2e 68 64 72 5b 69 6e 74 36  ...*map.hdr[int6
	0x0010 34 5d 5b 5d 69 6e 74 36 34                       4][]int64
type.*map.hdr[int64][]int64 SRODATA dupok size=56
	0x0000 08 00 00 00 00 00 00 00 08 00 00 00 00 00 00 00  ................
	0x0010 f7 a2 b8 84 08 08 08 36 00 00 00 00 00 00 00 00  .......6........
	0x0020 00 00 00 00 00 00 00 00 00 00 00 00 00 00 00 00  ................
	0x0030 00 00 00 00 00 00 00 00                          ........
	rel 24+8 t=1 runtime.memequal64·f+0
	rel 32+8 t=1 runtime.gcbits.01+0
	rel 40+4 t=5 type..namedata.*map.hdr[int64][]int64-+0
	rel 48+8 t=1 type.noalg.map.hdr[int64][]int64+0
type.noalg.map.hdr[int64][]int64 SRODATA dupok size=296
	0x0000 30 00 00 00 00 00 00 00 30 00 00 00 00 00 00 00  0.......0.......
	0x0010 b4 06 5e 76 02 08 08 19 00 00 00 00 00 00 00 00  ..^v............
	0x0020 00 00 00 00 00 00 00 00 00 00 00 00 00 00 00 00  ................
	0x0030 00 00 00 00 00 00 00 00 00 00 00 00 00 00 00 00  ................
	0x0040 09 00 00 00 00 00 00 00 09 00 00 00 00 00 00 00  ................
	0x0050 00 00 00 00 00 00 00 00 00 00 00 00 00 00 00 00  ................
	0x0060 00 00 00 00 00 00 00 00 00 00 00 00 00 00 00 00  ................
	0x0070 00 00 00 00 00 00 00 00 10 00 00 00 00 00 00 00  ................
	0x0080 00 00 00 00 00 00 00 00 00 00 00 00 00 00 00 00  ................
	0x0090 12 00 00 00 00 00 00 00 00 00 00 00 00 00 00 00  ................
	0x00a0 00 00 00 00 00 00 00 00 14 00 00 00 00 00 00 00  ................
	0x00b0 00 00 00 00 00 00 00 00 00 00 00 00 00 00 00 00  ................
	0x00c0 18 00 00 00 00 00 00 00 00 00 00 00 00 00 00 00  ................
	0x00d0 00 00 00 00 00 00 00 00 20 00 00 00 00 00 00 00  ........ .......
	0x00e0 00 00 00 00 00 00 00 00 00 00 00 00 00 00 00 00  ................
	0x00f0 30 00 00 00 00 00 00 00 00 00 00 00 00 00 00 00  0...............
	0x0100 00 00 00 00 00 00 00 00 40 00 00 00 00 00 00 00  ........@.......
	0x0110 00 00 00 00 00 00 00 00 00 00 00 00 00 00 00 00  ................
	0x0120 50 00 00 00 00 00 00 00                          P.......
	rel 32+8 t=1 runtime.gcbits.2c+0
	rel 40+4 t=5 type..namedata.*map.hdr[int64][]int64-+0
	rel 44+4 t=6 type.*map.hdr[int64][]int64+0
	rel 48+8 t=1 type..importpath..+0
	rel 56+8 t=1 type.noalg.map.hdr[int64][]int64+80
	rel 80+8 t=1 type..namedata.count-+0
	rel 88+8 t=1 type.int+0
	rel 104+8 t=1 type..namedata.flags-+0
	rel 112+8 t=1 type.uint8+0
	rel 128+8 t=1 type..namedata.B.+0
	rel 136+8 t=1 type.uint8+0
	rel 152+8 t=1 type..namedata.noverflow-+0
	rel 160+8 t=1 type.uint16+0
	rel 176+8 t=1 type..namedata.hash0-+0
	rel 184+8 t=1 type.uint32+0
	rel 200+8 t=1 type..namedata.buckets-+0
	rel 208+8 t=1 type.*map.bucket[int64][]int64+0
	rel 224+8 t=1 type..namedata.oldbuckets-+0
	rel 232+8 t=1 type.*map.bucket[int64][]int64+0
	rel 248+8 t=1 type..namedata.nevacuate-+0
	rel 256+8 t=1 type.uintptr+0
	rel 272+8 t=1 type..namedata.extra-+0
	rel 280+8 t=1 type.unsafe.Pointer+0
type..namedata.*[][]complex128- SRODATA dupok size=18
	0x0000 00 00 0f 2a 5b 5d 5b 5d 63 6f 6d 70 6c 65 78 31  ...*[][]complex1
	0x0010 32 38                                            28
type.*[][]complex128 SRODATA dupok size=56
	0x0000 08 00 00 00 00 00 00 00 08 00 00 00 00 00 00 00  ................
	0x0010 56 86 f2 26 08 08 08 36 00 00 00 00 00 00 00 00  V..&...6........
	0x0020 00 00 00 00 00 00 00 00 00 00 00 00 00 00 00 00  ................
	0x0030 00 00 00 00 00 00 00 00                          ........
	rel 24+8 t=1 runtime.memequal64·f+0
	rel 32+8 t=1 runtime.gcbits.01+0
	rel 40+4 t=5 type..namedata.*[][]complex128-+0
	rel 48+8 t=1 type.[][]complex128+0
type.[][]complex128 SRODATA dupok size=56
	0x0000 18 00 00 00 00 00 00 00 08 00 00 00 00 00 00 00  ................
	0x0010 84 06 29 1e 02 08 08 17 00 00 00 00 00 00 00 00  ..).............
	0x0020 00 00 00 00 00 00 00 00 00 00 00 00 00 00 00 00  ................
	0x0030 00 00 00 00 00 00 00 00                          ........
	rel 32+8 t=1 runtime.gcbits.01+0
	rel 40+4 t=5 type..namedata.*[][]complex128-+0
	rel 44+4 t=6 type.*[][]complex128+0
	rel 48+8 t=1 type.[]complex128+0
type..namedata.*[8][]complex128- SRODATA dupok size=19
	0x0000 00 00 10 2a 5b 38 5d 5b 5d 63 6f 6d 70 6c 65 78  ...*[8][]complex
	0x0010 31 32 38                                         128
type.*[8][]complex128 SRODATA dupok size=56
	0x0000 08 00 00 00 00 00 00 00 08 00 00 00 00 00 00 00  ................
	0x0010 3a 99 a2 66 08 08 08 36 00 00 00 00 00 00 00 00  :..f...6........
	0x0020 00 00 00 00 00 00 00 00 00 00 00 00 00 00 00 00  ................
	0x0030 00 00 00 00 00 00 00 00                          ........
	rel 24+8 t=1 runtime.memequal64·f+0
	rel 32+8 t=1 runtime.gcbits.01+0
	rel 40+4 t=5 type..namedata.*[8][]complex128-+0
	rel 48+8 t=1 type.noalg.[8][]complex128+0
type.noalg.[8][]complex128 SRODATA dupok size=72
	0x0000 c0 00 00 00 00 00 00 00 b0 00 00 00 00 00 00 00  ................
	0x0010 7d b3 4b ab 02 08 08 11 00 00 00 00 00 00 00 00  }.K.............
	0x0020 00 00 00 00 00 00 00 00 00 00 00 00 00 00 00 00  ................
	0x0030 00 00 00 00 00 00 00 00 00 00 00 00 00 00 00 00  ................
	0x0040 08 00 00 00 00 00 00 00                          ........
	rel 32+8 t=1 runtime.gcbits.499224+0
	rel 40+4 t=5 type..namedata.*[8][]complex128-+0
	rel 44+4 t=6 type.*[8][]complex128+0
	rel 48+8 t=1 type.[]complex128+0
	rel 56+8 t=1 type.[][]complex128+0
runtime.gcbits.000092244902 SRODATA dupok size=6
	0x0000 00 00 92 24 49 02                                ...$I.
type..namedata.*map.bucket[complex128][]complex128- SRODATA dupok size=38
	0x0000 00 00 23 2a 6d 61 70 2e 62 75 63 6b 65 74 5b 63  ..#*map.bucket[c
	0x0010 6f 6d 70 6c 65 78 31 32 38 5d 5b 5d 63 6f 6d 70  omplex128][]comp
	0x0020 6c 65 78 31 32 38                                lex128
type.noalg.map.bucket[complex128][]complex128 SRODATA dupok size=176
	0x0000 50 01 00 00 00 00 00 00 50 01 00 00 00 00 00 00  P.......P.......
	0x0010 10 bb 44 f6 02 08 08 19 00 00 00 00 00 00 00 00  ..D.............
	0x0020 00 00 00 00 00 00 00 00 00 00 00 00 00 00 00 00  ................
	0x0030 00 00 00 00 00 00 00 00 00 00 00 00 00 00 00 00  ................
	0x0040 04 00 00 00 00 00 00 00 04 00 00 00 00 00 00 00  ................
	0x0050 00 00 00 00 00 00 00 00 00 00 00 00 00 00 00 00  ................
	0x0060 00 00 00 00 00 00 00 00 00 00 00 00 00 00 00 00  ................
	0x0070 00 00 00 00 00 00 00 00 10 00 00 00 00 00 00 00  ................
	0x0080 00 00 00 00 00 00 00 00 00 00 00 00 00 00 00 00  ................
	0x0090 10 01 00 00 00 00 00 00 00 00 00 00 00 00 00 00  ................
	0x00a0 00 00 00 00 00 00 00 00 90 02 00 00 00 00 00 00  ................
	rel 32+8 t=1 runtime.gcbits.000092244902+0
	rel 40+4 t=5 type..namedata.*map.bucket[complex128][]complex128-+0
	rel 44+4 t=6 type.*map.bucket[complex128][]complex128+0
	rel 48+8 t=1 type..importpath..+0
	rel 56+8 t=1 type.noalg.map.bucket[complex128][]complex128+80
	rel 80+8 t=1 type..namedata.topbits-+0
	rel 88+8 t=1 type.[8]uint8+0
	rel 104+8 t=1 type..namedata.keys-+0
	rel 112+8 t=1 type.noalg.[8]complex128+0
	rel 128+8 t=1 type..namedata.elems-+0
	rel 136+8 t=1 type.noalg.[8][]complex128+0
	rel 152+8 t=1 type..namedata.overflow-+0
	rel 160+8 t=1 type.*map.bucket[complex128][]complex128+0
type.*map.bucket[complex128][]complex128 SRODATA dupok size=56
	0x0000 08 00 00 00 00 00 00 00 08 00 00 00 00 00 00 00  ................
	0x0010 b8 d7 6c 8c 08 08 08 36 00 00 00 00 00 00 00 00  ..l....6........
	0x0020 00 00 00 00 00 00 00 00 00 00 00 00 00 00 00 00  ................
	0x0030 00 00 00 00 00 00 00 00                          ........
	rel 24+8 t=1 runtime.memequal64·f+0
	rel 32+8 t=1 runtime.gcbits.01+0
	rel 40+4 t=5 type..namedata.*map.bucket[complex128][]complex128-+0
	rel 48+8 t=1 type.noalg.map.bucket[complex128][]complex128+0
type..namedata.*map.hdr[complex128][]complex128- SRODATA dupok size=35
	0x0000 00 00 20 2a 6d 61 70 2e 68 64 72 5b 63 6f 6d 70  .. *map.hdr[comp
	0x0010 6c 65 78 31 32 38 5d 5b 5d 63 6f 6d 70 6c 65 78  lex128][]complex
	0x0020 31 32 38                                         128
type.*map.hdr[complex128][]complex128 SRODATA dupok size=56
	0x0000 08 00 00 00 00 00 00 00 08 00 00 00 00 00 00 00  ................
	0x0010 88 51 3c d2 08 08 08 36 00 00 00 00 00 00 00 00  .Q<....6........
	0x0020 00 00 00 00 00 00 00 00 00 00 00 00 00 00 00 00  ................
	0x0030 00 00 00 00 00 00 00 00                          ........
	rel 24+8 t=1 runtime.memequal64·f+0
	rel 32+8 t=1 runtime.gcbits.01+0
	rel 40+4 t=5 type..namedata.*map.hdr[complex128][]complex128-+0
	rel 48+8 t=1 type.noalg.map.hdr[complex128][]complex128+0
type.noalg.map.hdr[complex128][]complex128 SRODATA dupok size=296
	0x0000 30 00 00 00 00 00 00 00 30 00 00 00 00 00 00 00  0.......0.......
	0x0010 71 39 41 45 02 08 08 19 00 00 00 00 00 00 00 00  q9AE............
	0x0020 00 00 00 00 00 00 00 00 00 00 00 00 00 00 00 00  ................
	0x0030 00 00 00 00 00 00 00 00 00 00 00 00 00 00 00 00  ................
	0x0040 09 00 00 00 00 00 00 00 09 00 00 00 00 00 00 00  ................
	0x0050 00 00 00 00 00 00 00 00 00 00 00 00 00 00 00 00  ................
	0x0060 00 00 00 00 00 00 00 00 00 00 00 00 00 00 00 00  ................
	0x0070 00 00 00 00 00 00 00 00 10 00 00 00 00 00 00 00  ................
	0x0080 00 00 00 00 00 00 00 00 00 00 00 00 00 00 00 00  ................
	0x0090 12 00 00 00 00 00 00 00 00 00 00 00 00 00 00 00  ................
	0x00a0 00 00 00 00 00 00 00 00 14 00 00 00 00 00 00 00  ................
	0x00b0 00 00 00 00 00 00 00 00 00 00 00 00 00 00 00 00  ................
	0x00c0 18 00 00 00 00 00 00 00 00 00 00 00 00 00 00 00  ................
	0x00d0 00 00 00 00 00 00 00 00 20 00 00 00 00 00 00 00  ........ .......
	0x00e0 00 00 00 00 00 00 00 00 00 00 00 00 00 00 00 00  ................
	0x00f0 30 00 00 00 00 00 00 00 00 00 00 00 00 00 00 00  0...............
	0x0100 00 00 00 00 00 00 00 00 40 00 00 00 00 00 00 00  ........@.......
	0x0110 00 00 00 00 00 00 00 00 00 00 00 00 00 00 00 00  ................
	0x0120 50 00 00 00 00 00 00 00                          P.......
	rel 32+8 t=1 runtime.gcbits.2c+0
	rel 40+4 t=5 type..namedata.*map.hdr[complex128][]complex128-+0
	rel 44+4 t=6 type.*map.hdr[complex128][]complex128+0
	rel 48+8 t=1 type..importpath..+0
	rel 56+8 t=1 type.noalg.map.hdr[complex128][]complex128+80
	rel 80+8 t=1 type..namedata.count-+0
	rel 88+8 t=1 type.int+0
	rel 104+8 t=1 type..namedata.flags-+0
	rel 112+8 t=1 type.uint8+0
	rel 128+8 t=1 type..namedata.B.+0
	rel 136+8 t=1 type.uint8+0
	rel 152+8 t=1 type..namedata.noverflow-+0
	rel 160+8 t=1 type.uint16+0
	rel 176+8 t=1 type..namedata.hash0-+0
	rel 184+8 t=1 type.uint32+0
	rel 200+8 t=1 type..namedata.buckets-+0
	rel 208+8 t=1 type.*map.bucket[complex128][]complex128+0
	rel 224+8 t=1 type..namedata.oldbuckets-+0
	rel 232+8 t=1 type.*map.bucket[complex128][]complex128+0
	rel 248+8 t=1 type..namedata.nevacuate-+0
	rel 256+8 t=1 type.uintptr+0
	rel 272+8 t=1 type..namedata.extra-+0
	rel 280+8 t=1 type.unsafe.Pointer+0
go.string."1" SRODATA dupok size=1
	0x0000 31                                               1
go.string."2" SRODATA dupok size=1
	0x0000 32                                               2
go.string."3" SRODATA dupok size=1
	0x0000 33                                               3
go.string."7" SRODATA dupok size=1
	0x0000 37                                               7
go.string."8" SRODATA dupok size=1
	0x0000 38                                               8
go.string."9" SRODATA dupok size=1
	0x0000 39                                               9
go.string."0" SRODATA dupok size=1
	0x0000 30                                               0
go.string."99" SRODATA dupok size=2
	0x0000 39 39                                            99
go.string."100" SRODATA dupok size=3
	0x0000 31 30 30                                         100
type..namedata.*[][]string- SRODATA dupok size=14
	0x0000 00 00 0b 2a 5b 5d 5b 5d 73 74 72 69 6e 67        ...*[][]string
type.*[][]string SRODATA dupok size=56
	0x0000 08 00 00 00 00 00 00 00 08 00 00 00 00 00 00 00  ................
	0x0010 5f 6f 10 c2 08 08 08 36 00 00 00 00 00 00 00 00  _o.....6........
	0x0020 00 00 00 00 00 00 00 00 00 00 00 00 00 00 00 00  ................
	0x0030 00 00 00 00 00 00 00 00                          ........
	rel 24+8 t=1 runtime.memequal64·f+0
	rel 32+8 t=1 runtime.gcbits.01+0
	rel 40+4 t=5 type..namedata.*[][]string-+0
	rel 48+8 t=1 type.[][]string+0
type.[][]string SRODATA dupok size=56
	0x0000 18 00 00 00 00 00 00 00 08 00 00 00 00 00 00 00  ................
	0x0010 bc 3a e8 01 02 08 08 17 00 00 00 00 00 00 00 00  .:..............
	0x0020 00 00 00 00 00 00 00 00 00 00 00 00 00 00 00 00  ................
	0x0030 00 00 00 00 00 00 00 00                          ........
	rel 32+8 t=1 runtime.gcbits.01+0
	rel 40+4 t=5 type..namedata.*[][]string-+0
	rel 44+4 t=6 type.*[][]string+0
	rel 48+8 t=1 type.[]string+0
type..namedata.*[8][]string- SRODATA dupok size=15
	0x0000 00 00 0c 2a 5b 38 5d 5b 5d 73 74 72 69 6e 67     ...*[8][]string
type.*[8][]string SRODATA dupok size=56
	0x0000 08 00 00 00 00 00 00 00 08 00 00 00 00 00 00 00  ................
	0x0010 d4 d2 3e f6 08 08 08 36 00 00 00 00 00 00 00 00  ..>....6........
	0x0020 00 00 00 00 00 00 00 00 00 00 00 00 00 00 00 00  ................
	0x0030 00 00 00 00 00 00 00 00                          ........
	rel 24+8 t=1 runtime.memequal64·f+0
	rel 32+8 t=1 runtime.gcbits.01+0
	rel 40+4 t=5 type..namedata.*[8][]string-+0
	rel 48+8 t=1 type.noalg.[8][]string+0
type.noalg.[8][]string SRODATA dupok size=72
	0x0000 c0 00 00 00 00 00 00 00 b0 00 00 00 00 00 00 00  ................
	0x0010 bd 65 b3 72 02 08 08 11 00 00 00 00 00 00 00 00  .e.r............
	0x0020 00 00 00 00 00 00 00 00 00 00 00 00 00 00 00 00  ................
	0x0030 00 00 00 00 00 00 00 00 00 00 00 00 00 00 00 00  ................
	0x0040 08 00 00 00 00 00 00 00                          ........
	rel 32+8 t=1 runtime.gcbits.499224+0
	rel 40+4 t=5 type..namedata.*[8][]string-+0
	rel 44+4 t=6 type.*[8][]string+0
	rel 48+8 t=1 type.[]string+0
	rel 56+8 t=1 type.[][]string+0
runtime.gcbits.aaaa92244902 SRODATA dupok size=6
	0x0000 aa aa 92 24 49 02                                ...$I.
type..namedata.*map.bucket[string][]string- SRODATA dupok size=30
	0x0000 00 00 1b 2a 6d 61 70 2e 62 75 63 6b 65 74 5b 73  ...*map.bucket[s
	0x0010 74 72 69 6e 67 5d 5b 5d 73 74 72 69 6e 67        tring][]string
type.noalg.map.bucket[string][]string SRODATA dupok size=176
	0x0000 50 01 00 00 00 00 00 00 50 01 00 00 00 00 00 00  P.......P.......
	0x0010 fa 54 4a b9 02 08 08 19 00 00 00 00 00 00 00 00  .TJ.............
	0x0020 00 00 00 00 00 00 00 00 00 00 00 00 00 00 00 00  ................
	0x0030 00 00 00 00 00 00 00 00 00 00 00 00 00 00 00 00  ................
	0x0040 04 00 00 00 00 00 00 00 04 00 00 00 00 00 00 00  ................
	0x0050 00 00 00 00 00 00 00 00 00 00 00 00 00 00 00 00  ................
	0x0060 00 00 00 00 00 00 00 00 00 00 00 00 00 00 00 00  ................
	0x0070 00 00 00 00 00 00 00 00 10 00 00 00 00 00 00 00  ................
	0x0080 00 00 00 00 00 00 00 00 00 00 00 00 00 00 00 00  ................
	0x0090 10 01 00 00 00 00 00 00 00 00 00 00 00 00 00 00  ................
	0x00a0 00 00 00 00 00 00 00 00 90 02 00 00 00 00 00 00  ................
	rel 32+8 t=1 runtime.gcbits.aaaa92244902+0
	rel 40+4 t=5 type..namedata.*map.bucket[string][]string-+0
	rel 44+4 t=6 type.*map.bucket[string][]string+0
	rel 48+8 t=1 type..importpath..+0
	rel 56+8 t=1 type.noalg.map.bucket[string][]string+80
	rel 80+8 t=1 type..namedata.topbits-+0
	rel 88+8 t=1 type.[8]uint8+0
	rel 104+8 t=1 type..namedata.keys-+0
	rel 112+8 t=1 type.noalg.[8]string+0
	rel 128+8 t=1 type..namedata.elems-+0
	rel 136+8 t=1 type.noalg.[8][]string+0
	rel 152+8 t=1 type..namedata.overflow-+0
	rel 160+8 t=1 type.*map.bucket[string][]string+0
type.*map.bucket[string][]string SRODATA dupok size=56
	0x0000 08 00 00 00 00 00 00 00 08 00 00 00 00 00 00 00  ................
	0x0010 c4 59 ac 52 08 08 08 36 00 00 00 00 00 00 00 00  .Y.R...6........
	0x0020 00 00 00 00 00 00 00 00 00 00 00 00 00 00 00 00  ................
	0x0030 00 00 00 00 00 00 00 00                          ........
	rel 24+8 t=1 runtime.memequal64·f+0
	rel 32+8 t=1 runtime.gcbits.01+0
	rel 40+4 t=5 type..namedata.*map.bucket[string][]string-+0
	rel 48+8 t=1 type.noalg.map.bucket[string][]string+0
type..namedata.*map.hdr[string][]string- SRODATA dupok size=27
	0x0000 00 00 18 2a 6d 61 70 2e 68 64 72 5b 73 74 72 69  ...*map.hdr[stri
	0x0010 6e 67 5d 5b 5d 73 74 72 69 6e 67                 ng][]string
type.*map.hdr[string][]string SRODATA dupok size=56
	0x0000 08 00 00 00 00 00 00 00 08 00 00 00 00 00 00 00  ................
	0x0010 2f 1b 49 0f 08 08 08 36 00 00 00 00 00 00 00 00  /.I....6........
	0x0020 00 00 00 00 00 00 00 00 00 00 00 00 00 00 00 00  ................
	0x0030 00 00 00 00 00 00 00 00                          ........
	rel 24+8 t=1 runtime.memequal64·f+0
	rel 32+8 t=1 runtime.gcbits.01+0
	rel 40+4 t=5 type..namedata.*map.hdr[string][]string-+0
	rel 48+8 t=1 type.noalg.map.hdr[string][]string+0
type.noalg.map.hdr[string][]string SRODATA dupok size=296
	0x0000 30 00 00 00 00 00 00 00 30 00 00 00 00 00 00 00  0.......0.......
	0x0010 96 8d 8b 98 02 08 08 19 00 00 00 00 00 00 00 00  ................
	0x0020 00 00 00 00 00 00 00 00 00 00 00 00 00 00 00 00  ................
	0x0030 00 00 00 00 00 00 00 00 00 00 00 00 00 00 00 00  ................
	0x0040 09 00 00 00 00 00 00 00 09 00 00 00 00 00 00 00  ................
	0x0050 00 00 00 00 00 00 00 00 00 00 00 00 00 00 00 00  ................
	0x0060 00 00 00 00 00 00 00 00 00 00 00 00 00 00 00 00  ................
	0x0070 00 00 00 00 00 00 00 00 10 00 00 00 00 00 00 00  ................
	0x0080 00 00 00 00 00 00 00 00 00 00 00 00 00 00 00 00  ................
	0x0090 12 00 00 00 00 00 00 00 00 00 00 00 00 00 00 00  ................
	0x00a0 00 00 00 00 00 00 00 00 14 00 00 00 00 00 00 00  ................
	0x00b0 00 00 00 00 00 00 00 00 00 00 00 00 00 00 00 00  ................
	0x00c0 18 00 00 00 00 00 00 00 00 00 00 00 00 00 00 00  ................
	0x00d0 00 00 00 00 00 00 00 00 20 00 00 00 00 00 00 00  ........ .......
	0x00e0 00 00 00 00 00 00 00 00 00 00 00 00 00 00 00 00  ................
	0x00f0 30 00 00 00 00 00 00 00 00 00 00 00 00 00 00 00  0...............
	0x0100 00 00 00 00 00 00 00 00 40 00 00 00 00 00 00 00  ........@.......
	0x0110 00 00 00 00 00 00 00 00 00 00 00 00 00 00 00 00  ................
	0x0120 50 00 00 00 00 00 00 00                          P.......
	rel 32+8 t=1 runtime.gcbits.2c+0
	rel 40+4 t=5 type..namedata.*map.hdr[string][]string-+0
	rel 44+4 t=6 type.*map.hdr[string][]string+0
	rel 48+8 t=1 type..importpath..+0
	rel 56+8 t=1 type.noalg.map.hdr[string][]string+80
	rel 80+8 t=1 type..namedata.count-+0
	rel 88+8 t=1 type.int+0
	rel 104+8 t=1 type..namedata.flags-+0
	rel 112+8 t=1 type.uint8+0
	rel 128+8 t=1 type..namedata.B.+0
	rel 136+8 t=1 type.uint8+0
	rel 152+8 t=1 type..namedata.noverflow-+0
	rel 160+8 t=1 type.uint16+0
	rel 176+8 t=1 type..namedata.hash0-+0
	rel 184+8 t=1 type.uint32+0
	rel 200+8 t=1 type..namedata.buckets-+0
	rel 208+8 t=1 type.*map.bucket[string][]string+0
	rel 224+8 t=1 type..namedata.oldbuckets-+0
	rel 232+8 t=1 type.*map.bucket[string][]string+0
	rel 248+8 t=1 type..namedata.nevacuate-+0
	rel 256+8 t=1 type.uintptr+0
	rel 272+8 t=1 type..namedata.extra-+0
	rel 280+8 t=1 type.unsafe.Pointer+0
"".sinkAppend SNOPTRBSS size=1
type..eqfunc.[4]complex128 SRODATA dupok size=8
	0x0000 00 00 00 00 00 00 00 00                          ........
	rel 0+8 t=1 type..eq.[4]complex128+0
type..namedata.*[4]complex128- SRODATA dupok size=17
	0x0000 00 00 0e 2a 5b 34 5d 63 6f 6d 70 6c 65 78 31 32  ...*[4]complex12
	0x0010 38                                               8
type.[4]complex128 SRODATA dupok size=72
	0x0000 40 00 00 00 00 00 00 00 00 00 00 00 00 00 00 00  @...............
	0x0010 f9 a8 4b b8 02 08 08 11 00 00 00 00 00 00 00 00  ..K.............
	0x0020 00 00 00 00 00 00 00 00 00 00 00 00 00 00 00 00  ................
	0x0030 00 00 00 00 00 00 00 00 00 00 00 00 00 00 00 00  ................
	0x0040 04 00 00 00 00 00 00 00                          ........
	rel 24+8 t=1 type..eqfunc.[4]complex128+0
	rel 32+8 t=1 runtime.gcbits.+0
	rel 40+4 t=5 type..namedata.*[4]complex128-+0
	rel 44+4 t=6 type.*[4]complex128+0
	rel 48+8 t=1 type.complex128+0
	rel 56+8 t=1 type.[]complex128+0
type.*[4]complex128 SRODATA dupok size=56
	0x0000 08 00 00 00 00 00 00 00 08 00 00 00 00 00 00 00  ................
	0x0010 84 77 d4 30 08 08 08 36 00 00 00 00 00 00 00 00  .w.0...6........
	0x0020 00 00 00 00 00 00 00 00 00 00 00 00 00 00 00 00  ................
	0x0030 00 00 00 00 00 00 00 00                          ........
	rel 24+8 t=1 runtime.memequal64·f+0
	rel 32+8 t=1 runtime.gcbits.01+0
	rel 40+4 t=5 type..namedata.*[4]complex128-+0
	rel 48+8 t=1 type.[4]complex128+0
runtime.memequal128·f SRODATA dupok size=8
	0x0000 00 00 00 00 00 00 00 00                          ........
	rel 0+8 t=1 runtime.memequal128+0
type..namedata.*[4]int32- SRODATA dupok size=12
	0x0000 00 00 09 2a 5b 34 5d 69 6e 74 33 32              ...*[4]int32
type.[4]int32 SRODATA dupok size=72
	0x0000 10 00 00 00 00 00 00 00 00 00 00 00 00 00 00 00  ................
	0x0010 f2 c3 c8 7b 0a 04 04 11 00 00 00 00 00 00 00 00  ...{............
	0x0020 00 00 00 00 00 00 00 00 00 00 00 00 00 00 00 00  ................
	0x0030 00 00 00 00 00 00 00 00 00 00 00 00 00 00 00 00  ................
	0x0040 04 00 00 00 00 00 00 00                          ........
	rel 24+8 t=1 runtime.memequal128·f+0
	rel 32+8 t=1 runtime.gcbits.+0
	rel 40+4 t=5 type..namedata.*[4]int32-+0
	rel 44+4 t=6 type.*[4]int32+0
	rel 48+8 t=1 type.int32+0
	rel 56+8 t=1 type.[]int32+0
type.*[4]int32 SRODATA dupok size=56
	0x0000 08 00 00 00 00 00 00 00 08 00 00 00 00 00 00 00  ................
	0x0010 2b 85 ed 45 08 08 08 36 00 00 00 00 00 00 00 00  +..E...6........
	0x0020 00 00 00 00 00 00 00 00 00 00 00 00 00 00 00 00  ................
	0x0030 00 00 00 00 00 00 00 00                          ........
	rel 24+8 t=1 runtime.memequal64·f+0
	rel 32+8 t=1 runtime.gcbits.01+0
	rel 40+4 t=5 type..namedata.*[4]int32-+0
	rel 48+8 t=1 type.[4]int32+0
type..eqfunc32 SRODATA dupok size=16
	0x0000 00 00 00 00 00 00 00 00 20 00 00 00 00 00 00 00  ........ .......
	rel 0+8 t=1 runtime.memequal_varlen+0
type..namedata.*[4]int64- SRODATA dupok size=12
	0x0000 00 00 09 2a 5b 34 5d 69 6e 74 36 34              ...*[4]int64
type.[4]int64 SRODATA dupok size=72
	0x0000 20 00 00 00 00 00 00 00 00 00 00 00 00 00 00 00   ...............
	0x0010 04 b6 ce b5 0a 08 08 11 00 00 00 00 00 00 00 00  ................
	0x0020 00 00 00 00 00 00 00 00 00 00 00 00 00 00 00 00  ................
	0x0030 00 00 00 00 00 00 00 00 00 00 00 00 00 00 00 00  ................
	0x0040 04 00 00 00 00 00 00 00                          ........
	rel 24+8 t=1 type..eqfunc32+0
	rel 32+8 t=1 runtime.gcbits.+0
	rel 40+4 t=5 type..namedata.*[4]int64-+0
	rel 44+4 t=6 type.*[4]int64+0
	rel 48+8 t=1 type.int64+0
	rel 56+8 t=1 type.[]int64+0
type.*[4]int64 SRODATA dupok size=56
	0x0000 08 00 00 00 00 00 00 00 08 00 00 00 00 00 00 00  ................
	0x0010 27 22 8e 0c 08 08 08 36 00 00 00 00 00 00 00 00  '".....6........
	0x0020 00 00 00 00 00 00 00 00 00 00 00 00 00 00 00 00  ................
	0x0030 00 00 00 00 00 00 00 00                          ........
	rel 24+8 t=1 runtime.memequal64·f+0
	rel 32+8 t=1 runtime.gcbits.01+0
	rel 40+4 t=5 type..namedata.*[4]int64-+0
	rel 48+8 t=1 type.[4]int64+0
runtime.memequal32·f SRODATA dupok size=8
	0x0000 00 00 00 00 00 00 00 00                          ........
	rel 0+8 t=1 runtime.memequal32+0
type..namedata.*[4]int8- SRODATA dupok size=11
	0x0000 00 00 08 2a 5b 34 5d 69 6e 74 38                 ...*[4]int8
type.[4]int8 SRODATA dupok size=72
	0x0000 04 00 00 00 00 00 00 00 00 00 00 00 00 00 00 00  ................
	0x0010 00 52 5d ca 0a 01 01 11 00 00 00 00 00 00 00 00  .R].............
	0x0020 00 00 00 00 00 00 00 00 00 00 00 00 00 00 00 00  ................
	0x0030 00 00 00 00 00 00 00 00 00 00 00 00 00 00 00 00  ................
	0x0040 04 00 00 00 00 00 00 00                          ........
	rel 24+8 t=1 runtime.memequal32·f+0
	rel 32+8 t=1 runtime.gcbits.+0
	rel 40+4 t=5 type..namedata.*[4]int8-+0
	rel 44+4 t=6 type.*[4]int8+0
	rel 48+8 t=1 type.int8+0
	rel 56+8 t=1 type.[]int8+0
type.*[4]int8 SRODATA dupok size=56
	0x0000 08 00 00 00 00 00 00 00 08 00 00 00 00 00 00 00  ................
	0x0010 84 f6 44 2d 08 08 08 36 00 00 00 00 00 00 00 00  ..D-...6........
	0x0020 00 00 00 00 00 00 00 00 00 00 00 00 00 00 00 00  ................
	0x0030 00 00 00 00 00 00 00 00                          ........
	rel 24+8 t=1 runtime.memequal64·f+0
	rel 32+8 t=1 runtime.gcbits.01+0
	rel 40+4 t=5 type..namedata.*[4]int8-+0
	rel 48+8 t=1 type.[4]int8+0
type..eqfunc.[4]string SRODATA dupok size=8
	0x0000 00 00 00 00 00 00 00 00                          ........
	rel 0+8 t=1 type..eq.[4]string+0
runtime.gcbits.55 SRODATA dupok size=1
	0x0000 55                                               U
type..namedata.*[4]string- SRODATA dupok size=13
	0x0000 00 00 0a 2a 5b 34 5d 73 74 72 69 6e 67           ...*[4]string
type.[4]string SRODATA dupok size=72
	0x0000 40 00 00 00 00 00 00 00 38 00 00 00 00 00 00 00  @.......8.......
	0x0010 11 d0 a3 4a 02 08 08 11 00 00 00 00 00 00 00 00  ...J............
	0x0020 00 00 00 00 00 00 00 00 00 00 00 00 00 00 00 00  ................
	0x0030 00 00 00 00 00 00 00 00 00 00 00 00 00 00 00 00  ................
	0x0040 04 00 00 00 00 00 00 00                          ........
	rel 24+8 t=1 type..eqfunc.[4]string+0
	rel 32+8 t=1 runtime.gcbits.55+0
	rel 40+4 t=5 type..namedata.*[4]string-+0
	rel 44+4 t=6 type.*[4]string+0
	rel 48+8 t=1 type.string+0
	rel 56+8 t=1 type.[]string+0
type.*[4]string SRODATA dupok size=56
	0x0000 08 00 00 00 00 00 00 00 08 00 00 00 00 00 00 00  ................
	0x0010 e0 18 69 6b 08 08 08 36 00 00 00 00 00 00 00 00  ..ik...6........
	0x0020 00 00 00 00 00 00 00 00 00 00 00 00 00 00 00 00  ................
	0x0030 00 00 00 00 00 00 00 00                          ........
	rel 24+8 t=1 runtime.memequal64·f+0
	rel 32+8 t=1 runtime.gcbits.01+0
	rel 40+4 t=5 type..namedata.*[4]string-+0
	rel 48+8 t=1 type.[4]string+0
type..namedata.*[32]uint8- SRODATA dupok size=13
	0x0000 00 00 0a 2a 5b 33 32 5d 75 69 6e 74 38           ...*[32]uint8
type.*[32]uint8 SRODATA dupok size=56
	0x0000 08 00 00 00 00 00 00 00 08 00 00 00 00 00 00 00  ................
	0x0010 f4 c7 79 15 08 08 08 36 00 00 00 00 00 00 00 00  ..y....6........
	0x0020 00 00 00 00 00 00 00 00 00 00 00 00 00 00 00 00  ................
	0x0030 00 00 00 00 00 00 00 00                          ........
	rel 24+8 t=1 runtime.memequal64·f+0
	rel 32+8 t=1 runtime.gcbits.01+0
	rel 40+4 t=5 type..namedata.*[32]uint8-+0
	rel 48+8 t=1 type.[32]uint8+0
type.[32]uint8 SRODATA dupok size=72
	0x0000 20 00 00 00 00 00 00 00 00 00 00 00 00 00 00 00   ...............
	0x0010 9c 59 ff a8 0a 01 01 11 00 00 00 00 00 00 00 00  .Y..............
	0x0020 00 00 00 00 00 00 00 00 00 00 00 00 00 00 00 00  ................
	0x0030 00 00 00 00 00 00 00 00 00 00 00 00 00 00 00 00  ................
	0x0040 20 00 00 00 00 00 00 00                           .......
	rel 24+8 t=1 type..eqfunc32+0
	rel 32+8 t=1 runtime.gcbits.+0
	rel 40+4 t=5 type..namedata.*[32]uint8-+0
	rel 44+4 t=6 type.*[32]uint8+0
	rel 48+8 t=1 type.uint8+0
	rel 56+8 t=1 type.[]uint8+0
runtime.c128hash·f SRODATA dupok size=8
	0x0000 00 00 00 00 00 00 00 00                          ........
	rel 0+8 t=1 runtime.c128hash+0
type..namedata.*map[complex128][]complex128- SRODATA dupok size=31
	0x0000 00 00 1c 2a 6d 61 70 5b 63 6f 6d 70 6c 65 78 31  ...*map[complex1
	0x0010 32 38 5d 5b 5d 63 6f 6d 70 6c 65 78 31 32 38     28][]complex128
type.*map[complex128][]complex128 SRODATA dupok size=56
	0x0000 08 00 00 00 00 00 00 00 08 00 00 00 00 00 00 00  ................
	0x0010 89 cc 08 fe 08 08 08 36 00 00 00 00 00 00 00 00  .......6........
	0x0020 00 00 00 00 00 00 00 00 00 00 00 00 00 00 00 00  ................
	0x0030 00 00 00 00 00 00 00 00                          ........
	rel 24+8 t=1 runtime.memequal64·f+0
	rel 32+8 t=1 runtime.gcbits.01+0
	rel 40+4 t=5 type..namedata.*map[complex128][]complex128-+0
	rel 48+8 t=1 type.map[complex128][]complex128+0
type.map[complex128][]complex128 SRODATA dupok size=88
	0x0000 08 00 00 00 00 00 00 00 08 00 00 00 00 00 00 00  ................
	0x0010 e4 0b 2a db 02 08 08 35 00 00 00 00 00 00 00 00  ..*....5........
	0x0020 00 00 00 00 00 00 00 00 00 00 00 00 00 00 00 00  ................
	0x0030 00 00 00 00 00 00 00 00 00 00 00 00 00 00 00 00  ................
	0x0040 00 00 00 00 00 00 00 00 00 00 00 00 00 00 00 00  ................
	0x0050 10 18 50 01 08 00 00 00                          ..P.....
	rel 32+8 t=1 runtime.gcbits.01+0
	rel 40+4 t=5 type..namedata.*map[complex128][]complex128-+0
	rel 44+4 t=6 type.*map[complex128][]complex128+0
	rel 48+8 t=1 type.complex128+0
	rel 56+8 t=1 type.[]complex128+0
	rel 64+8 t=1 type.noalg.map.bucket[complex128][]complex128+0
	rel 72+8 t=1 runtime.c128hash·f+0
type..namedata.*map[complex128]complex128- SRODATA dupok size=29
	0x0000 00 00 1a 2a 6d 61 70 5b 63 6f 6d 70 6c 65 78 31  ...*map[complex1
	0x0010 32 38 5d 63 6f 6d 70 6c 65 78 31 32 38           28]complex128
type.*map[complex128]complex128 SRODATA dupok size=56
	0x0000 08 00 00 00 00 00 00 00 08 00 00 00 00 00 00 00  ................
	0x0010 98 34 e9 1c 08 08 08 36 00 00 00 00 00 00 00 00  .4.....6........
	0x0020 00 00 00 00 00 00 00 00 00 00 00 00 00 00 00 00  ................
	0x0030 00 00 00 00 00 00 00 00                          ........
	rel 24+8 t=1 runtime.memequal64·f+0
	rel 32+8 t=1 runtime.gcbits.01+0
	rel 40+4 t=5 type..namedata.*map[complex128]complex128-+0
	rel 48+8 t=1 type.map[complex128]complex128+0
type.map[complex128]complex128 SRODATA dupok size=88
	0x0000 08 00 00 00 00 00 00 00 08 00 00 00 00 00 00 00  ................
	0x0010 48 85 32 80 02 08 08 35 00 00 00 00 00 00 00 00  H.2....5........
	0x0020 00 00 00 00 00 00 00 00 00 00 00 00 00 00 00 00  ................
	0x0030 00 00 00 00 00 00 00 00 00 00 00 00 00 00 00 00  ................
	0x0040 00 00 00 00 00 00 00 00 00 00 00 00 00 00 00 00  ................
	0x0050 10 10 10 01 08 00 00 00                          ........
	rel 32+8 t=1 runtime.gcbits.01+0
	rel 40+4 t=5 type..namedata.*map[complex128]complex128-+0
	rel 44+4 t=6 type.*map[complex128]complex128+0
	rel 48+8 t=1 type.complex128+0
	rel 56+8 t=1 type.complex128+0
	rel 64+8 t=1 type.noalg.map.bucket[complex128]complex128+0
	rel 72+8 t=1 runtime.c128hash·f+0
runtime.memhash32·f SRODATA dupok size=8
	0x0000 00 00 00 00 00 00 00 00                          ........
	rel 0+8 t=1 runtime.memhash32+0
type..namedata.*map[int32][]int32- SRODATA dupok size=21
	0x0000 00 00 12 2a 6d 61 70 5b 69 6e 74 33 32 5d 5b 5d  ...*map[int32][]
	0x0010 69 6e 74 33 32                                   int32
type.*map[int32][]int32 SRODATA dupok size=56
	0x0000 08 00 00 00 00 00 00 00 08 00 00 00 00 00 00 00  ................
	0x0010 07 08 4f 85 08 08 08 36 00 00 00 00 00 00 00 00  ..O....6........
	0x0020 00 00 00 00 00 00 00 00 00 00 00 00 00 00 00 00  ................
	0x0030 00 00 00 00 00 00 00 00                          ........
	rel 24+8 t=1 runtime.memequal64·f+0
	rel 32+8 t=1 runtime.gcbits.01+0
	rel 40+4 t=5 type..namedata.*map[int32][]int32-+0
	rel 48+8 t=1 type.map[int32][]int32+0
type.map[int32][]int32 SRODATA dupok size=88
	0x0000 08 00 00 00 00 00 00 00 08 00 00 00 00 00 00 00  ................
	0x0010 15 a6 69 05 02 08 08 35 00 00 00 00 00 00 00 00  ..i....5........
	0x0020 00 00 00 00 00 00 00 00 00 00 00 00 00 00 00 00  ................
	0x0030 00 00 00 00 00 00 00 00 00 00 00 00 00 00 00 00  ................
	0x0040 00 00 00 00 00 00 00 00 00 00 00 00 00 00 00 00  ................
	0x0050 04 18 f0 00 04 00 00 00                          ........
	rel 32+8 t=1 runtime.gcbits.01+0
	rel 40+4 t=5 type..namedata.*map[int32][]int32-+0
	rel 44+4 t=6 type.*map[int32][]int32+0
	rel 48+8 t=1 type.int32+0
	rel 56+8 t=1 type.[]int32+0
	rel 64+8 t=1 type.noalg.map.bucket[int32][]int32+0
	rel 72+8 t=1 runtime.memhash32·f+0
type..namedata.*map[int32]int32- SRODATA dupok size=19
	0x0000 00 00 10 2a 6d 61 70 5b 69 6e 74 33 32 5d 69 6e  ...*map[int32]in
	0x0010 74 33 32                                         t32
type.*map[int32]int32 SRODATA dupok size=56
	0x0000 08 00 00 00 00 00 00 00 08 00 00 00 00 00 00 00  ................
	0x0010 0f da 82 b3 08 08 08 36 00 00 00 00 00 00 00 00  .......6........
	0x0020 00 00 00 00 00 00 00 00 00 00 00 00 00 00 00 00  ................
	0x0030 00 00 00 00 00 00 00 00                          ........
	rel 24+8 t=1 runtime.memequal64·f+0
	rel 32+8 t=1 runtime.gcbits.01+0
	rel 40+4 t=5 type..namedata.*map[int32]int32-+0
	rel 48+8 t=1 type.map[int32]int32+0
type.map[int32]int32 SRODATA dupok size=88
	0x0000 08 00 00 00 00 00 00 00 08 00 00 00 00 00 00 00  ................
	0x0010 22 50 28 34 02 08 08 35 00 00 00 00 00 00 00 00  "P(4...5........
	0x0020 00 00 00 00 00 00 00 00 00 00 00 00 00 00 00 00  ................
	0x0030 00 00 00 00 00 00 00 00 00 00 00 00 00 00 00 00  ................
	0x0040 00 00 00 00 00 00 00 00 00 00 00 00 00 00 00 00  ................
	0x0050 04 04 50 00 04 00 00 00                          ..P.....
	rel 32+8 t=1 runtime.gcbits.01+0
	rel 40+4 t=5 type..namedata.*map[int32]int32-+0
	rel 44+4 t=6 type.*map[int32]int32+0
	rel 48+8 t=1 type.int32+0
	rel 56+8 t=1 type.int32+0
	rel 64+8 t=1 type.noalg.map.bucket[int32]int32+0
	rel 72+8 t=1 runtime.memhash32·f+0
runtime.memhash64·f SRODATA dupok size=8
	0x0000 00 00 00 00 00 00 00 00                          ........
	rel 0+8 t=1 runtime.memhash64+0
type..namedata.*map[int64][]int64- SRODATA dupok size=21
	0x0000 00 00 12 2a 6d 61 70 5b 69 6e 74 36 34 5d 5b 5d  ...*map[int64][]
	0x0010 69 6e 74 36 34                                   int64
type.*map[int64][]int64 SRODATA dupok size=56
	0x0000 08 00 00 00 00 00 00 00 08 00 00 00 00 00 00 00  ................
	0x0010 d2 54 6d 75 08 08 08 36 00 00 00 00 00 00 00 00  .Tmu...6........
	0x0020 00 00 00 00 00 00 00 00 00 00 00 00 00 00 00 00  ................
	0x0030 00 00 00 00 00 00 00 00                          ........
	rel 24+8 t=1 runtime.memequal64·f+0
	rel 32+8 t=1 runtime.gcbits.01+0
	rel 40+4 t=5 type..namedata.*map[int64][]int64-+0
	rel 48+8 t=1 type.map[int64][]int64+0
type.map[int64][]int64 SRODATA dupok size=88
	0x0000 08 00 00 00 00 00 00 00 08 00 00 00 00 00 00 00  ................
	0x0010 cc 55 d5 9e 02 08 08 35 00 00 00 00 00 00 00 00  .U.....5........
	0x0020 00 00 00 00 00 00 00 00 00 00 00 00 00 00 00 00  ................
	0x0030 00 00 00 00 00 00 00 00 00 00 00 00 00 00 00 00  ................
	0x0040 00 00 00 00 00 00 00 00 00 00 00 00 00 00 00 00  ................
	0x0050 08 18 10 01 04 00 00 00                          ........
	rel 32+8 t=1 runtime.gcbits.01+0
	rel 40+4 t=5 type..namedata.*map[int64][]int64-+0
	rel 44+4 t=6 type.*map[int64][]int64+0
	rel 48+8 t=1 type.int64+0
	rel 56+8 t=1 type.[]int64+0
	rel 64+8 t=1 type.noalg.map.bucket[int64][]int64+0
	rel 72+8 t=1 runtime.memhash64·f+0
type..namedata.*map[int64]int64- SRODATA dupok size=19
	0x0000 00 00 10 2a 6d 61 70 5b 69 6e 74 36 34 5d 69 6e  ...*map[int64]in
	0x0010 74 36 34                                         t64
type.*map[int64]int64 SRODATA dupok size=56
	0x0000 08 00 00 00 00 00 00 00 08 00 00 00 00 00 00 00  ................
	0x0010 d1 14 ff d7 08 08 08 36 00 00 00 00 00 00 00 00  .......6........
	0x0020 00 00 00 00 00 00 00 00 00 00 00 00 00 00 00 00  ................
	0x0030 00 00 00 00 00 00 00 00                          ........
	rel 24+8 t=1 runtime.memequal64·f+0
	rel 32+8 t=1 runtime.gcbits.01+0
	rel 40+4 t=5 type..namedata.*map[int64]int64-+0
	rel 48+8 t=1 type.map[int64]int64+0
type.map[int64]int64 SRODATA dupok size=88
	0x0000 08 00 00 00 00 00 00 00 08 00 00 00 00 00 00 00  ................
	0x0010 9c 10 d3 02 02 08 08 35 00 00 00 00 00 00 00 00  .......5........
	0x0020 00 00 00 00 00 00 00 00 00 00 00 00 00 00 00 00  ................
	0x0030 00 00 00 00 00 00 00 00 00 00 00 00 00 00 00 00  ................
	0x0040 00 00 00 00 00 00 00 00 00 00 00 00 00 00 00 00  ................
	0x0050 08 08 90 00 04 00 00 00                          ........
	rel 32+8 t=1 runtime.gcbits.01+0
	rel 40+4 t=5 type..namedata.*map[int64]int64-+0
	rel 44+4 t=6 type.*map[int64]int64+0
	rel 48+8 t=1 type.int64+0
	rel 56+8 t=1 type.int64+0
	rel 64+8 t=1 type.noalg.map.bucket[int64]int64+0
	rel 72+8 t=1 runtime.memhash64·f+0
runtime.memhash8·f SRODATA dupok size=8
	0x0000 00 00 00 00 00 00 00 00                          ........
	rel 0+8 t=1 runtime.memhash8+0
type..namedata.*map[int8][]int8- SRODATA dupok size=19
	0x0000 00 00 10 2a 6d 61 70 5b 69 6e 74 38 5d 5b 5d 69  ...*map[int8][]i
	0x0010 6e 74 38                                         nt8
type.*map[int8][]int8 SRODATA dupok size=56
	0x0000 08 00 00 00 00 00 00 00 08 00 00 00 00 00 00 00  ................
	0x0010 2b 54 eb e7 08 08 08 36 00 00 00 00 00 00 00 00  +T.....6........
	0x0020 00 00 00 00 00 00 00 00 00 00 00 00 00 00 00 00  ................
	0x0030 00 00 00 00 00 00 00 00                          ........
	rel 24+8 t=1 runtime.memequal64·f+0
	rel 32+8 t=1 runtime.gcbits.01+0
	rel 40+4 t=5 type..namedata.*map[int8][]int8-+0
	rel 48+8 t=1 type.map[int8][]int8+0
type.map[int8][]int8 SRODATA dupok size=88
	0x0000 08 00 00 00 00 00 00 00 08 00 00 00 00 00 00 00  ................
	0x0010 63 55 c9 a8 02 08 08 35 00 00 00 00 00 00 00 00  cU.....5........
	0x0020 00 00 00 00 00 00 00 00 00 00 00 00 00 00 00 00  ................
	0x0030 00 00 00 00 00 00 00 00 00 00 00 00 00 00 00 00  ................
	0x0040 00 00 00 00 00 00 00 00 00 00 00 00 00 00 00 00  ................
	0x0050 01 18 d8 00 04 00 00 00                          ........
	rel 32+8 t=1 runtime.gcbits.01+0
	rel 40+4 t=5 type..namedata.*map[int8][]int8-+0
	rel 44+4 t=6 type.*map[int8][]int8+0
	rel 48+8 t=1 type.int8+0
	rel 56+8 t=1 type.[]int8+0
	rel 64+8 t=1 type.noalg.map.bucket[int8][]int8+0
	rel 72+8 t=1 runtime.memhash8·f+0
type..namedata.*map[int8]int8- SRODATA dupok size=17
	0x0000 00 00 0e 2a 6d 61 70 5b 69 6e 74 38 5d 69 6e 74  ...*map[int8]int
	0x0010 38                                               8
type.*map[int8]int8 SRODATA dupok size=56
	0x0000 08 00 00 00 00 00 00 00 08 00 00 00 00 00 00 00  ................
	0x0010 7d 72 ad 66 08 08 08 36 00 00 00 00 00 00 00 00  }r.f...6........
	0x0020 00 00 00 00 00 00 00 00 00 00 00 00 00 00 00 00  ................
	0x0030 00 00 00 00 00 00 00 00                          ........
	rel 24+8 t=1 runtime.memequal64·f+0
	rel 32+8 t=1 runtime.gcbits.01+0
	rel 40+4 t=5 type..namedata.*map[int8]int8-+0
	rel 48+8 t=1 type.map[int8]int8+0
type.map[int8]int8 SRODATA dupok size=88
	0x0000 08 00 00 00 00 00 00 00 08 00 00 00 00 00 00 00  ................
	0x0010 c5 ca be 7a 02 08 08 35 00 00 00 00 00 00 00 00  ...z...5........
	0x0020 00 00 00 00 00 00 00 00 00 00 00 00 00 00 00 00  ................
	0x0030 00 00 00 00 00 00 00 00 00 00 00 00 00 00 00 00  ................
	0x0040 00 00 00 00 00 00 00 00 00 00 00 00 00 00 00 00  ................
	0x0050 01 01 20 00 04 00 00 00                          .. .....
	rel 32+8 t=1 runtime.gcbits.01+0
	rel 40+4 t=5 type..namedata.*map[int8]int8-+0
	rel 44+4 t=6 type.*map[int8]int8+0
	rel 48+8 t=1 type.int8+0
	rel 56+8 t=1 type.int8+0
	rel 64+8 t=1 type.noalg.map.bucket[int8]int8+0
	rel 72+8 t=1 runtime.memhash8·f+0
runtime.strhash·f SRODATA dupok size=8
	0x0000 00 00 00 00 00 00 00 00                          ........
	rel 0+8 t=1 runtime.strhash+0
type..namedata.*map[string][]string- SRODATA dupok size=23
	0x0000 00 00 14 2a 6d 61 70 5b 73 74 72 69 6e 67 5d 5b  ...*map[string][
	0x0010 5d 73 74 72 69 6e 67                             ]string
type.*map[string][]string SRODATA dupok size=56
	0x0000 08 00 00 00 00 00 00 00 08 00 00 00 00 00 00 00  ................
	0x0010 bb 02 d9 02 08 08 08 36 00 00 00 00 00 00 00 00  .......6........
	0x0020 00 00 00 00 00 00 00 00 00 00 00 00 00 00 00 00  ................
	0x0030 00 00 00 00 00 00 00 00                          ........
	rel 24+8 t=1 runtime.memequal64·f+0
	rel 32+8 t=1 runtime.gcbits.01+0
	rel 40+4 t=5 type..namedata.*map[string][]string-+0
	rel 48+8 t=1 type.map[string][]string+0
type.map[string][]string SRODATA dupok size=88
	0x0000 08 00 00 00 00 00 00 00 08 00 00 00 00 00 00 00  ................
	0x0010 27 9d 3e 40 02 08 08 35 00 00 00 00 00 00 00 00  '.>@...5........
	0x0020 00 00 00 00 00 00 00 00 00 00 00 00 00 00 00 00  ................
	0x0030 00 00 00 00 00 00 00 00 00 00 00 00 00 00 00 00  ................
	0x0040 00 00 00 00 00 00 00 00 00 00 00 00 00 00 00 00  ................
	0x0050 10 18 50 01 0c 00 00 00                          ..P.....
	rel 32+8 t=1 runtime.gcbits.01+0
	rel 40+4 t=5 type..namedata.*map[string][]string-+0
	rel 44+4 t=6 type.*map[string][]string+0
	rel 48+8 t=1 type.string+0
	rel 56+8 t=1 type.[]string+0
	rel 64+8 t=1 type.noalg.map.bucket[string][]string+0
	rel 72+8 t=1 runtime.strhash·f+0
type..namedata.*map[string]string- SRODATA dupok size=21
	0x0000 00 00 12 2a 6d 61 70 5b 73 74 72 69 6e 67 5d 73  ...*map[string]s
	0x0010 74 72 69 6e 67                                   tring
type.*map[string]string SRODATA dupok size=56
	0x0000 08 00 00 00 00 00 00 00 08 00 00 00 00 00 00 00  ................
	0x0010 73 20 6b d9 08 08 08 36 00 00 00 00 00 00 00 00  s k....6........
	0x0020 00 00 00 00 00 00 00 00 00 00 00 00 00 00 00 00  ................
	0x0030 00 00 00 00 00 00 00 00                          ........
	rel 24+8 t=1 runtime.memequal64·f+0
	rel 32+8 t=1 runtime.gcbits.01+0
	rel 40+4 t=5 type..namedata.*map[string]string-+0
	rel 48+8 t=1 type.map[string]string+0
type.map[string]string SRODATA dupok size=88
	0x0000 08 00 00 00 00 00 00 00 08 00 00 00 00 00 00 00  ................
	0x0010 59 a1 e7 29 02 08 08 35 00 00 00 00 00 00 00 00  Y..)...5........
	0x0020 00 00 00 00 00 00 00 00 00 00 00 00 00 00 00 00  ................
	0x0030 00 00 00 00 00 00 00 00 00 00 00 00 00 00 00 00  ................
	0x0040 00 00 00 00 00 00 00 00 00 00 00 00 00 00 00 00  ................
	0x0050 10 10 10 01 0c 00 00 00                          ........
	rel 32+8 t=1 runtime.gcbits.01+0
	rel 40+4 t=5 type..namedata.*map[string]string-+0
	rel 44+4 t=6 type.*map[string]string+0
	rel 48+8 t=1 type.string+0
	rel 56+8 t=1 type.string+0
	rel 64+8 t=1 type.noalg.map.bucket[string]string+0
	rel 72+8 t=1 runtime.strhash·f+0
gclocals·69c1753bd5f81501d95132d08af04464 SRODATA dupok size=8
	0x0000 02 00 00 00 00 00 00 00                          ........
gclocals·d9a525d1de6bc16975a5efbb873db17d SRODATA dupok size=10
	0x0000 02 00 00 00 06 00 00 00 00 2c                    .........,
"".mapCompoundAssignmentInt8.stkobj SRODATA size=24
	0x0000 01 00 00 00 00 00 00 00 d0 ff ff ff ff ff ff ff  ................
	0x0010 00 00 00 00 00 00 00 00                          ........
	rel 16+8 t=1 type.noalg.map.hdr[int8]int8+0
"".mapCompoundAssignmentInt32.stkobj SRODATA size=24
	0x0000 01 00 00 00 00 00 00 00 d0 ff ff ff ff ff ff ff  ................
	0x0010 00 00 00 00 00 00 00 00                          ........
	rel 16+8 t=1 type.noalg.map.hdr[int32]int32+0
"".mapCompoundAssignmentInt64.stkobj SRODATA size=24
	0x0000 01 00 00 00 00 00 00 00 d0 ff ff ff ff ff ff ff  ................
	0x0010 00 00 00 00 00 00 00 00                          ........
	rel 16+8 t=1 type.noalg.map.hdr[int64]int64+0
"".mapCompoundAssignmentComplex128.stkobj SRODATA size=24
	0x0000 01 00 00 00 00 00 00 00 d0 ff ff ff ff ff ff ff  ................
	0x0010 00 00 00 00 00 00 00 00                          ........
	rel 16+8 t=1 type.noalg.map.hdr[complex128]complex128+0
gclocals·7d2d5fca80364273fb07d5820a76fef4 SRODATA dupok size=8
	0x0000 03 00 00 00 00 00 00 00                          ........
gclocals·cca43574d20c4a817adb4230eb0ff56a SRODATA dupok size=26
	0x0000 03 00 00 00 29 00 00 00 00 00 00 00 00 00 58 00  ....).........X.
	0x0010 00 00 00 00 01 00 00 00 00 00                    ..........
"".mapCompoundAssignmentString.stkobj SRODATA size=40
	0x0000 02 00 00 00 00 00 00 00 c0 fe ff ff ff ff ff ff  ................
	0x0010 00 00 00 00 00 00 00 00 f0 fe ff ff ff ff ff ff  ................
	0x0020 00 00 00 00 00 00 00 00                          ........
	rel 16+8 t=1 type.noalg.map.hdr[string]string+0
	rel 32+8 t=1 type.noalg.map.bucket[string]string+0
gclocals·7be4bbacbfdb05fb3044e36c22b41e8b SRODATA dupok size=8
	0x0000 0a 00 00 00 00 00 00 00                          ........
gclocals·f572082638f2312fa4bc552970ce2ab5 SRODATA dupok size=68
	0x0000 0a 00 00 00 29 00 00 00 00 00 00 00 00 00 00 2c  ....)..........,
	0x0010 00 00 00 00 80 2c 00 00 00 00 40 2c 00 00 00 00  .....,....@,....
	0x0020 20 2c 00 00 00 00 30 2c 00 00 00 00 08 2c 00 00   ,....0,.....,..
	0x0030 00 00 04 2c 00 00 00 00 02 00 00 00 00 00 01 2c  ...,...........,
	0x0040 00 00 00 00                                      ....
"".mapAppendAssignmentInt8.stkobj SRODATA size=40
	0x0000 02 00 00 00 00 00 00 00 f8 fe ff ff ff ff ff ff  ................
	0x0010 00 00 00 00 00 00 00 00 28 ff ff ff ff ff ff ff  ........(.......
	0x0020 00 00 00 00 00 00 00 00                          ........
	rel 16+8 t=1 type.noalg.map.hdr[int8][]int8+0
	rel 32+8 t=1 type.noalg.map.bucket[int8][]int8+0
gclocals·4fa7057c58c2d03901de93a4f5272815 SRODATA dupok size=68
	0x0000 0a 00 00 00 2b 00 00 00 00 00 00 00 00 00 00 16  ....+...........
	0x0010 00 00 00 00 40 16 00 00 00 00 20 16 00 00 00 00  ....@..... .....
	0x0020 20 00 00 00 00 00 50 16 00 00 00 00 48 16 00 00   .....P.....H...
	0x0030 00 00 44 16 00 00 00 00 02 16 00 00 00 00 01 16  ..D.............
	0x0040 00 00 00 00                                      ....
"".mapAppendAssignmentInt32.stkobj SRODATA size=40
	0x0000 02 00 00 00 00 00 00 00 e0 fe ff ff ff ff ff ff  ................
	0x0010 00 00 00 00 00 00 00 00 10 ff ff ff ff ff ff ff  ................
	0x0020 00 00 00 00 00 00 00 00                          ........
	rel 16+8 t=1 type.noalg.map.hdr[int32][]int32+0
	rel 32+8 t=1 type.noalg.map.bucket[int32][]int32+0
gclocals·e8db777ce92139db987e9ac3a2e92eec SRODATA dupok size=8
	0x0000 0d 00 00 00 00 00 00 00                          ........
gclocals·5c1c843c20f598b50cb7e23096597f5d SRODATA dupok size=86
	0x0000 0d 00 00 00 2f 00 00 00 00 00 00 00 00 00 00 16  ..../...........
	0x0010 00 00 00 00 40 16 00 00 00 00 70 16 00 00 00 00  ....@.....p.....
	0x0020 58 16 00 00 00 00 54 16 00 00 00 00 10 16 00 00  X.....T.........
	0x0030 00 00 10 00 00 00 00 00 44 16 00 00 00 00 48 16  ........D.....H.
	0x0040 00 00 00 00 60 16 00 00 00 00 02 16 00 00 00 00  ....`...........
	0x0050 01 16 00 00 00 00                                ......
"".mapAppendAssignmentInt64.stkobj SRODATA size=40
	0x0000 02 00 00 00 00 00 00 00 c0 fe ff ff ff ff ff ff  ................
	0x0010 00 00 00 00 00 00 00 00 f0 fe ff ff ff ff ff ff  ................
	0x0020 00 00 00 00 00 00 00 00                          ........
	rel 16+8 t=1 type.noalg.map.hdr[int64][]int64+0
	rel 32+8 t=1 type.noalg.map.bucket[int64][]int64+0
gclocals·2823ac4e7cf6a2c67bb66256072bca1e SRODATA dupok size=78
	0x0000 0a 00 00 00 38 00 00 00 00 00 00 00 00 00 00 00  ....8...........
	0x0010 2c 00 00 00 00 00 80 2c 00 00 00 00 00 40 2c 00  ,......,.....@,.
	0x0020 00 00 00 00 20 2c 00 00 00 00 00 30 2c 00 00 00  .... ,.....0,...
	0x0030 00 00 08 2c 00 00 00 00 00 04 2c 00 00 00 00 00  ...,......,.....
	0x0040 02 00 00 00 00 00 00 01 2c 00 00 00 00 00        ........,.....
"".mapAppendAssignmentComplex128.stkobj SRODATA size=40
	0x0000 02 00 00 00 00 00 00 00 80 fe ff ff ff ff ff ff  ................
	0x0010 00 00 00 00 00 00 00 00 b0 fe ff ff ff ff ff ff  ................
	0x0020 00 00 00 00 00 00 00 00                          ........
	rel 16+8 t=1 type.noalg.map.hdr[complex128][]complex128+0
	rel 32+8 t=1 type.noalg.map.bucket[complex128][]complex128+0
gclocals·0ce64bbc7cfa5ef04d41c861de81a3d7 SRODATA dupok size=8
	0x0000 08 00 00 00 00 00 00 00                          ........
gclocals·92bb597c1e9368f54b35bd5a04b27c1f SRODATA dupok size=64
	0x0000 08 00 00 00 33 00 00 00 00 00 00 00 00 00 00 60  ....3..........`
	0x0010 01 00 00 00 00 00 64 01 00 00 00 00 00 67 01 00  ......d......g..
	0x0020 00 00 00 00 61 01 00 00 00 00 00 01 00 00 00 00  ....a...........
	0x0030 00 00 66 01 00 00 00 00 00 62 01 00 00 00 00 00  ..f......b......
"".mapAppendAssignmentString.stkobj SRODATA size=40
	0x0000 02 00 00 00 00 00 00 00 80 fe ff ff ff ff ff ff  ................
	0x0010 00 00 00 00 00 00 00 00 b0 fe ff ff ff ff ff ff  ................
	0x0020 00 00 00 00 00 00 00 00                          ........
	rel 16+8 t=1 type.noalg.map.hdr[string][]string+0
	rel 32+8 t=1 type.noalg.map.bucket[string][]string+0
gclocals·dc9b0298814590ca3ffc3a889546fc8b SRODATA dupok size=10
	0x0000 02 00 00 00 02 00 00 00 03 00                    ..........
aux for "".mapCompoundAssignmentInt8 SDWARFLINES size=120
	0x0000 04 02 03 06 14 0a cd 9c 06 2d 06 08 03 02 fa 06  .........-......
	0x0010 41 06 08 55 06 41 06 03 01 96 06 41 06 08 55 06  A..U.A.....A..U.
	0x0020 41 06 03 01 96 06 41 06 08 55 06 41 06 03 01 b4  A.....A..U.A....
	0x0030 06 41 06 08 7d 06 41 06 03 01 96 06 41 06 08 55  .A..}.A.....A..U
	0x0040 06 41 06 03 01 96 06 41 06 08 55 06 41 06 03 01  .A.....A..U.A...
	0x0050 64 06 41 06 08 73 06 41 06 03 01 96 06 41 06 08  d.A..s.A.....A..
	0x0060 55 06 41 06 03 01 8c 06 41 06 08 55 06 41 06 88  U.A.....A..U.A..
	0x0070 03 4b 6f 02 0a 00 01 01                          .Ko.....
aux for "".mapCompoundAssignmentInt8 SDWARFINFO size=83
	0x0000 03 63 6f 6d 6d 61 6e 64 2d 6c 69 6e 65 2d 61 72  .command-line-ar
	0x0010 67 75 6d 65 6e 74 73 2e 6d 61 70 43 6f 6d 70 6f  guments.mapCompo
	0x0020 75 6e 64 41 73 73 69 67 6e 6d 65 6e 74 49 6e 74  undAssignmentInt
	0x0030 38 00 00 00 00 00 00 00 00 00 00 00 00 00 00 00  8...............
	0x0040 00 00 01 9c 02 00 00 00 01 0a 6d 00 0d 00 00 00  ..........m.....
	0x0050 00 00 00                                         ...
	rel 0+0 t=24 type.int8+0
	rel 0+0 t=24 type.noalg.map.bucket[int8]int8+0
	rel 0+0 t=24 type.noalg.map.hdr[int8]int8+0
	rel 50+8 t=1 "".mapCompoundAssignmentInt8+0
	rel 58+8 t=1 "".mapCompoundAssignmentInt8+592
	rel 77+4 t=29 go.info.map[int8]int8+0
aux for "".mapCompoundAssignmentInt32 SDWARFLINES size=114
	0x0000 04 02 03 c1 00 14 0a ff f6 06 2d 06 02 43 03 02  ..........-..C..
	0x0010 fa 06 55 06 eb 06 41 06 03 01 82 06 55 06 eb 06  ..U...A.....U...
	0x0020 41 06 03 01 64 06 55 06 eb 06 41 06 03 01 aa 06  A...d.U...A.....
	0x0030 55 06 eb 06 41 06 03 01 64 06 55 06 08 2d 06 41  U...A...d.U..-.A
	0x0040 06 03 01 64 06 55 06 eb 06 41 06 03 01 8c 06 55  ...d.U...A.....U
	0x0050 06 eb 06 41 06 03 01 8c 06 55 06 eb 06 41 06 03  ...A.....U...A..
	0x0060 01 5a 06 55 06 eb 06 41 06 56 03 4b ab 02 0a 00  .Z.U...A.V.K....
	0x0070 01 01                                            ..
aux for "".mapCompoundAssignmentInt32 SDWARFINFO size=84
	0x0000 03 63 6f 6d 6d 61 6e 64 2d 6c 69 6e 65 2d 61 72  .command-line-ar
	0x0010 67 75 6d 65 6e 74 73 2e 6d 61 70 43 6f 6d 70 6f  guments.mapCompo
	0x0020 75 6e 64 41 73 73 69 67 6e 6d 65 6e 74 49 6e 74  undAssignmentInt
	0x0030 33 32 00 00 00 00 00 00 00 00 00 00 00 00 00 00  32..............
	0x0040 00 00 00 01 9c 02 00 00 00 01 0a 6d 00 48 00 00  ...........m.H..
	0x0050 00 00 00 00                                      ....
	rel 0+0 t=24 type.noalg.map.bucket[int32]int32+0
	rel 0+0 t=24 type.noalg.map.hdr[int32]int32+0
	rel 51+8 t=1 "".mapCompoundAssignmentInt32+0
	rel 59+8 t=1 "".mapCompoundAssignmentInt32+565
	rel 78+4 t=29 go.info.map[int32]int32+0
aux for "".mapCompoundAssignmentInt64 SDWARFLINES size=126
	0x0000 04 02 03 fc 00 14 0a ff f6 06 2d 06 02 46 03 02  ..........-..F..
	0x0010 fa 06 55 06 08 23 06 41 06 03 01 8c 06 55 06 08  ..U..#.A.....U..
	0x0020 23 06 41 06 03 01 6e 06 55 06 08 23 06 41 06 03  #.A...n.U..#.A..
	0x0030 01 c8 06 55 06 08 23 06 41 06 03 01 6e 06 55 06  ...U..#.A...n.U.
	0x0040 08 23 06 41 06 03 01 6e 06 55 06 08 23 06 41 06  .#.A...n.U..#.A.
	0x0050 03 01 aa 06 55 06 08 4b 06 41 06 03 01 aa 06 55  ....U..K.A.....U
	0x0060 06 08 23 06 41 06 03 01 64 06 55 06 08 23 06 41  ..#.A...d.U..#.A
	0x0070 06 60 06 a5 06 19 03 4b 15 02 0a 00 01 01        .`.....K......
aux for "".mapCompoundAssignmentInt64 SDWARFINFO size=85
	0x0000 03 63 6f 6d 6d 61 6e 64 2d 6c 69 6e 65 2d 61 72  .command-line-ar
	0x0010 67 75 6d 65 6e 74 73 2e 6d 61 70 43 6f 6d 70 6f  guments.mapCompo
	0x0020 75 6e 64 41 73 73 69 67 6e 6d 65 6e 74 49 6e 74  undAssignmentInt
	0x0030 36 34 00 00 00 00 00 00 00 00 00 00 00 00 00 00  64..............
	0x0040 00 00 00 01 9c 02 00 00 00 01 0a 6d 00 83 01 00  ...........m....
	0x0050 00 00 00 00 00                                   .....
	rel 0+0 t=24 type.noalg.map.bucket[int64]int64+0
	rel 0+0 t=24 type.noalg.map.hdr[int64]int64+0
	rel 51+8 t=1 "".mapCompoundAssignmentInt64+0
	rel 59+8 t=1 "".mapCompoundAssignmentInt64+619
	rel 79+4 t=29 go.info.map[int64]int64+0
aux for "".mapCompoundAssignmentComplex128 SDWARFLINES size=85
	0x0000 04 02 03 b7 01 14 0a 08 2d f6 06 2d 06 02 43 03  ........-..-..C.
	0x0010 02 fa 06 2d 06 08 eb 06 41 06 08 03 01 a0 06 4b  ...-....A......K
	0x0020 06 08 af 06 41 06 08 03 01 c8 06 4b 06 08 af 06  ....A......K....
	0x0030 41 06 02 2e 03 01 fa 06 4b 06 08 af 06 41 06 08  A.......K....A..
	0x0040 03 01 c8 06 4b 06 08 af 06 41 06 08 c4 03 63 ab  ....K....A....c.
	0x0050 02 0a 00 01 01                                   .....
aux for "".mapCompoundAssignmentComplex128 SDWARFINFO size=100
	0x0000 03 63 6f 6d 6d 61 6e 64 2d 6c 69 6e 65 2d 61 72  .command-line-ar
	0x0010 67 75 6d 65 6e 74 73 2e 6d 61 70 43 6f 6d 70 6f  guments.mapCompo
	0x0020 75 6e 64 41 73 73 69 67 6e 6d 65 6e 74 43 6f 6d  undAssignmentCom
	0x0030 70 6c 65 78 31 32 38 00 00 00 00 00 00 00 00 00  plex128.........
	0x0040 00 00 00 00 00 00 00 00 01 9c 02 00 00 00 01 0a  ................
	0x0050 6d 00 be 01 00 00 00 00 00 0a 6b 00 bf 01 00 00  m.........k.....
	0x0060 00 00 00 00                                      ....
	rel 0+0 t=24 type.complex128+0
	rel 0+0 t=24 type.noalg.map.bucket[complex128]complex128+0
	rel 0+0 t=24 type.noalg.map.hdr[complex128]complex128+0
	rel 56+8 t=1 "".mapCompoundAssignmentComplex128+0
	rel 64+8 t=1 "".mapCompoundAssignmentComplex128+660
	rel 84+4 t=29 go.info.map[complex128]complex128+0
	rel 94+4 t=29 go.info.complex128+0
aux for "".mapCompoundAssignmentString SDWARFLINES size=40
	0x0000 04 02 03 da 01 14 0a 08 2d f6 06 2d 06 02 40 03  ........-..-..@.
	0x0010 02 fa 06 55 06 08 7d 06 41 06 02 45 f6 06 ae 06  ...U..}.A..E....
	0x0020 03 7c 51 02 0a 00 01 01                          .|Q.....
aux for "".mapCompoundAssignmentString SDWARFINFO size=96
	0x0000 03 63 6f 6d 6d 61 6e 64 2d 6c 69 6e 65 2d 61 72  .command-line-ar
	0x0010 67 75 6d 65 6e 74 73 2e 6d 61 70 43 6f 6d 70 6f  guments.mapCompo
	0x0020 75 6e 64 41 73 73 69 67 6e 6d 65 6e 74 53 74 72  undAssignmentStr
	0x0030 69 6e 67 00 00 00 00 00 00 00 00 00 00 00 00 00  ing.............
	0x0040 00 00 00 00 01 9c 02 00 00 00 01 0a 6d 00 e1 01  ............m...
	0x0050 00 00 00 00 00 0a 6b 00 e2 01 00 00 00 00 00 00  ......k.........
	rel 0+0 t=24 type.*string+0
	rel 0+0 t=24 type.noalg.map.bucket[string]string+0
	rel 0+0 t=24 type.noalg.map.hdr[string]string+0
	rel 52+8 t=1 "".mapCompoundAssignmentString+0
	rel 60+8 t=1 "".mapCompoundAssignmentString+312
	rel 80+4 t=29 go.info.map[string]string+0
	rel 90+4 t=29 go.info.string+0
aux for "".mapAppendAssignmentInt8 SDWARFLOC size=84
	0x0000 ff ff ff ff ff ff ff ff 00 00 00 00 00 00 00 00  ................
	0x0010 34 02 00 00 00 00 00 00 73 02 00 00 00 00 00 00  4.......s.......
	0x0020 07 00 50 93 08 93 08 93 08 73 02 00 00 00 00 00  ..P......s......
	0x0030 00 c5 06 00 00 00 00 00 00 09 00 91 d0 7d 93 08  .............}..
	0x0040 93 08 93 08 00 00 00 00 00 00 00 00 00 00 00 00  ................
	0x0050 00 00 00 00                                      ....
	rel 8+8 t=1 "".mapAppendAssignmentInt8+0
aux for "".mapAppendAssignmentInt8 SDWARFLINES size=140
	0x0000 04 02 03 e8 01 14 0a 08 2d f6 06 2d 06 02 4b 03  ........-..-..K.
	0x0010 02 fa 06 41 06 08 a5 06 41 06 02 76 03 01 fa 06  ...A....A..v....
	0x0020 41 06 08 a5 06 41 06 02 82 01 f7 06 55 06 08 03  A....A......U...
	0x0030 01 3c 06 41 06 08 a5 06 41 06 02 75 03 03 fa 06  .<.A....A..u....
	0x0040 41 06 08 a5 06 41 06 02 8a 01 03 01 fa 06 41 06  A....A........A.
	0x0050 08 c3 06 41 06 02 83 01 03 01 fa 06 41 06 08 a5  ...A........A...
	0x0060 06 41 06 02 68 f6 06 ae 02 3a 03 7e fb 02 42 03  .A..h....:.~..B.
	0x0070 7e fb 02 4e 03 7c fb 02 3c 03 7c fb 02 48 03 7e  ~..N.|..<.|..H.~
	0x0080 fb 06 02 48 03 7c fb 02 0a 00 01 01              ...H.|......
aux for "".mapAppendAssignmentInt8 SDWARFINFO size=95
	0x0000 03 63 6f 6d 6d 61 6e 64 2d 6c 69 6e 65 2d 61 72  .command-line-ar
	0x0010 67 75 6d 65 6e 74 73 2e 6d 61 70 41 70 70 65 6e  guments.mapAppen
	0x0020 64 41 73 73 69 67 6e 6d 65 6e 74 49 6e 74 38 00  dAssignmentInt8.
	0x0030 00 00 00 00 00 00 00 00 00 00 00 00 00 00 00 00  ................
	0x0040 01 9c 02 00 00 00 01 0a 6d 00 ef 01 00 00 00 00  ........m.......
	0x0050 00 0b 61 00 fe 01 00 00 00 00 00 00 00 00 00     ..a............
	rel 0+0 t=24 type.*[4]int8+0
	rel 0+0 t=24 type.*int8+0
	rel 0+0 t=24 type.int+0
	rel 0+0 t=24 type.int8+0
	rel 0+0 t=24 type.noalg.map.bucket[int8][]int8+0
	rel 0+0 t=24 type.noalg.map.hdr[int8][]int8+0
	rel 48+8 t=1 "".mapAppendAssignmentInt8+0
	rel 56+8 t=1 "".mapAppendAssignmentInt8+1935
	rel 76+4 t=29 go.info.map[int8][]int8+0
	rel 86+4 t=29 go.info.[]int8+0
	rel 90+4 t=29 +0
aux for "".mapAppendAssignmentInt32 SDWARFLOC size=84
	0x0000 ff ff ff ff ff ff ff ff 00 00 00 00 00 00 00 00  ................
	0x0010 5d 01 00 00 00 00 00 00 9f 01 00 00 00 00 00 00  ]...............
	0x0020 07 00 50 93 08 93 08 93 08 9f 01 00 00 00 00 00  ..P.............
	0x0030 00 25 07 00 00 00 00 00 00 09 00 91 c8 7d 93 08  .%...........}..
	0x0040 93 08 93 08 00 00 00 00 00 00 00 00 00 00 00 00  ................
	0x0050 00 00 00 00                                      ....
	rel 8+8 t=1 "".mapAppendAssignmentInt32+0
aux for "".mapAppendAssignmentInt32 SDWARFLINES size=174
	0x0000 04 02 03 95 02 14 0a 08 2d f6 06 2d 06 02 46 03  ........-..-..F.
	0x0010 02 fa 06 55 06 08 19 06 41 06 08 03 01 dc 06 55  ...U....A......U
	0x0020 06 08 19 06 41 06 02 29 f7 06 55 06 08 03 01 d2  ....A..)..U.....
	0x0030 06 55 06 08 19 06 41 06 02 33 03 01 fa 06 55 06  .U....A..3....U.
	0x0040 08 19 06 41 06 02 30 03 01 fa 06 55 06 08 19 06  ...A..0....U....
	0x0050 41 06 02 30 03 03 fa 06 55 06 08 19 06 41 06 02  A..0....U....A..
	0x0060 94 01 03 01 fa 06 55 06 08 19 06 41 06 02 81 01  ......U....A....
	0x0070 03 01 fa 06 55 06 08 19 06 41 06 02 69 f6 06 ae  ....U....A..i...
	0x0080 02 3a 03 7e fb 02 3e 03 7e fb 02 4e 03 7c fb 02  .:.~..>.~..N.|..
	0x0090 43 03 7e fb 02 43 03 7e fb 02 46 03 7c fb 02 4a  C.~..C.~..F.|..J
	0x00a0 03 7e fb 06 02 48 03 7c fb 02 0a 00 01 01        .~...H.|......
aux for "".mapAppendAssignmentInt32 SDWARFINFO size=96
	0x0000 03 63 6f 6d 6d 61 6e 64 2d 6c 69 6e 65 2d 61 72  .command-line-ar
	0x0010 67 75 6d 65 6e 74 73 2e 6d 61 70 41 70 70 65 6e  guments.mapAppen
	0x0020 64 41 73 73 69 67 6e 6d 65 6e 74 49 6e 74 33 32  dAssignmentInt32
	0x0030 00 00 00 00 00 00 00 00 00 00 00 00 00 00 00 00  ................
	0x0040 00 01 9c 02 00 00 00 01 0a 6d 00 9c 02 00 00 00  .........m......
	0x0050 00 00 0b 61 00 ab 02 00 00 00 00 00 00 00 00 00  ...a............
	rel 0+0 t=24 type.*[4]int32+0
	rel 0+0 t=24 type.*[]int32+0
	rel 0+0 t=24 type.*int32+0
	rel 0+0 t=24 type.int+0
	rel 0+0 t=24 type.noalg.map.bucket[int32][]int32+0
	rel 0+0 t=24 type.noalg.map.hdr[int32][]int32+0
	rel 49+8 t=1 "".mapAppendAssignmentInt32+0
	rel 57+8 t=1 "".mapAppendAssignmentInt32+2033
	rel 77+4 t=29 go.info.map[int32][]int32+0
	rel 87+4 t=29 go.info.[]int32+0
	rel 91+4 t=29 +0
aux for "".mapAppendAssignmentInt64 SDWARFLOC size=84
	0x0000 ff ff ff ff ff ff ff ff 00 00 00 00 00 00 00 00  ................
	0x0010 60 01 00 00 00 00 00 00 ad 01 00 00 00 00 00 00  `...............
	0x0020 07 00 50 93 08 93 08 93 08 ad 01 00 00 00 00 00  ..P.............
	0x0030 00 c5 07 00 00 00 00 00 00 09 00 91 a8 7d 93 08  .............}..
	0x0040 93 08 93 08 00 00 00 00 00 00 00 00 00 00 00 00  ................
	0x0050 00 00 00 00                                      ....
	rel 8+8 t=1 "".mapAppendAssignmentInt64+0
aux for "".mapAppendAssignmentInt64 SDWARFLINES size=175
	0x0000 04 02 03 ce 02 14 0a 08 2d f6 06 2d 06 02 46 03  ........-..-..F.
	0x0010 02 fa 06 55 06 08 23 06 41 06 08 03 01 e6 06 55  ...U..#.A......U
	0x0020 06 08 23 06 41 06 02 29 f7 06 55 06 02 1e 03 01  ..#.A..)..U.....
	0x0030 fa 06 55 06 08 23 06 41 06 02 6d 03 01 fa 06 55  ..U..#.A..m....U
	0x0040 06 08 23 06 41 06 02 69 03 01 fa 06 55 06 08 23  ..#.A..i....U..#
	0x0050 06 41 06 02 6e 03 03 fa 06 55 06 08 23 06 41 06  .A..n....U..#.A.
	0x0060 02 92 01 03 01 fa 06 55 06 08 23 06 41 06 02 83  .......U..#.A...
	0x0070 01 03 01 fa 06 55 06 08 23 06 41 06 02 6b f6 06  .....U..#.A..k..
	0x0080 ae 02 3a 03 7e fb 02 3d 03 7e fb 02 4e 03 7c fb  ..:.~..=.~..N.|.
	0x0090 02 39 03 7e fb 02 34 03 7e fb 02 3a 03 7c fb 02  .9.~..4.~..:.|..
	0x00a0 4a 03 7e fb 06 02 48 03 7c fb 02 0a 00 01 01     J.~...H.|......
aux for "".mapAppendAssignmentInt64 SDWARFINFO size=96
	0x0000 03 63 6f 6d 6d 61 6e 64 2d 6c 69 6e 65 2d 61 72  .command-line-ar
	0x0010 67 75 6d 65 6e 74 73 2e 6d 61 70 41 70 70 65 6e  guments.mapAppen
	0x0020 64 41 73 73 69 67 6e 6d 65 6e 74 49 6e 74 36 34  dAssignmentInt64
	0x0030 00 00 00 00 00 00 00 00 00 00 00 00 00 00 00 00  ................
	0x0040 00 01 9c 02 00 00 00 01 0a 6d 00 d5 02 00 00 00  .........m......
	0x0050 00 00 0b 61 00 e4 02 00 00 00 00 00 00 00 00 00  ...a............
	rel 0+0 t=24 type.*[4]int64+0
	rel 0+0 t=24 type.*[]int64+0
	rel 0+0 t=24 type.*int64+0
	rel 0+0 t=24 type.int+0
	rel 0+0 t=24 type.noalg.map.bucket[int64][]int64+0
	rel 0+0 t=24 type.noalg.map.hdr[int64][]int64+0
	rel 49+8 t=1 "".mapAppendAssignmentInt64+0
	rel 57+8 t=1 "".mapAppendAssignmentInt64+2193
	rel 77+4 t=29 go.info.map[int64][]int64+0
	rel 87+4 t=29 go.info.[]int64+0
	rel 91+4 t=29 +0
aux for "".mapAppendAssignmentComplex128 SDWARFLOC size=84
	0x0000 ff ff ff ff ff ff ff ff 00 00 00 00 00 00 00 00  ................
	0x0010 92 02 00 00 00 00 00 00 1b 03 00 00 00 00 00 00  ................
	0x0020 07 00 50 93 08 93 08 93 08 1b 03 00 00 00 00 00  ..P.............
	0x0030 00 05 08 00 00 00 00 00 00 09 00 91 d8 7c 93 08  .............|..
	0x0040 93 08 93 08 00 00 00 00 00 00 00 00 00 00 00 00  ................
	0x0050 00 00 00 00                                      ....
	rel 8+8 t=1 "".mapAppendAssignmentComplex128+0
aux for "".mapAppendAssignmentComplex128 SDWARFLINES size=144
	0x0000 04 02 03 88 03 14 0a 08 2d f6 06 2d 06 02 46 03  ........-..-..F.
	0x0010 02 fa 06 2d 06 02 22 ff 06 41 06 02 89 01 03 01  ...-.."..A......
	0x0020 fa 06 2d 06 02 22 ff 06 41 06 02 b0 01 f7 06 55  ..-.."..A......U
	0x0030 06 02 41 03 01 fa 06 4b 06 02 1c ff 06 41 06 02  ..A....K.....A..
	0x0040 94 01 03 03 fa 06 2d 06 02 22 ff 06 41 06 02 96  ......-.."..A...
	0x0050 01 03 01 fa 06 2d 06 02 22 ff 06 41 06 02 98 01  .....-.."..A....
	0x0060 03 01 fa 06 2d 06 02 c5 01 f6 06 ae 02 3b 03 7e  ....-........;.~
	0x0070 fb 02 45 03 7e fb 02 51 03 7c fb 02 3f 03 7c fb  ..E.~..Q.|..?.|.
	0x0080 02 48 03 7e fb 06 02 48 03 7c fb 02 0a 00 01 01  .H.~...H.|......
aux for "".mapAppendAssignmentComplex128 SDWARFINFO size=111
	0x0000 03 63 6f 6d 6d 61 6e 64 2d 6c 69 6e 65 2d 61 72  .command-line-ar
	0x0010 67 75 6d 65 6e 74 73 2e 6d 61 70 41 70 70 65 6e  guments.mapAppen
	0x0020 64 41 73 73 69 67 6e 6d 65 6e 74 43 6f 6d 70 6c  dAssignmentCompl
	0x0030 65 78 31 32 38 00 00 00 00 00 00 00 00 00 00 00  ex128...........
	0x0040 00 00 00 00 00 00 01 9c 02 00 00 00 01 0a 6d 00  ..............m.
	0x0050 8f 03 00 00 00 00 00 0a 6b 00 90 03 00 00 00 00  ........k.......
	0x0060 00 0b 61 00 9e 03 00 00 00 00 00 00 00 00 00     ..a............
	rel 0+0 t=24 type.*[4]complex128+0
	rel 0+0 t=24 type.*complex128+0
	rel 0+0 t=24 type.complex128+0
	rel 0+0 t=24 type.int+0
	rel 0+0 t=24 type.noalg.map.bucket[complex128][]complex128+0
	rel 0+0 t=24 type.noalg.map.hdr[complex128][]complex128+0
	rel 54+8 t=1 "".mapAppendAssignmentComplex128+0
	rel 62+8 t=1 "".mapAppendAssignmentComplex128+2255
	rel 82+4 t=29 go.info.map[complex128][]complex128+0
	rel 92+4 t=29 go.info.complex128+0
	rel 102+4 t=29 go.info.[]complex128+0
	rel 106+4 t=29 +0
aux for "".mapAppendAssignmentString SDWARFLOC size=111
	0x0000 ff ff ff ff ff ff ff ff 00 00 00 00 00 00 00 00  ................
	0x0010 0a 02 00 00 00 00 00 00 8f 02 00 00 00 00 00 00  ................
	0x0020 07 00 50 93 08 93 08 93 08 8f 02 00 00 00 00 00  ..P.............
	0x0030 00 05 08 00 00 00 00 00 00 09 00 91 e8 7c 93 08  .............|..
	0x0040 93 08 93 08 0d 09 00 00 00 00 00 00 30 09 00 00  ............0...
	0x0050 00 00 00 00 09 00 91 e8 7c 93 08 93 08 93 08 00  ........|.......
	0x0060 00 00 00 00 00 00 00 00 00 00 00 00 00 00 00     ...............
	rel 8+8 t=1 "".mapAppendAssignmentString+0
aux for "".mapAppendAssignmentString SDWARFLINES size=151
	0x0000 04 02 03 b5 03 14 0a 08 2d f6 06 2d 06 02 46 03  ........-..-..F.
	0x0010 02 fa 06 55 06 08 a5 06 41 06 02 3e 03 01 fa 06  ...U....A..>....
	0x0020 55 06 08 9b 06 41 06 02 91 01 f7 06 55 06 02 4b  U....A......U..K
	0x0030 03 01 fa 06 55 06 08 9b 06 41 06 02 97 01 03 03  ....U....A......
	0x0040 fa 06 55 06 08 9b 06 41 06 02 be 01 03 01 fa 06  ..U....A........
	0x0050 55 06 08 9b 06 41 06 02 b2 01 03 01 fa 06 41 06  U....A........A.
	0x0060 08 eb 06 41 06 02 cd 01 f6 06 ae 02 4d 03 7e fb  ...A........M.~.
	0x0070 02 4e 03 7e fb 02 5c 03 7c fb 02 43 03 7c fb 02  .N.~..\.|..C.|..
	0x0080 80 01 03 7e fb 02 59 03 11 fa 03 7c 8d 06 7d 03  ...~..Y....|..}.
	0x0090 6e 15 02 0a 00 01 01                             n......
aux for "".mapAppendAssignmentString SDWARFINFO size=107
	0x0000 03 63 6f 6d 6d 61 6e 64 2d 6c 69 6e 65 2d 61 72  .command-line-ar
	0x0010 67 75 6d 65 6e 74 73 2e 6d 61 70 41 70 70 65 6e  guments.mapAppen
	0x0020 64 41 73 73 69 67 6e 6d 65 6e 74 53 74 72 69 6e  dAssignmentStrin
	0x0030 67 00 00 00 00 00 00 00 00 00 00 00 00 00 00 00  g...............
	0x0040 00 00 01 9c 02 00 00 00 01 0a 6d 00 bc 03 00 00  ..........m.....
	0x0050 00 00 00 0a 6b 00 bd 03 00 00 00 00 00 0b 61 00  ....k.........a.
	0x0060 cb 03 00 00 00 00 00 00 00 00 00                 ...........
	rel 0+0 t=24 type.noalg.map.hdr[string][]string+0
	rel 0+0 t=24 type.*[]string+0
	rel 0+0 t=24 type.*string+0
	rel 0+0 t=24 type.[32]uint8+0
	rel 0+0 t=24 type.int+0
	rel 0+0 t=24 type.noalg.map.bucket[string][]string+0
	rel 0+0 t=24 type.*[4]string+0
	rel 50+8 t=1 "".mapAppendAssignmentString+0
	rel 58+8 t=1 "".mapAppendAssignmentString+2352
	rel 78+4 t=29 go.info.map[string][]string+0
	rel 88+4 t=29 go.info.string+0
	rel 98+4 t=29 go.info.[]string+0
	rel 102+4 t=29 +0
aux for type..eq.[4]complex128 SDWARFLOC size=155
	0x0000 ff ff ff ff ff ff ff ff 00 00 00 00 00 00 00 00  ................
	0x0010 00 00 00 00 00 00 00 00 74 00 00 00 00 00 00 00  ........t.......
	0x0020 01 00 9c 00 00 00 00 00 00 00 00 00 00 00 00 00  ................
	0x0030 00 00 00 ff ff ff ff ff ff ff ff 00 00 00 00 00  ................
	0x0040 00 00 00 00 00 00 00 00 00 00 00 74 00 00 00 00  ...........t....
	0x0050 00 00 00 02 00 91 08 00 00 00 00 00 00 00 00 00  ................
	0x0060 00 00 00 00 00 00 00 ff ff ff ff ff ff ff ff 00  ................
	0x0070 00 00 00 00 00 00 00 6d 00 00 00 00 00 00 00 74  .......m.......t
	0x0080 00 00 00 00 00 00 00 02 00 91 10 00 00 00 00 00  ................
	0x0090 00 00 00 00 00 00 00 00 00 00 00                 ...........
	rel 8+8 t=1 type..eq.[4]complex128+0
	rel 59+8 t=1 type..eq.[4]complex128+0
	rel 111+8 t=1 type..eq.[4]complex128+0
aux for type..eq.[4]complex128 SDWARFLINES size=25
	0x0000 04 01 0f 06 41 06 08 2d 06 37 06 02 2c ff 06 41  ....A..-.7..,..A
	0x0010 06 19 06 41 02 01 00 01 01                       ...A.....
aux for type..eq.[4]complex128 SDWARFINFO size=87
	0x0000 03 74 79 70 65 2e 2e 65 71 2e 5b 34 5d 63 6f 6d  .type..eq.[4]com
	0x0010 70 6c 65 78 31 32 38 00 00 00 00 00 00 00 00 00  plex128.........
	0x0020 00 00 00 00 00 00 00 00 01 9c 01 00 00 00 01 10  ................
	0x0030 70 00 00 01 00 00 00 00 00 00 00 00 10 71 00 00  p............q..
	0x0040 01 00 00 00 00 00 00 00 00 10 72 00 01 01 00 00  ..........r.....
	0x0050 00 00 00 00 00 00 00                             .......
	rel 0+0 t=24 type.*[4]complex128+0
	rel 0+0 t=24 type.bool+0
	rel 24+8 t=1 type..eq.[4]complex128+0
	rel 32+8 t=1 type..eq.[4]complex128+116
	rel 52+4 t=29 go.info.*[4]complex128+0
	rel 56+4 t=29 +0
	rel 65+4 t=29 go.info.*[4]complex128+0
	rel 69+4 t=29 +51
	rel 78+4 t=29 go.info.bool+0
	rel 82+4 t=29 +103
aux for type..eq.[4]string SDWARFLOC size=175
	0x0000 ff ff ff ff ff ff ff ff 00 00 00 00 00 00 00 00  ................
	0x0010 00 00 00 00 00 00 00 00 d4 00 00 00 00 00 00 00  ................
	0x0020 01 00 9c 00 00 00 00 00 00 00 00 00 00 00 00 00  ................
	0x0030 00 00 00 ff ff ff ff ff ff ff ff 00 00 00 00 00  ................
	0x0040 00 00 00 00 00 00 00 00 00 00 00 d4 00 00 00 00  ................
	0x0050 00 00 00 02 00 91 08 00 00 00 00 00 00 00 00 00  ................
	0x0060 00 00 00 00 00 00 00 ff ff ff ff ff ff ff ff 00  ................
	0x0070 00 00 00 00 00 00 00 54 00 00 00 00 00 00 00 5e  .......T.......^
	0x0080 00 00 00 00 00 00 00 02 00 91 10 b1 00 00 00 00  ................
	0x0090 00 00 00 d4 00 00 00 00 00 00 00 02 00 91 10 00  ................
	0x00a0 00 00 00 00 00 00 00 00 00 00 00 00 00 00 00     ...............
	rel 8+8 t=1 type..eq.[4]string+0
	rel 59+8 t=1 type..eq.[4]string+0
	rel 111+8 t=1 type..eq.[4]string+0
aux for type..eq.[4]string SDWARFLINES size=37
	0x0000 04 01 0f 0a cd 06 cd 06 91 06 37 06 ff 06 41 06  ..........7...A.
	0x0010 08 69 06 37 06 02 1b ff 06 41 06 73 06 41 06 73  .i.7.....A.s.A.s
	0x0020 02 0a 00 01 01                                   .....
aux for type..eq.[4]string SDWARFINFO size=83
	0x0000 03 74 79 70 65 2e 2e 65 71 2e 5b 34 5d 73 74 72  .type..eq.[4]str
	0x0010 69 6e 67 00 00 00 00 00 00 00 00 00 00 00 00 00  ing.............
	0x0020 00 00 00 00 01 9c 01 00 00 00 01 10 70 00 00 01  ............p...
	0x0030 00 00 00 00 00 00 00 00 10 71 00 00 01 00 00 00  .........q......
	0x0040 00 00 00 00 00 10 72 00 01 01 00 00 00 00 00 00  ......r.........
	0x0050 00 00 00                                         ...
	rel 0+0 t=24 type.*[4]string+0
	rel 0+0 t=24 type.bool+0
	rel 0+0 t=24 type.int+0
	rel 20+8 t=1 type..eq.[4]string+0
	rel 28+8 t=1 type..eq.[4]string+212
	rel 48+4 t=29 go.info.*[4]string+0
	rel 52+4 t=29 +0
	rel 61+4 t=29 go.info.*[4]string+0
	rel 65+4 t=29 +51
	rel 74+4 t=29 go.info.bool+0
	rel 78+4 t=29 +103
